
RocketController_v2.elf:     file format elf32-littlearm

Sections:
Idx Name          Size      VMA       LMA       File off  Algn
  0 .isr_vector   00000188  08000000  08000000  00010000  2**0
                  CONTENTS, ALLOC, LOAD, READONLY, DATA
  1 .text         0000aecc  08000190  08000190  00010190  2**4
                  CONTENTS, ALLOC, LOAD, READONLY, CODE
  2 .rodata       000005e0  0800b060  0800b060  0001b060  2**3
                  CONTENTS, ALLOC, LOAD, READONLY, DATA
  3 .ARM.extab    00000000  0800b640  0800b640  000201ec  2**0
                  CONTENTS
  4 .ARM          00000000  0800b640  0800b640  000201ec  2**0
                  CONTENTS
  5 .preinit_array 00000000  0800b640  0800b640  000201ec  2**0
                  CONTENTS, ALLOC, LOAD, DATA
  6 .init_array   00000004  0800b640  0800b640  0001b640  2**2
                  CONTENTS, ALLOC, LOAD, DATA
  7 .fini_array   00000004  0800b644  0800b644  0001b644  2**2
                  CONTENTS, ALLOC, LOAD, DATA
  8 .data         000001ec  20000000  0800b648  00020000  2**3
                  CONTENTS, ALLOC, LOAD, DATA
  9 .ccmram       00000000  10000000  10000000  000201ec  2**0
                  CONTENTS
 10 .bss          000003c8  200001f0  200001f0  000201f0  2**3
                  ALLOC
 11 ._user_heap_stack 00000600  200005b8  200005b8  000201f0  2**0
                  ALLOC
 12 .ARM.attributes 00000030  00000000  00000000  000201ec  2**0
                  CONTENTS, READONLY
 13 .debug_info   00010ca2  00000000  00000000  0002021c  2**0
                  CONTENTS, READONLY, DEBUGGING, OCTETS
 14 .debug_abbrev 000023b3  00000000  00000000  00030ebe  2**0
                  CONTENTS, READONLY, DEBUGGING, OCTETS
 15 .debug_aranges 00000e20  00000000  00000000  00033278  2**3
                  CONTENTS, READONLY, DEBUGGING, OCTETS
 16 .debug_ranges 00000d18  00000000  00000000  00034098  2**3
                  CONTENTS, READONLY, DEBUGGING, OCTETS
 17 .debug_macro  0001c43b  00000000  00000000  00034db0  2**0
                  CONTENTS, READONLY, DEBUGGING, OCTETS
 18 .debug_line   00010e79  00000000  00000000  000511eb  2**0
                  CONTENTS, READONLY, DEBUGGING, OCTETS
 19 .debug_str    000a37fb  00000000  00000000  00062064  2**0
                  CONTENTS, READONLY, DEBUGGING, OCTETS
 20 .comment      00000053  00000000  00000000  0010585f  2**0
                  CONTENTS, READONLY
 21 .debug_frame  00005348  00000000  00000000  001058b4  2**2
                  CONTENTS, READONLY, DEBUGGING, OCTETS

Disassembly of section .text:

08000190 <__do_global_dtors_aux>:
 8000190:	b510      	push	{r4, lr}
 8000192:	4c05      	ldr	r4, [pc, #20]	; (80001a8 <__do_global_dtors_aux+0x18>)
 8000194:	7823      	ldrb	r3, [r4, #0]
 8000196:	b933      	cbnz	r3, 80001a6 <__do_global_dtors_aux+0x16>
 8000198:	4b04      	ldr	r3, [pc, #16]	; (80001ac <__do_global_dtors_aux+0x1c>)
 800019a:	b113      	cbz	r3, 80001a2 <__do_global_dtors_aux+0x12>
 800019c:	4804      	ldr	r0, [pc, #16]	; (80001b0 <__do_global_dtors_aux+0x20>)
 800019e:	f3af 8000 	nop.w
 80001a2:	2301      	movs	r3, #1
 80001a4:	7023      	strb	r3, [r4, #0]
 80001a6:	bd10      	pop	{r4, pc}
 80001a8:	200001f0 	.word	0x200001f0
 80001ac:	00000000 	.word	0x00000000
 80001b0:	0800b044 	.word	0x0800b044

080001b4 <frame_dummy>:
 80001b4:	b508      	push	{r3, lr}
 80001b6:	4b03      	ldr	r3, [pc, #12]	; (80001c4 <frame_dummy+0x10>)
 80001b8:	b11b      	cbz	r3, 80001c2 <frame_dummy+0xe>
 80001ba:	4903      	ldr	r1, [pc, #12]	; (80001c8 <frame_dummy+0x14>)
 80001bc:	4803      	ldr	r0, [pc, #12]	; (80001cc <frame_dummy+0x18>)
 80001be:	f3af 8000 	nop.w
 80001c2:	bd08      	pop	{r3, pc}
 80001c4:	00000000 	.word	0x00000000
 80001c8:	200001f4 	.word	0x200001f4
 80001cc:	0800b044 	.word	0x0800b044

080001d0 <strlen>:
 80001d0:	4603      	mov	r3, r0
 80001d2:	f813 2b01 	ldrb.w	r2, [r3], #1
 80001d6:	2a00      	cmp	r2, #0
 80001d8:	d1fb      	bne.n	80001d2 <strlen+0x2>
 80001da:	1a18      	subs	r0, r3, r0
 80001dc:	3801      	subs	r0, #1
 80001de:	4770      	bx	lr

080001e0 <memchr>:
 80001e0:	f001 01ff 	and.w	r1, r1, #255	; 0xff
 80001e4:	2a10      	cmp	r2, #16
 80001e6:	db2b      	blt.n	8000240 <memchr+0x60>
 80001e8:	f010 0f07 	tst.w	r0, #7
 80001ec:	d008      	beq.n	8000200 <memchr+0x20>
 80001ee:	f810 3b01 	ldrb.w	r3, [r0], #1
 80001f2:	3a01      	subs	r2, #1
 80001f4:	428b      	cmp	r3, r1
 80001f6:	d02d      	beq.n	8000254 <memchr+0x74>
 80001f8:	f010 0f07 	tst.w	r0, #7
 80001fc:	b342      	cbz	r2, 8000250 <memchr+0x70>
 80001fe:	d1f6      	bne.n	80001ee <memchr+0xe>
 8000200:	b4f0      	push	{r4, r5, r6, r7}
 8000202:	ea41 2101 	orr.w	r1, r1, r1, lsl #8
 8000206:	ea41 4101 	orr.w	r1, r1, r1, lsl #16
 800020a:	f022 0407 	bic.w	r4, r2, #7
 800020e:	f07f 0700 	mvns.w	r7, #0
 8000212:	2300      	movs	r3, #0
 8000214:	e8f0 5602 	ldrd	r5, r6, [r0], #8
 8000218:	3c08      	subs	r4, #8
 800021a:	ea85 0501 	eor.w	r5, r5, r1
 800021e:	ea86 0601 	eor.w	r6, r6, r1
 8000222:	fa85 f547 	uadd8	r5, r5, r7
 8000226:	faa3 f587 	sel	r5, r3, r7
 800022a:	fa86 f647 	uadd8	r6, r6, r7
 800022e:	faa5 f687 	sel	r6, r5, r7
 8000232:	b98e      	cbnz	r6, 8000258 <memchr+0x78>
 8000234:	d1ee      	bne.n	8000214 <memchr+0x34>
 8000236:	bcf0      	pop	{r4, r5, r6, r7}
 8000238:	f001 01ff 	and.w	r1, r1, #255	; 0xff
 800023c:	f002 0207 	and.w	r2, r2, #7
 8000240:	b132      	cbz	r2, 8000250 <memchr+0x70>
 8000242:	f810 3b01 	ldrb.w	r3, [r0], #1
 8000246:	3a01      	subs	r2, #1
 8000248:	ea83 0301 	eor.w	r3, r3, r1
 800024c:	b113      	cbz	r3, 8000254 <memchr+0x74>
 800024e:	d1f8      	bne.n	8000242 <memchr+0x62>
 8000250:	2000      	movs	r0, #0
 8000252:	4770      	bx	lr
 8000254:	3801      	subs	r0, #1
 8000256:	4770      	bx	lr
 8000258:	2d00      	cmp	r5, #0
 800025a:	bf06      	itte	eq
 800025c:	4635      	moveq	r5, r6
 800025e:	3803      	subeq	r0, #3
 8000260:	3807      	subne	r0, #7
 8000262:	f015 0f01 	tst.w	r5, #1
 8000266:	d107      	bne.n	8000278 <memchr+0x98>
 8000268:	3001      	adds	r0, #1
 800026a:	f415 7f80 	tst.w	r5, #256	; 0x100
 800026e:	bf02      	ittt	eq
 8000270:	3001      	addeq	r0, #1
 8000272:	f415 3fc0 	tsteq.w	r5, #98304	; 0x18000
 8000276:	3001      	addeq	r0, #1
 8000278:	bcf0      	pop	{r4, r5, r6, r7}
 800027a:	3801      	subs	r0, #1
 800027c:	4770      	bx	lr
 800027e:	bf00      	nop

08000280 <__aeabi_drsub>:
 8000280:	f081 4100 	eor.w	r1, r1, #2147483648	; 0x80000000
 8000284:	e002      	b.n	800028c <__adddf3>
 8000286:	bf00      	nop

08000288 <__aeabi_dsub>:
 8000288:	f083 4300 	eor.w	r3, r3, #2147483648	; 0x80000000

0800028c <__adddf3>:
 800028c:	b530      	push	{r4, r5, lr}
 800028e:	ea4f 0441 	mov.w	r4, r1, lsl #1
 8000292:	ea4f 0543 	mov.w	r5, r3, lsl #1
 8000296:	ea94 0f05 	teq	r4, r5
 800029a:	bf08      	it	eq
 800029c:	ea90 0f02 	teqeq	r0, r2
 80002a0:	bf1f      	itttt	ne
 80002a2:	ea54 0c00 	orrsne.w	ip, r4, r0
 80002a6:	ea55 0c02 	orrsne.w	ip, r5, r2
 80002aa:	ea7f 5c64 	mvnsne.w	ip, r4, asr #21
 80002ae:	ea7f 5c65 	mvnsne.w	ip, r5, asr #21
 80002b2:	f000 80e2 	beq.w	800047a <__adddf3+0x1ee>
 80002b6:	ea4f 5454 	mov.w	r4, r4, lsr #21
 80002ba:	ebd4 5555 	rsbs	r5, r4, r5, lsr #21
 80002be:	bfb8      	it	lt
 80002c0:	426d      	neglt	r5, r5
 80002c2:	dd0c      	ble.n	80002de <__adddf3+0x52>
 80002c4:	442c      	add	r4, r5
 80002c6:	ea80 0202 	eor.w	r2, r0, r2
 80002ca:	ea81 0303 	eor.w	r3, r1, r3
 80002ce:	ea82 0000 	eor.w	r0, r2, r0
 80002d2:	ea83 0101 	eor.w	r1, r3, r1
 80002d6:	ea80 0202 	eor.w	r2, r0, r2
 80002da:	ea81 0303 	eor.w	r3, r1, r3
 80002de:	2d36      	cmp	r5, #54	; 0x36
 80002e0:	bf88      	it	hi
 80002e2:	bd30      	pophi	{r4, r5, pc}
 80002e4:	f011 4f00 	tst.w	r1, #2147483648	; 0x80000000
 80002e8:	ea4f 3101 	mov.w	r1, r1, lsl #12
 80002ec:	f44f 1c80 	mov.w	ip, #1048576	; 0x100000
 80002f0:	ea4c 3111 	orr.w	r1, ip, r1, lsr #12
 80002f4:	d002      	beq.n	80002fc <__adddf3+0x70>
 80002f6:	4240      	negs	r0, r0
 80002f8:	eb61 0141 	sbc.w	r1, r1, r1, lsl #1
 80002fc:	f013 4f00 	tst.w	r3, #2147483648	; 0x80000000
 8000300:	ea4f 3303 	mov.w	r3, r3, lsl #12
 8000304:	ea4c 3313 	orr.w	r3, ip, r3, lsr #12
 8000308:	d002      	beq.n	8000310 <__adddf3+0x84>
 800030a:	4252      	negs	r2, r2
 800030c:	eb63 0343 	sbc.w	r3, r3, r3, lsl #1
 8000310:	ea94 0f05 	teq	r4, r5
 8000314:	f000 80a7 	beq.w	8000466 <__adddf3+0x1da>
 8000318:	f1a4 0401 	sub.w	r4, r4, #1
 800031c:	f1d5 0e20 	rsbs	lr, r5, #32
 8000320:	db0d      	blt.n	800033e <__adddf3+0xb2>
 8000322:	fa02 fc0e 	lsl.w	ip, r2, lr
 8000326:	fa22 f205 	lsr.w	r2, r2, r5
 800032a:	1880      	adds	r0, r0, r2
 800032c:	f141 0100 	adc.w	r1, r1, #0
 8000330:	fa03 f20e 	lsl.w	r2, r3, lr
 8000334:	1880      	adds	r0, r0, r2
 8000336:	fa43 f305 	asr.w	r3, r3, r5
 800033a:	4159      	adcs	r1, r3
 800033c:	e00e      	b.n	800035c <__adddf3+0xd0>
 800033e:	f1a5 0520 	sub.w	r5, r5, #32
 8000342:	f10e 0e20 	add.w	lr, lr, #32
 8000346:	2a01      	cmp	r2, #1
 8000348:	fa03 fc0e 	lsl.w	ip, r3, lr
 800034c:	bf28      	it	cs
 800034e:	f04c 0c02 	orrcs.w	ip, ip, #2
 8000352:	fa43 f305 	asr.w	r3, r3, r5
 8000356:	18c0      	adds	r0, r0, r3
 8000358:	eb51 71e3 	adcs.w	r1, r1, r3, asr #31
 800035c:	f001 4500 	and.w	r5, r1, #2147483648	; 0x80000000
 8000360:	d507      	bpl.n	8000372 <__adddf3+0xe6>
 8000362:	f04f 0e00 	mov.w	lr, #0
 8000366:	f1dc 0c00 	rsbs	ip, ip, #0
 800036a:	eb7e 0000 	sbcs.w	r0, lr, r0
 800036e:	eb6e 0101 	sbc.w	r1, lr, r1
 8000372:	f5b1 1f80 	cmp.w	r1, #1048576	; 0x100000
 8000376:	d31b      	bcc.n	80003b0 <__adddf3+0x124>
 8000378:	f5b1 1f00 	cmp.w	r1, #2097152	; 0x200000
 800037c:	d30c      	bcc.n	8000398 <__adddf3+0x10c>
 800037e:	0849      	lsrs	r1, r1, #1
 8000380:	ea5f 0030 	movs.w	r0, r0, rrx
 8000384:	ea4f 0c3c 	mov.w	ip, ip, rrx
 8000388:	f104 0401 	add.w	r4, r4, #1
 800038c:	ea4f 5244 	mov.w	r2, r4, lsl #21
 8000390:	f512 0f80 	cmn.w	r2, #4194304	; 0x400000
 8000394:	f080 809a 	bcs.w	80004cc <__adddf3+0x240>
 8000398:	f1bc 4f00 	cmp.w	ip, #2147483648	; 0x80000000
 800039c:	bf08      	it	eq
 800039e:	ea5f 0c50 	movseq.w	ip, r0, lsr #1
 80003a2:	f150 0000 	adcs.w	r0, r0, #0
 80003a6:	eb41 5104 	adc.w	r1, r1, r4, lsl #20
 80003aa:	ea41 0105 	orr.w	r1, r1, r5
 80003ae:	bd30      	pop	{r4, r5, pc}
 80003b0:	ea5f 0c4c 	movs.w	ip, ip, lsl #1
 80003b4:	4140      	adcs	r0, r0
 80003b6:	eb41 0101 	adc.w	r1, r1, r1
 80003ba:	3c01      	subs	r4, #1
 80003bc:	bf28      	it	cs
 80003be:	f5b1 1f80 	cmpcs.w	r1, #1048576	; 0x100000
 80003c2:	d2e9      	bcs.n	8000398 <__adddf3+0x10c>
 80003c4:	f091 0f00 	teq	r1, #0
 80003c8:	bf04      	itt	eq
 80003ca:	4601      	moveq	r1, r0
 80003cc:	2000      	moveq	r0, #0
 80003ce:	fab1 f381 	clz	r3, r1
 80003d2:	bf08      	it	eq
 80003d4:	3320      	addeq	r3, #32
 80003d6:	f1a3 030b 	sub.w	r3, r3, #11
 80003da:	f1b3 0220 	subs.w	r2, r3, #32
 80003de:	da0c      	bge.n	80003fa <__adddf3+0x16e>
 80003e0:	320c      	adds	r2, #12
 80003e2:	dd08      	ble.n	80003f6 <__adddf3+0x16a>
 80003e4:	f102 0c14 	add.w	ip, r2, #20
 80003e8:	f1c2 020c 	rsb	r2, r2, #12
 80003ec:	fa01 f00c 	lsl.w	r0, r1, ip
 80003f0:	fa21 f102 	lsr.w	r1, r1, r2
 80003f4:	e00c      	b.n	8000410 <__adddf3+0x184>
 80003f6:	f102 0214 	add.w	r2, r2, #20
 80003fa:	bfd8      	it	le
 80003fc:	f1c2 0c20 	rsble	ip, r2, #32
 8000400:	fa01 f102 	lsl.w	r1, r1, r2
 8000404:	fa20 fc0c 	lsr.w	ip, r0, ip
 8000408:	bfdc      	itt	le
 800040a:	ea41 010c 	orrle.w	r1, r1, ip
 800040e:	4090      	lslle	r0, r2
 8000410:	1ae4      	subs	r4, r4, r3
 8000412:	bfa2      	ittt	ge
 8000414:	eb01 5104 	addge.w	r1, r1, r4, lsl #20
 8000418:	4329      	orrge	r1, r5
 800041a:	bd30      	popge	{r4, r5, pc}
 800041c:	ea6f 0404 	mvn.w	r4, r4
 8000420:	3c1f      	subs	r4, #31
 8000422:	da1c      	bge.n	800045e <__adddf3+0x1d2>
 8000424:	340c      	adds	r4, #12
 8000426:	dc0e      	bgt.n	8000446 <__adddf3+0x1ba>
 8000428:	f104 0414 	add.w	r4, r4, #20
 800042c:	f1c4 0220 	rsb	r2, r4, #32
 8000430:	fa20 f004 	lsr.w	r0, r0, r4
 8000434:	fa01 f302 	lsl.w	r3, r1, r2
 8000438:	ea40 0003 	orr.w	r0, r0, r3
 800043c:	fa21 f304 	lsr.w	r3, r1, r4
 8000440:	ea45 0103 	orr.w	r1, r5, r3
 8000444:	bd30      	pop	{r4, r5, pc}
 8000446:	f1c4 040c 	rsb	r4, r4, #12
 800044a:	f1c4 0220 	rsb	r2, r4, #32
 800044e:	fa20 f002 	lsr.w	r0, r0, r2
 8000452:	fa01 f304 	lsl.w	r3, r1, r4
 8000456:	ea40 0003 	orr.w	r0, r0, r3
 800045a:	4629      	mov	r1, r5
 800045c:	bd30      	pop	{r4, r5, pc}
 800045e:	fa21 f004 	lsr.w	r0, r1, r4
 8000462:	4629      	mov	r1, r5
 8000464:	bd30      	pop	{r4, r5, pc}
 8000466:	f094 0f00 	teq	r4, #0
 800046a:	f483 1380 	eor.w	r3, r3, #1048576	; 0x100000
 800046e:	bf06      	itte	eq
 8000470:	f481 1180 	eoreq.w	r1, r1, #1048576	; 0x100000
 8000474:	3401      	addeq	r4, #1
 8000476:	3d01      	subne	r5, #1
 8000478:	e74e      	b.n	8000318 <__adddf3+0x8c>
 800047a:	ea7f 5c64 	mvns.w	ip, r4, asr #21
 800047e:	bf18      	it	ne
 8000480:	ea7f 5c65 	mvnsne.w	ip, r5, asr #21
 8000484:	d029      	beq.n	80004da <__adddf3+0x24e>
 8000486:	ea94 0f05 	teq	r4, r5
 800048a:	bf08      	it	eq
 800048c:	ea90 0f02 	teqeq	r0, r2
 8000490:	d005      	beq.n	800049e <__adddf3+0x212>
 8000492:	ea54 0c00 	orrs.w	ip, r4, r0
 8000496:	bf04      	itt	eq
 8000498:	4619      	moveq	r1, r3
 800049a:	4610      	moveq	r0, r2
 800049c:	bd30      	pop	{r4, r5, pc}
 800049e:	ea91 0f03 	teq	r1, r3
 80004a2:	bf1e      	ittt	ne
 80004a4:	2100      	movne	r1, #0
 80004a6:	2000      	movne	r0, #0
 80004a8:	bd30      	popne	{r4, r5, pc}
 80004aa:	ea5f 5c54 	movs.w	ip, r4, lsr #21
 80004ae:	d105      	bne.n	80004bc <__adddf3+0x230>
 80004b0:	0040      	lsls	r0, r0, #1
 80004b2:	4149      	adcs	r1, r1
 80004b4:	bf28      	it	cs
 80004b6:	f041 4100 	orrcs.w	r1, r1, #2147483648	; 0x80000000
 80004ba:	bd30      	pop	{r4, r5, pc}
 80004bc:	f514 0480 	adds.w	r4, r4, #4194304	; 0x400000
 80004c0:	bf3c      	itt	cc
 80004c2:	f501 1180 	addcc.w	r1, r1, #1048576	; 0x100000
 80004c6:	bd30      	popcc	{r4, r5, pc}
 80004c8:	f001 4500 	and.w	r5, r1, #2147483648	; 0x80000000
 80004cc:	f045 41fe 	orr.w	r1, r5, #2130706432	; 0x7f000000
 80004d0:	f441 0170 	orr.w	r1, r1, #15728640	; 0xf00000
 80004d4:	f04f 0000 	mov.w	r0, #0
 80004d8:	bd30      	pop	{r4, r5, pc}
 80004da:	ea7f 5c64 	mvns.w	ip, r4, asr #21
 80004de:	bf1a      	itte	ne
 80004e0:	4619      	movne	r1, r3
 80004e2:	4610      	movne	r0, r2
 80004e4:	ea7f 5c65 	mvnseq.w	ip, r5, asr #21
 80004e8:	bf1c      	itt	ne
 80004ea:	460b      	movne	r3, r1
 80004ec:	4602      	movne	r2, r0
 80004ee:	ea50 3401 	orrs.w	r4, r0, r1, lsl #12
 80004f2:	bf06      	itte	eq
 80004f4:	ea52 3503 	orrseq.w	r5, r2, r3, lsl #12
 80004f8:	ea91 0f03 	teqeq	r1, r3
 80004fc:	f441 2100 	orrne.w	r1, r1, #524288	; 0x80000
 8000500:	bd30      	pop	{r4, r5, pc}
 8000502:	bf00      	nop

08000504 <__aeabi_ui2d>:
 8000504:	f090 0f00 	teq	r0, #0
 8000508:	bf04      	itt	eq
 800050a:	2100      	moveq	r1, #0
 800050c:	4770      	bxeq	lr
 800050e:	b530      	push	{r4, r5, lr}
 8000510:	f44f 6480 	mov.w	r4, #1024	; 0x400
 8000514:	f104 0432 	add.w	r4, r4, #50	; 0x32
 8000518:	f04f 0500 	mov.w	r5, #0
 800051c:	f04f 0100 	mov.w	r1, #0
 8000520:	e750      	b.n	80003c4 <__adddf3+0x138>
 8000522:	bf00      	nop

08000524 <__aeabi_i2d>:
 8000524:	f090 0f00 	teq	r0, #0
 8000528:	bf04      	itt	eq
 800052a:	2100      	moveq	r1, #0
 800052c:	4770      	bxeq	lr
 800052e:	b530      	push	{r4, r5, lr}
 8000530:	f44f 6480 	mov.w	r4, #1024	; 0x400
 8000534:	f104 0432 	add.w	r4, r4, #50	; 0x32
 8000538:	f010 4500 	ands.w	r5, r0, #2147483648	; 0x80000000
 800053c:	bf48      	it	mi
 800053e:	4240      	negmi	r0, r0
 8000540:	f04f 0100 	mov.w	r1, #0
 8000544:	e73e      	b.n	80003c4 <__adddf3+0x138>
 8000546:	bf00      	nop

08000548 <__aeabi_f2d>:
 8000548:	0042      	lsls	r2, r0, #1
 800054a:	ea4f 01e2 	mov.w	r1, r2, asr #3
 800054e:	ea4f 0131 	mov.w	r1, r1, rrx
 8000552:	ea4f 7002 	mov.w	r0, r2, lsl #28
 8000556:	bf1f      	itttt	ne
 8000558:	f012 437f 	andsne.w	r3, r2, #4278190080	; 0xff000000
 800055c:	f093 4f7f 	teqne	r3, #4278190080	; 0xff000000
 8000560:	f081 5160 	eorne.w	r1, r1, #939524096	; 0x38000000
 8000564:	4770      	bxne	lr
 8000566:	f032 427f 	bics.w	r2, r2, #4278190080	; 0xff000000
 800056a:	bf08      	it	eq
 800056c:	4770      	bxeq	lr
 800056e:	f093 4f7f 	teq	r3, #4278190080	; 0xff000000
 8000572:	bf04      	itt	eq
 8000574:	f441 2100 	orreq.w	r1, r1, #524288	; 0x80000
 8000578:	4770      	bxeq	lr
 800057a:	b530      	push	{r4, r5, lr}
 800057c:	f44f 7460 	mov.w	r4, #896	; 0x380
 8000580:	f001 4500 	and.w	r5, r1, #2147483648	; 0x80000000
 8000584:	f021 4100 	bic.w	r1, r1, #2147483648	; 0x80000000
 8000588:	e71c      	b.n	80003c4 <__adddf3+0x138>
 800058a:	bf00      	nop

0800058c <__aeabi_ul2d>:
 800058c:	ea50 0201 	orrs.w	r2, r0, r1
 8000590:	bf08      	it	eq
 8000592:	4770      	bxeq	lr
 8000594:	b530      	push	{r4, r5, lr}
 8000596:	f04f 0500 	mov.w	r5, #0
 800059a:	e00a      	b.n	80005b2 <__aeabi_l2d+0x16>

0800059c <__aeabi_l2d>:
 800059c:	ea50 0201 	orrs.w	r2, r0, r1
 80005a0:	bf08      	it	eq
 80005a2:	4770      	bxeq	lr
 80005a4:	b530      	push	{r4, r5, lr}
 80005a6:	f011 4500 	ands.w	r5, r1, #2147483648	; 0x80000000
 80005aa:	d502      	bpl.n	80005b2 <__aeabi_l2d+0x16>
 80005ac:	4240      	negs	r0, r0
 80005ae:	eb61 0141 	sbc.w	r1, r1, r1, lsl #1
 80005b2:	f44f 6480 	mov.w	r4, #1024	; 0x400
 80005b6:	f104 0432 	add.w	r4, r4, #50	; 0x32
 80005ba:	ea5f 5c91 	movs.w	ip, r1, lsr #22
 80005be:	f43f aed8 	beq.w	8000372 <__adddf3+0xe6>
 80005c2:	f04f 0203 	mov.w	r2, #3
 80005c6:	ea5f 0cdc 	movs.w	ip, ip, lsr #3
 80005ca:	bf18      	it	ne
 80005cc:	3203      	addne	r2, #3
 80005ce:	ea5f 0cdc 	movs.w	ip, ip, lsr #3
 80005d2:	bf18      	it	ne
 80005d4:	3203      	addne	r2, #3
 80005d6:	eb02 02dc 	add.w	r2, r2, ip, lsr #3
 80005da:	f1c2 0320 	rsb	r3, r2, #32
 80005de:	fa00 fc03 	lsl.w	ip, r0, r3
 80005e2:	fa20 f002 	lsr.w	r0, r0, r2
 80005e6:	fa01 fe03 	lsl.w	lr, r1, r3
 80005ea:	ea40 000e 	orr.w	r0, r0, lr
 80005ee:	fa21 f102 	lsr.w	r1, r1, r2
 80005f2:	4414      	add	r4, r2
 80005f4:	e6bd      	b.n	8000372 <__adddf3+0xe6>
 80005f6:	bf00      	nop

080005f8 <__aeabi_dmul>:
 80005f8:	b570      	push	{r4, r5, r6, lr}
 80005fa:	f04f 0cff 	mov.w	ip, #255	; 0xff
 80005fe:	f44c 6ce0 	orr.w	ip, ip, #1792	; 0x700
 8000602:	ea1c 5411 	ands.w	r4, ip, r1, lsr #20
 8000606:	bf1d      	ittte	ne
 8000608:	ea1c 5513 	andsne.w	r5, ip, r3, lsr #20
 800060c:	ea94 0f0c 	teqne	r4, ip
 8000610:	ea95 0f0c 	teqne	r5, ip
 8000614:	f000 f8de 	bleq	80007d4 <__aeabi_dmul+0x1dc>
 8000618:	442c      	add	r4, r5
 800061a:	ea81 0603 	eor.w	r6, r1, r3
 800061e:	ea21 514c 	bic.w	r1, r1, ip, lsl #21
 8000622:	ea23 534c 	bic.w	r3, r3, ip, lsl #21
 8000626:	ea50 3501 	orrs.w	r5, r0, r1, lsl #12
 800062a:	bf18      	it	ne
 800062c:	ea52 3503 	orrsne.w	r5, r2, r3, lsl #12
 8000630:	f441 1180 	orr.w	r1, r1, #1048576	; 0x100000
 8000634:	f443 1380 	orr.w	r3, r3, #1048576	; 0x100000
 8000638:	d038      	beq.n	80006ac <__aeabi_dmul+0xb4>
 800063a:	fba0 ce02 	umull	ip, lr, r0, r2
 800063e:	f04f 0500 	mov.w	r5, #0
 8000642:	fbe1 e502 	umlal	lr, r5, r1, r2
 8000646:	f006 4200 	and.w	r2, r6, #2147483648	; 0x80000000
 800064a:	fbe0 e503 	umlal	lr, r5, r0, r3
 800064e:	f04f 0600 	mov.w	r6, #0
 8000652:	fbe1 5603 	umlal	r5, r6, r1, r3
 8000656:	f09c 0f00 	teq	ip, #0
 800065a:	bf18      	it	ne
 800065c:	f04e 0e01 	orrne.w	lr, lr, #1
 8000660:	f1a4 04ff 	sub.w	r4, r4, #255	; 0xff
 8000664:	f5b6 7f00 	cmp.w	r6, #512	; 0x200
 8000668:	f564 7440 	sbc.w	r4, r4, #768	; 0x300
 800066c:	d204      	bcs.n	8000678 <__aeabi_dmul+0x80>
 800066e:	ea5f 0e4e 	movs.w	lr, lr, lsl #1
 8000672:	416d      	adcs	r5, r5
 8000674:	eb46 0606 	adc.w	r6, r6, r6
 8000678:	ea42 21c6 	orr.w	r1, r2, r6, lsl #11
 800067c:	ea41 5155 	orr.w	r1, r1, r5, lsr #21
 8000680:	ea4f 20c5 	mov.w	r0, r5, lsl #11
 8000684:	ea40 505e 	orr.w	r0, r0, lr, lsr #21
 8000688:	ea4f 2ece 	mov.w	lr, lr, lsl #11
 800068c:	f1b4 0cfd 	subs.w	ip, r4, #253	; 0xfd
 8000690:	bf88      	it	hi
 8000692:	f5bc 6fe0 	cmphi.w	ip, #1792	; 0x700
 8000696:	d81e      	bhi.n	80006d6 <__aeabi_dmul+0xde>
 8000698:	f1be 4f00 	cmp.w	lr, #2147483648	; 0x80000000
 800069c:	bf08      	it	eq
 800069e:	ea5f 0e50 	movseq.w	lr, r0, lsr #1
 80006a2:	f150 0000 	adcs.w	r0, r0, #0
 80006a6:	eb41 5104 	adc.w	r1, r1, r4, lsl #20
 80006aa:	bd70      	pop	{r4, r5, r6, pc}
 80006ac:	f006 4600 	and.w	r6, r6, #2147483648	; 0x80000000
 80006b0:	ea46 0101 	orr.w	r1, r6, r1
 80006b4:	ea40 0002 	orr.w	r0, r0, r2
 80006b8:	ea81 0103 	eor.w	r1, r1, r3
 80006bc:	ebb4 045c 	subs.w	r4, r4, ip, lsr #1
 80006c0:	bfc2      	ittt	gt
 80006c2:	ebd4 050c 	rsbsgt	r5, r4, ip
 80006c6:	ea41 5104 	orrgt.w	r1, r1, r4, lsl #20
 80006ca:	bd70      	popgt	{r4, r5, r6, pc}
 80006cc:	f441 1180 	orr.w	r1, r1, #1048576	; 0x100000
 80006d0:	f04f 0e00 	mov.w	lr, #0
 80006d4:	3c01      	subs	r4, #1
 80006d6:	f300 80ab 	bgt.w	8000830 <__aeabi_dmul+0x238>
 80006da:	f114 0f36 	cmn.w	r4, #54	; 0x36
 80006de:	bfde      	ittt	le
 80006e0:	2000      	movle	r0, #0
 80006e2:	f001 4100 	andle.w	r1, r1, #2147483648	; 0x80000000
 80006e6:	bd70      	pople	{r4, r5, r6, pc}
 80006e8:	f1c4 0400 	rsb	r4, r4, #0
 80006ec:	3c20      	subs	r4, #32
 80006ee:	da35      	bge.n	800075c <__aeabi_dmul+0x164>
 80006f0:	340c      	adds	r4, #12
 80006f2:	dc1b      	bgt.n	800072c <__aeabi_dmul+0x134>
 80006f4:	f104 0414 	add.w	r4, r4, #20
 80006f8:	f1c4 0520 	rsb	r5, r4, #32
 80006fc:	fa00 f305 	lsl.w	r3, r0, r5
 8000700:	fa20 f004 	lsr.w	r0, r0, r4
 8000704:	fa01 f205 	lsl.w	r2, r1, r5
 8000708:	ea40 0002 	orr.w	r0, r0, r2
 800070c:	f001 4200 	and.w	r2, r1, #2147483648	; 0x80000000
 8000710:	f021 4100 	bic.w	r1, r1, #2147483648	; 0x80000000
 8000714:	eb10 70d3 	adds.w	r0, r0, r3, lsr #31
 8000718:	fa21 f604 	lsr.w	r6, r1, r4
 800071c:	eb42 0106 	adc.w	r1, r2, r6
 8000720:	ea5e 0e43 	orrs.w	lr, lr, r3, lsl #1
 8000724:	bf08      	it	eq
 8000726:	ea20 70d3 	biceq.w	r0, r0, r3, lsr #31
 800072a:	bd70      	pop	{r4, r5, r6, pc}
 800072c:	f1c4 040c 	rsb	r4, r4, #12
 8000730:	f1c4 0520 	rsb	r5, r4, #32
 8000734:	fa00 f304 	lsl.w	r3, r0, r4
 8000738:	fa20 f005 	lsr.w	r0, r0, r5
 800073c:	fa01 f204 	lsl.w	r2, r1, r4
 8000740:	ea40 0002 	orr.w	r0, r0, r2
 8000744:	f001 4100 	and.w	r1, r1, #2147483648	; 0x80000000
 8000748:	eb10 70d3 	adds.w	r0, r0, r3, lsr #31
 800074c:	f141 0100 	adc.w	r1, r1, #0
 8000750:	ea5e 0e43 	orrs.w	lr, lr, r3, lsl #1
 8000754:	bf08      	it	eq
 8000756:	ea20 70d3 	biceq.w	r0, r0, r3, lsr #31
 800075a:	bd70      	pop	{r4, r5, r6, pc}
 800075c:	f1c4 0520 	rsb	r5, r4, #32
 8000760:	fa00 f205 	lsl.w	r2, r0, r5
 8000764:	ea4e 0e02 	orr.w	lr, lr, r2
 8000768:	fa20 f304 	lsr.w	r3, r0, r4
 800076c:	fa01 f205 	lsl.w	r2, r1, r5
 8000770:	ea43 0302 	orr.w	r3, r3, r2
 8000774:	fa21 f004 	lsr.w	r0, r1, r4
 8000778:	f001 4100 	and.w	r1, r1, #2147483648	; 0x80000000
 800077c:	fa21 f204 	lsr.w	r2, r1, r4
 8000780:	ea20 0002 	bic.w	r0, r0, r2
 8000784:	eb00 70d3 	add.w	r0, r0, r3, lsr #31
 8000788:	ea5e 0e43 	orrs.w	lr, lr, r3, lsl #1
 800078c:	bf08      	it	eq
 800078e:	ea20 70d3 	biceq.w	r0, r0, r3, lsr #31
 8000792:	bd70      	pop	{r4, r5, r6, pc}
 8000794:	f094 0f00 	teq	r4, #0
 8000798:	d10f      	bne.n	80007ba <__aeabi_dmul+0x1c2>
 800079a:	f001 4600 	and.w	r6, r1, #2147483648	; 0x80000000
 800079e:	0040      	lsls	r0, r0, #1
 80007a0:	eb41 0101 	adc.w	r1, r1, r1
 80007a4:	f411 1f80 	tst.w	r1, #1048576	; 0x100000
 80007a8:	bf08      	it	eq
 80007aa:	3c01      	subeq	r4, #1
 80007ac:	d0f7      	beq.n	800079e <__aeabi_dmul+0x1a6>
 80007ae:	ea41 0106 	orr.w	r1, r1, r6
 80007b2:	f095 0f00 	teq	r5, #0
 80007b6:	bf18      	it	ne
 80007b8:	4770      	bxne	lr
 80007ba:	f003 4600 	and.w	r6, r3, #2147483648	; 0x80000000
 80007be:	0052      	lsls	r2, r2, #1
 80007c0:	eb43 0303 	adc.w	r3, r3, r3
 80007c4:	f413 1f80 	tst.w	r3, #1048576	; 0x100000
 80007c8:	bf08      	it	eq
 80007ca:	3d01      	subeq	r5, #1
 80007cc:	d0f7      	beq.n	80007be <__aeabi_dmul+0x1c6>
 80007ce:	ea43 0306 	orr.w	r3, r3, r6
 80007d2:	4770      	bx	lr
 80007d4:	ea94 0f0c 	teq	r4, ip
 80007d8:	ea0c 5513 	and.w	r5, ip, r3, lsr #20
 80007dc:	bf18      	it	ne
 80007de:	ea95 0f0c 	teqne	r5, ip
 80007e2:	d00c      	beq.n	80007fe <__aeabi_dmul+0x206>
 80007e4:	ea50 0641 	orrs.w	r6, r0, r1, lsl #1
 80007e8:	bf18      	it	ne
 80007ea:	ea52 0643 	orrsne.w	r6, r2, r3, lsl #1
 80007ee:	d1d1      	bne.n	8000794 <__aeabi_dmul+0x19c>
 80007f0:	ea81 0103 	eor.w	r1, r1, r3
 80007f4:	f001 4100 	and.w	r1, r1, #2147483648	; 0x80000000
 80007f8:	f04f 0000 	mov.w	r0, #0
 80007fc:	bd70      	pop	{r4, r5, r6, pc}
 80007fe:	ea50 0641 	orrs.w	r6, r0, r1, lsl #1
 8000802:	bf06      	itte	eq
 8000804:	4610      	moveq	r0, r2
 8000806:	4619      	moveq	r1, r3
 8000808:	ea52 0643 	orrsne.w	r6, r2, r3, lsl #1
 800080c:	d019      	beq.n	8000842 <__aeabi_dmul+0x24a>
 800080e:	ea94 0f0c 	teq	r4, ip
 8000812:	d102      	bne.n	800081a <__aeabi_dmul+0x222>
 8000814:	ea50 3601 	orrs.w	r6, r0, r1, lsl #12
 8000818:	d113      	bne.n	8000842 <__aeabi_dmul+0x24a>
 800081a:	ea95 0f0c 	teq	r5, ip
 800081e:	d105      	bne.n	800082c <__aeabi_dmul+0x234>
 8000820:	ea52 3603 	orrs.w	r6, r2, r3, lsl #12
 8000824:	bf1c      	itt	ne
 8000826:	4610      	movne	r0, r2
 8000828:	4619      	movne	r1, r3
 800082a:	d10a      	bne.n	8000842 <__aeabi_dmul+0x24a>
 800082c:	ea81 0103 	eor.w	r1, r1, r3
 8000830:	f001 4100 	and.w	r1, r1, #2147483648	; 0x80000000
 8000834:	f041 41fe 	orr.w	r1, r1, #2130706432	; 0x7f000000
 8000838:	f441 0170 	orr.w	r1, r1, #15728640	; 0xf00000
 800083c:	f04f 0000 	mov.w	r0, #0
 8000840:	bd70      	pop	{r4, r5, r6, pc}
 8000842:	f041 41fe 	orr.w	r1, r1, #2130706432	; 0x7f000000
 8000846:	f441 0178 	orr.w	r1, r1, #16252928	; 0xf80000
 800084a:	bd70      	pop	{r4, r5, r6, pc}

0800084c <__aeabi_ddiv>:
 800084c:	b570      	push	{r4, r5, r6, lr}
 800084e:	f04f 0cff 	mov.w	ip, #255	; 0xff
 8000852:	f44c 6ce0 	orr.w	ip, ip, #1792	; 0x700
 8000856:	ea1c 5411 	ands.w	r4, ip, r1, lsr #20
 800085a:	bf1d      	ittte	ne
 800085c:	ea1c 5513 	andsne.w	r5, ip, r3, lsr #20
 8000860:	ea94 0f0c 	teqne	r4, ip
 8000864:	ea95 0f0c 	teqne	r5, ip
 8000868:	f000 f8a7 	bleq	80009ba <__aeabi_ddiv+0x16e>
 800086c:	eba4 0405 	sub.w	r4, r4, r5
 8000870:	ea81 0e03 	eor.w	lr, r1, r3
 8000874:	ea52 3503 	orrs.w	r5, r2, r3, lsl #12
 8000878:	ea4f 3101 	mov.w	r1, r1, lsl #12
 800087c:	f000 8088 	beq.w	8000990 <__aeabi_ddiv+0x144>
 8000880:	ea4f 3303 	mov.w	r3, r3, lsl #12
 8000884:	f04f 5580 	mov.w	r5, #268435456	; 0x10000000
 8000888:	ea45 1313 	orr.w	r3, r5, r3, lsr #4
 800088c:	ea43 6312 	orr.w	r3, r3, r2, lsr #24
 8000890:	ea4f 2202 	mov.w	r2, r2, lsl #8
 8000894:	ea45 1511 	orr.w	r5, r5, r1, lsr #4
 8000898:	ea45 6510 	orr.w	r5, r5, r0, lsr #24
 800089c:	ea4f 2600 	mov.w	r6, r0, lsl #8
 80008a0:	f00e 4100 	and.w	r1, lr, #2147483648	; 0x80000000
 80008a4:	429d      	cmp	r5, r3
 80008a6:	bf08      	it	eq
 80008a8:	4296      	cmpeq	r6, r2
 80008aa:	f144 04fd 	adc.w	r4, r4, #253	; 0xfd
 80008ae:	f504 7440 	add.w	r4, r4, #768	; 0x300
 80008b2:	d202      	bcs.n	80008ba <__aeabi_ddiv+0x6e>
 80008b4:	085b      	lsrs	r3, r3, #1
 80008b6:	ea4f 0232 	mov.w	r2, r2, rrx
 80008ba:	1ab6      	subs	r6, r6, r2
 80008bc:	eb65 0503 	sbc.w	r5, r5, r3
 80008c0:	085b      	lsrs	r3, r3, #1
 80008c2:	ea4f 0232 	mov.w	r2, r2, rrx
 80008c6:	f44f 1080 	mov.w	r0, #1048576	; 0x100000
 80008ca:	f44f 2c00 	mov.w	ip, #524288	; 0x80000
 80008ce:	ebb6 0e02 	subs.w	lr, r6, r2
 80008d2:	eb75 0e03 	sbcs.w	lr, r5, r3
 80008d6:	bf22      	ittt	cs
 80008d8:	1ab6      	subcs	r6, r6, r2
 80008da:	4675      	movcs	r5, lr
 80008dc:	ea40 000c 	orrcs.w	r0, r0, ip
 80008e0:	085b      	lsrs	r3, r3, #1
 80008e2:	ea4f 0232 	mov.w	r2, r2, rrx
 80008e6:	ebb6 0e02 	subs.w	lr, r6, r2
 80008ea:	eb75 0e03 	sbcs.w	lr, r5, r3
 80008ee:	bf22      	ittt	cs
 80008f0:	1ab6      	subcs	r6, r6, r2
 80008f2:	4675      	movcs	r5, lr
 80008f4:	ea40 005c 	orrcs.w	r0, r0, ip, lsr #1
 80008f8:	085b      	lsrs	r3, r3, #1
 80008fa:	ea4f 0232 	mov.w	r2, r2, rrx
 80008fe:	ebb6 0e02 	subs.w	lr, r6, r2
 8000902:	eb75 0e03 	sbcs.w	lr, r5, r3
 8000906:	bf22      	ittt	cs
 8000908:	1ab6      	subcs	r6, r6, r2
 800090a:	4675      	movcs	r5, lr
 800090c:	ea40 009c 	orrcs.w	r0, r0, ip, lsr #2
 8000910:	085b      	lsrs	r3, r3, #1
 8000912:	ea4f 0232 	mov.w	r2, r2, rrx
 8000916:	ebb6 0e02 	subs.w	lr, r6, r2
 800091a:	eb75 0e03 	sbcs.w	lr, r5, r3
 800091e:	bf22      	ittt	cs
 8000920:	1ab6      	subcs	r6, r6, r2
 8000922:	4675      	movcs	r5, lr
 8000924:	ea40 00dc 	orrcs.w	r0, r0, ip, lsr #3
 8000928:	ea55 0e06 	orrs.w	lr, r5, r6
 800092c:	d018      	beq.n	8000960 <__aeabi_ddiv+0x114>
 800092e:	ea4f 1505 	mov.w	r5, r5, lsl #4
 8000932:	ea45 7516 	orr.w	r5, r5, r6, lsr #28
 8000936:	ea4f 1606 	mov.w	r6, r6, lsl #4
 800093a:	ea4f 03c3 	mov.w	r3, r3, lsl #3
 800093e:	ea43 7352 	orr.w	r3, r3, r2, lsr #29
 8000942:	ea4f 02c2 	mov.w	r2, r2, lsl #3
 8000946:	ea5f 1c1c 	movs.w	ip, ip, lsr #4
 800094a:	d1c0      	bne.n	80008ce <__aeabi_ddiv+0x82>
 800094c:	f411 1f80 	tst.w	r1, #1048576	; 0x100000
 8000950:	d10b      	bne.n	800096a <__aeabi_ddiv+0x11e>
 8000952:	ea41 0100 	orr.w	r1, r1, r0
 8000956:	f04f 0000 	mov.w	r0, #0
 800095a:	f04f 4c00 	mov.w	ip, #2147483648	; 0x80000000
 800095e:	e7b6      	b.n	80008ce <__aeabi_ddiv+0x82>
 8000960:	f411 1f80 	tst.w	r1, #1048576	; 0x100000
 8000964:	bf04      	itt	eq
 8000966:	4301      	orreq	r1, r0
 8000968:	2000      	moveq	r0, #0
 800096a:	f1b4 0cfd 	subs.w	ip, r4, #253	; 0xfd
 800096e:	bf88      	it	hi
 8000970:	f5bc 6fe0 	cmphi.w	ip, #1792	; 0x700
 8000974:	f63f aeaf 	bhi.w	80006d6 <__aeabi_dmul+0xde>
 8000978:	ebb5 0c03 	subs.w	ip, r5, r3
 800097c:	bf04      	itt	eq
 800097e:	ebb6 0c02 	subseq.w	ip, r6, r2
 8000982:	ea5f 0c50 	movseq.w	ip, r0, lsr #1
 8000986:	f150 0000 	adcs.w	r0, r0, #0
 800098a:	eb41 5104 	adc.w	r1, r1, r4, lsl #20
 800098e:	bd70      	pop	{r4, r5, r6, pc}
 8000990:	f00e 4e00 	and.w	lr, lr, #2147483648	; 0x80000000
 8000994:	ea4e 3111 	orr.w	r1, lr, r1, lsr #12
 8000998:	eb14 045c 	adds.w	r4, r4, ip, lsr #1
 800099c:	bfc2      	ittt	gt
 800099e:	ebd4 050c 	rsbsgt	r5, r4, ip
 80009a2:	ea41 5104 	orrgt.w	r1, r1, r4, lsl #20
 80009a6:	bd70      	popgt	{r4, r5, r6, pc}
 80009a8:	f441 1180 	orr.w	r1, r1, #1048576	; 0x100000
 80009ac:	f04f 0e00 	mov.w	lr, #0
 80009b0:	3c01      	subs	r4, #1
 80009b2:	e690      	b.n	80006d6 <__aeabi_dmul+0xde>
 80009b4:	ea45 0e06 	orr.w	lr, r5, r6
 80009b8:	e68d      	b.n	80006d6 <__aeabi_dmul+0xde>
 80009ba:	ea0c 5513 	and.w	r5, ip, r3, lsr #20
 80009be:	ea94 0f0c 	teq	r4, ip
 80009c2:	bf08      	it	eq
 80009c4:	ea95 0f0c 	teqeq	r5, ip
 80009c8:	f43f af3b 	beq.w	8000842 <__aeabi_dmul+0x24a>
 80009cc:	ea94 0f0c 	teq	r4, ip
 80009d0:	d10a      	bne.n	80009e8 <__aeabi_ddiv+0x19c>
 80009d2:	ea50 3401 	orrs.w	r4, r0, r1, lsl #12
 80009d6:	f47f af34 	bne.w	8000842 <__aeabi_dmul+0x24a>
 80009da:	ea95 0f0c 	teq	r5, ip
 80009de:	f47f af25 	bne.w	800082c <__aeabi_dmul+0x234>
 80009e2:	4610      	mov	r0, r2
 80009e4:	4619      	mov	r1, r3
 80009e6:	e72c      	b.n	8000842 <__aeabi_dmul+0x24a>
 80009e8:	ea95 0f0c 	teq	r5, ip
 80009ec:	d106      	bne.n	80009fc <__aeabi_ddiv+0x1b0>
 80009ee:	ea52 3503 	orrs.w	r5, r2, r3, lsl #12
 80009f2:	f43f aefd 	beq.w	80007f0 <__aeabi_dmul+0x1f8>
 80009f6:	4610      	mov	r0, r2
 80009f8:	4619      	mov	r1, r3
 80009fa:	e722      	b.n	8000842 <__aeabi_dmul+0x24a>
 80009fc:	ea50 0641 	orrs.w	r6, r0, r1, lsl #1
 8000a00:	bf18      	it	ne
 8000a02:	ea52 0643 	orrsne.w	r6, r2, r3, lsl #1
 8000a06:	f47f aec5 	bne.w	8000794 <__aeabi_dmul+0x19c>
 8000a0a:	ea50 0441 	orrs.w	r4, r0, r1, lsl #1
 8000a0e:	f47f af0d 	bne.w	800082c <__aeabi_dmul+0x234>
 8000a12:	ea52 0543 	orrs.w	r5, r2, r3, lsl #1
 8000a16:	f47f aeeb 	bne.w	80007f0 <__aeabi_dmul+0x1f8>
 8000a1a:	e712      	b.n	8000842 <__aeabi_dmul+0x24a>

08000a1c <__gedf2>:
 8000a1c:	f04f 3cff 	mov.w	ip, #4294967295
 8000a20:	e006      	b.n	8000a30 <__cmpdf2+0x4>
 8000a22:	bf00      	nop

08000a24 <__ledf2>:
 8000a24:	f04f 0c01 	mov.w	ip, #1
 8000a28:	e002      	b.n	8000a30 <__cmpdf2+0x4>
 8000a2a:	bf00      	nop

08000a2c <__cmpdf2>:
 8000a2c:	f04f 0c01 	mov.w	ip, #1
 8000a30:	f84d cd04 	str.w	ip, [sp, #-4]!
 8000a34:	ea4f 0c41 	mov.w	ip, r1, lsl #1
 8000a38:	ea7f 5c6c 	mvns.w	ip, ip, asr #21
 8000a3c:	ea4f 0c43 	mov.w	ip, r3, lsl #1
 8000a40:	bf18      	it	ne
 8000a42:	ea7f 5c6c 	mvnsne.w	ip, ip, asr #21
 8000a46:	d01b      	beq.n	8000a80 <__cmpdf2+0x54>
 8000a48:	b001      	add	sp, #4
 8000a4a:	ea50 0c41 	orrs.w	ip, r0, r1, lsl #1
 8000a4e:	bf0c      	ite	eq
 8000a50:	ea52 0c43 	orrseq.w	ip, r2, r3, lsl #1
 8000a54:	ea91 0f03 	teqne	r1, r3
 8000a58:	bf02      	ittt	eq
 8000a5a:	ea90 0f02 	teqeq	r0, r2
 8000a5e:	2000      	moveq	r0, #0
 8000a60:	4770      	bxeq	lr
 8000a62:	f110 0f00 	cmn.w	r0, #0
 8000a66:	ea91 0f03 	teq	r1, r3
 8000a6a:	bf58      	it	pl
 8000a6c:	4299      	cmppl	r1, r3
 8000a6e:	bf08      	it	eq
 8000a70:	4290      	cmpeq	r0, r2
 8000a72:	bf2c      	ite	cs
 8000a74:	17d8      	asrcs	r0, r3, #31
 8000a76:	ea6f 70e3 	mvncc.w	r0, r3, asr #31
 8000a7a:	f040 0001 	orr.w	r0, r0, #1
 8000a7e:	4770      	bx	lr
 8000a80:	ea4f 0c41 	mov.w	ip, r1, lsl #1
 8000a84:	ea7f 5c6c 	mvns.w	ip, ip, asr #21
 8000a88:	d102      	bne.n	8000a90 <__cmpdf2+0x64>
 8000a8a:	ea50 3c01 	orrs.w	ip, r0, r1, lsl #12
 8000a8e:	d107      	bne.n	8000aa0 <__cmpdf2+0x74>
 8000a90:	ea4f 0c43 	mov.w	ip, r3, lsl #1
 8000a94:	ea7f 5c6c 	mvns.w	ip, ip, asr #21
 8000a98:	d1d6      	bne.n	8000a48 <__cmpdf2+0x1c>
 8000a9a:	ea52 3c03 	orrs.w	ip, r2, r3, lsl #12
 8000a9e:	d0d3      	beq.n	8000a48 <__cmpdf2+0x1c>
 8000aa0:	f85d 0b04 	ldr.w	r0, [sp], #4
 8000aa4:	4770      	bx	lr
 8000aa6:	bf00      	nop

08000aa8 <__aeabi_cdrcmple>:
 8000aa8:	4684      	mov	ip, r0
 8000aaa:	4610      	mov	r0, r2
 8000aac:	4662      	mov	r2, ip
 8000aae:	468c      	mov	ip, r1
 8000ab0:	4619      	mov	r1, r3
 8000ab2:	4663      	mov	r3, ip
 8000ab4:	e000      	b.n	8000ab8 <__aeabi_cdcmpeq>
 8000ab6:	bf00      	nop

08000ab8 <__aeabi_cdcmpeq>:
 8000ab8:	b501      	push	{r0, lr}
 8000aba:	f7ff ffb7 	bl	8000a2c <__cmpdf2>
 8000abe:	2800      	cmp	r0, #0
 8000ac0:	bf48      	it	mi
 8000ac2:	f110 0f00 	cmnmi.w	r0, #0
 8000ac6:	bd01      	pop	{r0, pc}

08000ac8 <__aeabi_dcmpeq>:
 8000ac8:	f84d ed08 	str.w	lr, [sp, #-8]!
 8000acc:	f7ff fff4 	bl	8000ab8 <__aeabi_cdcmpeq>
 8000ad0:	bf0c      	ite	eq
 8000ad2:	2001      	moveq	r0, #1
 8000ad4:	2000      	movne	r0, #0
 8000ad6:	f85d fb08 	ldr.w	pc, [sp], #8
 8000ada:	bf00      	nop

08000adc <__aeabi_dcmplt>:
 8000adc:	f84d ed08 	str.w	lr, [sp, #-8]!
 8000ae0:	f7ff ffea 	bl	8000ab8 <__aeabi_cdcmpeq>
 8000ae4:	bf34      	ite	cc
 8000ae6:	2001      	movcc	r0, #1
 8000ae8:	2000      	movcs	r0, #0
 8000aea:	f85d fb08 	ldr.w	pc, [sp], #8
 8000aee:	bf00      	nop

08000af0 <__aeabi_dcmple>:
 8000af0:	f84d ed08 	str.w	lr, [sp, #-8]!
 8000af4:	f7ff ffe0 	bl	8000ab8 <__aeabi_cdcmpeq>
 8000af8:	bf94      	ite	ls
 8000afa:	2001      	movls	r0, #1
 8000afc:	2000      	movhi	r0, #0
 8000afe:	f85d fb08 	ldr.w	pc, [sp], #8
 8000b02:	bf00      	nop

08000b04 <__aeabi_dcmpge>:
 8000b04:	f84d ed08 	str.w	lr, [sp, #-8]!
 8000b08:	f7ff ffce 	bl	8000aa8 <__aeabi_cdrcmple>
 8000b0c:	bf94      	ite	ls
 8000b0e:	2001      	movls	r0, #1
 8000b10:	2000      	movhi	r0, #0
 8000b12:	f85d fb08 	ldr.w	pc, [sp], #8
 8000b16:	bf00      	nop

08000b18 <__aeabi_dcmpgt>:
 8000b18:	f84d ed08 	str.w	lr, [sp, #-8]!
 8000b1c:	f7ff ffc4 	bl	8000aa8 <__aeabi_cdrcmple>
 8000b20:	bf34      	ite	cc
 8000b22:	2001      	movcc	r0, #1
 8000b24:	2000      	movcs	r0, #0
 8000b26:	f85d fb08 	ldr.w	pc, [sp], #8
 8000b2a:	bf00      	nop

08000b2c <__aeabi_dcmpun>:
 8000b2c:	ea4f 0c41 	mov.w	ip, r1, lsl #1
 8000b30:	ea7f 5c6c 	mvns.w	ip, ip, asr #21
 8000b34:	d102      	bne.n	8000b3c <__aeabi_dcmpun+0x10>
 8000b36:	ea50 3c01 	orrs.w	ip, r0, r1, lsl #12
 8000b3a:	d10a      	bne.n	8000b52 <__aeabi_dcmpun+0x26>
 8000b3c:	ea4f 0c43 	mov.w	ip, r3, lsl #1
 8000b40:	ea7f 5c6c 	mvns.w	ip, ip, asr #21
 8000b44:	d102      	bne.n	8000b4c <__aeabi_dcmpun+0x20>
 8000b46:	ea52 3c03 	orrs.w	ip, r2, r3, lsl #12
 8000b4a:	d102      	bne.n	8000b52 <__aeabi_dcmpun+0x26>
 8000b4c:	f04f 0000 	mov.w	r0, #0
 8000b50:	4770      	bx	lr
 8000b52:	f04f 0001 	mov.w	r0, #1
 8000b56:	4770      	bx	lr

08000b58 <__aeabi_d2iz>:
 8000b58:	ea4f 0241 	mov.w	r2, r1, lsl #1
 8000b5c:	f512 1200 	adds.w	r2, r2, #2097152	; 0x200000
 8000b60:	d215      	bcs.n	8000b8e <__aeabi_d2iz+0x36>
 8000b62:	d511      	bpl.n	8000b88 <__aeabi_d2iz+0x30>
 8000b64:	f46f 7378 	mvn.w	r3, #992	; 0x3e0
 8000b68:	ebb3 5262 	subs.w	r2, r3, r2, asr #21
 8000b6c:	d912      	bls.n	8000b94 <__aeabi_d2iz+0x3c>
 8000b6e:	ea4f 23c1 	mov.w	r3, r1, lsl #11
 8000b72:	f043 4300 	orr.w	r3, r3, #2147483648	; 0x80000000
 8000b76:	ea43 5350 	orr.w	r3, r3, r0, lsr #21
 8000b7a:	f011 4f00 	tst.w	r1, #2147483648	; 0x80000000
 8000b7e:	fa23 f002 	lsr.w	r0, r3, r2
 8000b82:	bf18      	it	ne
 8000b84:	4240      	negne	r0, r0
 8000b86:	4770      	bx	lr
 8000b88:	f04f 0000 	mov.w	r0, #0
 8000b8c:	4770      	bx	lr
 8000b8e:	ea50 3001 	orrs.w	r0, r0, r1, lsl #12
 8000b92:	d105      	bne.n	8000ba0 <__aeabi_d2iz+0x48>
 8000b94:	f011 4000 	ands.w	r0, r1, #2147483648	; 0x80000000
 8000b98:	bf08      	it	eq
 8000b9a:	f06f 4000 	mvneq.w	r0, #2147483648	; 0x80000000
 8000b9e:	4770      	bx	lr
 8000ba0:	f04f 0000 	mov.w	r0, #0
 8000ba4:	4770      	bx	lr
 8000ba6:	bf00      	nop

08000ba8 <__aeabi_d2uiz>:
 8000ba8:	004a      	lsls	r2, r1, #1
 8000baa:	d211      	bcs.n	8000bd0 <__aeabi_d2uiz+0x28>
 8000bac:	f512 1200 	adds.w	r2, r2, #2097152	; 0x200000
 8000bb0:	d211      	bcs.n	8000bd6 <__aeabi_d2uiz+0x2e>
 8000bb2:	d50d      	bpl.n	8000bd0 <__aeabi_d2uiz+0x28>
 8000bb4:	f46f 7378 	mvn.w	r3, #992	; 0x3e0
 8000bb8:	ebb3 5262 	subs.w	r2, r3, r2, asr #21
 8000bbc:	d40e      	bmi.n	8000bdc <__aeabi_d2uiz+0x34>
 8000bbe:	ea4f 23c1 	mov.w	r3, r1, lsl #11
 8000bc2:	f043 4300 	orr.w	r3, r3, #2147483648	; 0x80000000
 8000bc6:	ea43 5350 	orr.w	r3, r3, r0, lsr #21
 8000bca:	fa23 f002 	lsr.w	r0, r3, r2
 8000bce:	4770      	bx	lr
 8000bd0:	f04f 0000 	mov.w	r0, #0
 8000bd4:	4770      	bx	lr
 8000bd6:	ea50 3001 	orrs.w	r0, r0, r1, lsl #12
 8000bda:	d102      	bne.n	8000be2 <__aeabi_d2uiz+0x3a>
 8000bdc:	f04f 30ff 	mov.w	r0, #4294967295
 8000be0:	4770      	bx	lr
 8000be2:	f04f 0000 	mov.w	r0, #0
 8000be6:	4770      	bx	lr

08000be8 <__aeabi_d2f>:
 8000be8:	ea4f 0241 	mov.w	r2, r1, lsl #1
 8000bec:	f1b2 43e0 	subs.w	r3, r2, #1879048192	; 0x70000000
 8000bf0:	bf24      	itt	cs
 8000bf2:	f5b3 1c00 	subscs.w	ip, r3, #2097152	; 0x200000
 8000bf6:	f1dc 5cfe 	rsbscs	ip, ip, #532676608	; 0x1fc00000
 8000bfa:	d90d      	bls.n	8000c18 <__aeabi_d2f+0x30>
 8000bfc:	f001 4c00 	and.w	ip, r1, #2147483648	; 0x80000000
 8000c00:	ea4f 02c0 	mov.w	r2, r0, lsl #3
 8000c04:	ea4c 7050 	orr.w	r0, ip, r0, lsr #29
 8000c08:	f1b2 4f00 	cmp.w	r2, #2147483648	; 0x80000000
 8000c0c:	eb40 0083 	adc.w	r0, r0, r3, lsl #2
 8000c10:	bf08      	it	eq
 8000c12:	f020 0001 	biceq.w	r0, r0, #1
 8000c16:	4770      	bx	lr
 8000c18:	f011 4f80 	tst.w	r1, #1073741824	; 0x40000000
 8000c1c:	d121      	bne.n	8000c62 <__aeabi_d2f+0x7a>
 8000c1e:	f113 7238 	adds.w	r2, r3, #48234496	; 0x2e00000
 8000c22:	bfbc      	itt	lt
 8000c24:	f001 4000 	andlt.w	r0, r1, #2147483648	; 0x80000000
 8000c28:	4770      	bxlt	lr
 8000c2a:	f441 1180 	orr.w	r1, r1, #1048576	; 0x100000
 8000c2e:	ea4f 5252 	mov.w	r2, r2, lsr #21
 8000c32:	f1c2 0218 	rsb	r2, r2, #24
 8000c36:	f1c2 0c20 	rsb	ip, r2, #32
 8000c3a:	fa10 f30c 	lsls.w	r3, r0, ip
 8000c3e:	fa20 f002 	lsr.w	r0, r0, r2
 8000c42:	bf18      	it	ne
 8000c44:	f040 0001 	orrne.w	r0, r0, #1
 8000c48:	ea4f 23c1 	mov.w	r3, r1, lsl #11
 8000c4c:	ea4f 23d3 	mov.w	r3, r3, lsr #11
 8000c50:	fa03 fc0c 	lsl.w	ip, r3, ip
 8000c54:	ea40 000c 	orr.w	r0, r0, ip
 8000c58:	fa23 f302 	lsr.w	r3, r3, r2
 8000c5c:	ea4f 0343 	mov.w	r3, r3, lsl #1
 8000c60:	e7cc      	b.n	8000bfc <__aeabi_d2f+0x14>
 8000c62:	ea7f 5362 	mvns.w	r3, r2, asr #21
 8000c66:	d107      	bne.n	8000c78 <__aeabi_d2f+0x90>
 8000c68:	ea50 3301 	orrs.w	r3, r0, r1, lsl #12
 8000c6c:	bf1e      	ittt	ne
 8000c6e:	f04f 40fe 	movne.w	r0, #2130706432	; 0x7f000000
 8000c72:	f440 0040 	orrne.w	r0, r0, #12582912	; 0xc00000
 8000c76:	4770      	bxne	lr
 8000c78:	f001 4000 	and.w	r0, r1, #2147483648	; 0x80000000
 8000c7c:	f040 40fe 	orr.w	r0, r0, #2130706432	; 0x7f000000
 8000c80:	f440 0000 	orr.w	r0, r0, #8388608	; 0x800000
 8000c84:	4770      	bx	lr
 8000c86:	bf00      	nop

08000c88 <__aeabi_d2lz>:
 8000c88:	b538      	push	{r3, r4, r5, lr}
 8000c8a:	2200      	movs	r2, #0
 8000c8c:	2300      	movs	r3, #0
 8000c8e:	4604      	mov	r4, r0
 8000c90:	460d      	mov	r5, r1
 8000c92:	f7ff ff23 	bl	8000adc <__aeabi_dcmplt>
 8000c96:	b928      	cbnz	r0, 8000ca4 <__aeabi_d2lz+0x1c>
 8000c98:	4620      	mov	r0, r4
 8000c9a:	4629      	mov	r1, r5
 8000c9c:	e8bd 4038 	ldmia.w	sp!, {r3, r4, r5, lr}
 8000ca0:	f000 b80a 	b.w	8000cb8 <__aeabi_d2ulz>
 8000ca4:	4620      	mov	r0, r4
 8000ca6:	f105 4100 	add.w	r1, r5, #2147483648	; 0x80000000
 8000caa:	f000 f805 	bl	8000cb8 <__aeabi_d2ulz>
 8000cae:	4240      	negs	r0, r0
 8000cb0:	eb61 0141 	sbc.w	r1, r1, r1, lsl #1
 8000cb4:	bd38      	pop	{r3, r4, r5, pc}
 8000cb6:	bf00      	nop

08000cb8 <__aeabi_d2ulz>:
 8000cb8:	b5d0      	push	{r4, r6, r7, lr}
 8000cba:	4b0c      	ldr	r3, [pc, #48]	; (8000cec <__aeabi_d2ulz+0x34>)
 8000cbc:	2200      	movs	r2, #0
 8000cbe:	4606      	mov	r6, r0
 8000cc0:	460f      	mov	r7, r1
 8000cc2:	f7ff fc99 	bl	80005f8 <__aeabi_dmul>
 8000cc6:	f7ff ff6f 	bl	8000ba8 <__aeabi_d2uiz>
 8000cca:	4604      	mov	r4, r0
 8000ccc:	f7ff fc1a 	bl	8000504 <__aeabi_ui2d>
 8000cd0:	4b07      	ldr	r3, [pc, #28]	; (8000cf0 <__aeabi_d2ulz+0x38>)
 8000cd2:	2200      	movs	r2, #0
 8000cd4:	f7ff fc90 	bl	80005f8 <__aeabi_dmul>
 8000cd8:	4602      	mov	r2, r0
 8000cda:	460b      	mov	r3, r1
 8000cdc:	4630      	mov	r0, r6
 8000cde:	4639      	mov	r1, r7
 8000ce0:	f7ff fad2 	bl	8000288 <__aeabi_dsub>
 8000ce4:	f7ff ff60 	bl	8000ba8 <__aeabi_d2uiz>
 8000ce8:	4621      	mov	r1, r4
 8000cea:	bdd0      	pop	{r4, r6, r7, pc}
 8000cec:	3df00000 	.word	0x3df00000
 8000cf0:	41f00000 	.word	0x41f00000

08000cf4 <bmpRead8>:
// 標準気圧に対する温度の勾配
#define TEMPERATURE_GRADIENT 0.0065
// 標準気圧に対する重力加速度
#define GRAVITY 9.80665

uint8_t bmpRead8(uint8_t a) {
 8000cf4:	b580      	push	{r7, lr}
 8000cf6:	b086      	sub	sp, #24
 8000cf8:	af02      	add	r7, sp, #8
 8000cfa:	4603      	mov	r3, r0
 8000cfc:	71fb      	strb	r3, [r7, #7]
	uint8_t r;
	HAL_I2C_Master_Transmit(bmpPort, BMP085_ADDR, &a, 1, HAL_MAX_DELAY);
 8000cfe:	4b0e      	ldr	r3, [pc, #56]	; (8000d38 <bmpRead8+0x44>)
 8000d00:	6818      	ldr	r0, [r3, #0]
 8000d02:	23ee      	movs	r3, #238	; 0xee
 8000d04:	b299      	uxth	r1, r3
 8000d06:	1dfa      	adds	r2, r7, #7
 8000d08:	f04f 33ff 	mov.w	r3, #4294967295
 8000d0c:	9300      	str	r3, [sp, #0]
 8000d0e:	2301      	movs	r3, #1
 8000d10:	f001 fdc4 	bl	800289c <HAL_I2C_Master_Transmit>
	HAL_I2C_Master_Receive(bmpPort, BMP085_ADDR, &r, 1, HAL_MAX_DELAY);
 8000d14:	4b08      	ldr	r3, [pc, #32]	; (8000d38 <bmpRead8+0x44>)
 8000d16:	6818      	ldr	r0, [r3, #0]
 8000d18:	23ee      	movs	r3, #238	; 0xee
 8000d1a:	b299      	uxth	r1, r3
 8000d1c:	f107 020f 	add.w	r2, r7, #15
 8000d20:	f04f 33ff 	mov.w	r3, #4294967295
 8000d24:	9300      	str	r3, [sp, #0]
 8000d26:	2301      	movs	r3, #1
 8000d28:	f001 feac 	bl	8002a84 <HAL_I2C_Master_Receive>
	return r;
 8000d2c:	7bfb      	ldrb	r3, [r7, #15]
}
 8000d2e:	4618      	mov	r0, r3
 8000d30:	3710      	adds	r7, #16
 8000d32:	46bd      	mov	sp, r7
 8000d34:	bd80      	pop	{r7, pc}
 8000d36:	bf00      	nop
 8000d38:	20000244 	.word	0x20000244

08000d3c <bmpRead16>:
uint16_t bmpRead16(uint8_t a) {
 8000d3c:	b580      	push	{r7, lr}
 8000d3e:	b086      	sub	sp, #24
 8000d40:	af02      	add	r7, sp, #8
 8000d42:	4603      	mov	r3, r0
 8000d44:	71fb      	strb	r3, [r7, #7]
	uint8_t retbuf[2];
	uint16_t r;
	HAL_I2C_Master_Transmit(bmpPort, BMP085_ADDR, &a, 1, HAL_MAX_DELAY);
 8000d46:	4b12      	ldr	r3, [pc, #72]	; (8000d90 <bmpRead16+0x54>)
 8000d48:	6818      	ldr	r0, [r3, #0]
 8000d4a:	23ee      	movs	r3, #238	; 0xee
 8000d4c:	b299      	uxth	r1, r3
 8000d4e:	1dfa      	adds	r2, r7, #7
 8000d50:	f04f 33ff 	mov.w	r3, #4294967295
 8000d54:	9300      	str	r3, [sp, #0]
 8000d56:	2301      	movs	r3, #1
 8000d58:	f001 fda0 	bl	800289c <HAL_I2C_Master_Transmit>
	HAL_I2C_Master_Receive(bmpPort, BMP085_ADDR, retbuf, 2, HAL_MAX_DELAY);
 8000d5c:	4b0c      	ldr	r3, [pc, #48]	; (8000d90 <bmpRead16+0x54>)
 8000d5e:	6818      	ldr	r0, [r3, #0]
 8000d60:	23ee      	movs	r3, #238	; 0xee
 8000d62:	b299      	uxth	r1, r3
 8000d64:	f107 020c 	add.w	r2, r7, #12
 8000d68:	f04f 33ff 	mov.w	r3, #4294967295
 8000d6c:	9300      	str	r3, [sp, #0]
 8000d6e:	2302      	movs	r3, #2
 8000d70:	f001 fe88 	bl	8002a84 <HAL_I2C_Master_Receive>
	r = retbuf[1] | (retbuf[0] << 8);
 8000d74:	7b7b      	ldrb	r3, [r7, #13]
 8000d76:	b21a      	sxth	r2, r3
 8000d78:	7b3b      	ldrb	r3, [r7, #12]
 8000d7a:	021b      	lsls	r3, r3, #8
 8000d7c:	b21b      	sxth	r3, r3
 8000d7e:	4313      	orrs	r3, r2
 8000d80:	b21b      	sxth	r3, r3
 8000d82:	81fb      	strh	r3, [r7, #14]
	return r;
 8000d84:	89fb      	ldrh	r3, [r7, #14]
}
 8000d86:	4618      	mov	r0, r3
 8000d88:	3710      	adds	r7, #16
 8000d8a:	46bd      	mov	sp, r7
 8000d8c:	bd80      	pop	{r7, pc}
 8000d8e:	bf00      	nop
 8000d90:	20000244 	.word	0x20000244

08000d94 <bmpWrite8>:
void bmpWrite8(uint8_t a, uint8_t d) {
 8000d94:	b580      	push	{r7, lr}
 8000d96:	b086      	sub	sp, #24
 8000d98:	af02      	add	r7, sp, #8
 8000d9a:	4603      	mov	r3, r0
 8000d9c:	460a      	mov	r2, r1
 8000d9e:	71fb      	strb	r3, [r7, #7]
 8000da0:	4613      	mov	r3, r2
 8000da2:	71bb      	strb	r3, [r7, #6]
	uint8_t tBuf[2];
	tBuf[0] = a;
 8000da4:	79fb      	ldrb	r3, [r7, #7]
 8000da6:	733b      	strb	r3, [r7, #12]
	tBuf[1] = d;
 8000da8:	79bb      	ldrb	r3, [r7, #6]
 8000daa:	737b      	strb	r3, [r7, #13]
	HAL_I2C_Master_Transmit(bmpPort, BMP085_ADDR, tBuf, 2, HAL_MAX_DELAY);
 8000dac:	4b07      	ldr	r3, [pc, #28]	; (8000dcc <bmpWrite8+0x38>)
 8000dae:	6818      	ldr	r0, [r3, #0]
 8000db0:	23ee      	movs	r3, #238	; 0xee
 8000db2:	b299      	uxth	r1, r3
 8000db4:	f107 020c 	add.w	r2, r7, #12
 8000db8:	f04f 33ff 	mov.w	r3, #4294967295
 8000dbc:	9300      	str	r3, [sp, #0]
 8000dbe:	2302      	movs	r3, #2
 8000dc0:	f001 fd6c 	bl	800289c <HAL_I2C_Master_Transmit>
}
 8000dc4:	bf00      	nop
 8000dc6:	3710      	adds	r7, #16
 8000dc8:	46bd      	mov	sp, r7
 8000dca:	bd80      	pop	{r7, pc}
 8000dcc:	20000244 	.word	0x20000244

08000dd0 <bmpBegin>:
uint8_t bmpBegin(uint8_t mode, I2C_HandleTypeDef *i2cdev) {
 8000dd0:	b580      	push	{r7, lr}
 8000dd2:	b082      	sub	sp, #8
 8000dd4:	af00      	add	r7, sp, #0
 8000dd6:	4603      	mov	r3, r0
 8000dd8:	6039      	str	r1, [r7, #0]
 8000dda:	71fb      	strb	r3, [r7, #7]
	bmpPort = i2cdev;
 8000ddc:	4a32      	ldr	r2, [pc, #200]	; (8000ea8 <bmpBegin+0xd8>)
 8000dde:	683b      	ldr	r3, [r7, #0]
 8000de0:	6013      	str	r3, [r2, #0]
	if (mode > BMP085_ULTRAHIGHRES)
 8000de2:	79fb      	ldrb	r3, [r7, #7]
 8000de4:	2b03      	cmp	r3, #3
 8000de6:	d901      	bls.n	8000dec <bmpBegin+0x1c>
		mode = BMP085_ULTRAHIGHRES;
 8000de8:	2303      	movs	r3, #3
 8000dea:	71fb      	strb	r3, [r7, #7]
	oversampling = mode;
 8000dec:	4a2f      	ldr	r2, [pc, #188]	; (8000eac <bmpBegin+0xdc>)
 8000dee:	79fb      	ldrb	r3, [r7, #7]
 8000df0:	7013      	strb	r3, [r2, #0]
	if (bmpRead8(0xD0) != 0x55)
 8000df2:	20d0      	movs	r0, #208	; 0xd0
 8000df4:	f7ff ff7e 	bl	8000cf4 <bmpRead8>
 8000df8:	4603      	mov	r3, r0
 8000dfa:	2b55      	cmp	r3, #85	; 0x55
 8000dfc:	d001      	beq.n	8000e02 <bmpBegin+0x32>
		return 0;
 8000dfe:	2300      	movs	r3, #0
 8000e00:	e04d      	b.n	8000e9e <bmpBegin+0xce>
	/* read calibration data */
	ac1 = bmpRead16(BMP085_CAL_AC1);
 8000e02:	20aa      	movs	r0, #170	; 0xaa
 8000e04:	f7ff ff9a 	bl	8000d3c <bmpRead16>
 8000e08:	4603      	mov	r3, r0
 8000e0a:	b21a      	sxth	r2, r3
 8000e0c:	4b28      	ldr	r3, [pc, #160]	; (8000eb0 <bmpBegin+0xe0>)
 8000e0e:	801a      	strh	r2, [r3, #0]
	ac2 = bmpRead16(BMP085_CAL_AC2);
 8000e10:	20ac      	movs	r0, #172	; 0xac
 8000e12:	f7ff ff93 	bl	8000d3c <bmpRead16>
 8000e16:	4603      	mov	r3, r0
 8000e18:	b21a      	sxth	r2, r3
 8000e1a:	4b26      	ldr	r3, [pc, #152]	; (8000eb4 <bmpBegin+0xe4>)
 8000e1c:	801a      	strh	r2, [r3, #0]
	ac3 = bmpRead16(BMP085_CAL_AC3);
 8000e1e:	20ae      	movs	r0, #174	; 0xae
 8000e20:	f7ff ff8c 	bl	8000d3c <bmpRead16>
 8000e24:	4603      	mov	r3, r0
 8000e26:	b21a      	sxth	r2, r3
 8000e28:	4b23      	ldr	r3, [pc, #140]	; (8000eb8 <bmpBegin+0xe8>)
 8000e2a:	801a      	strh	r2, [r3, #0]
	ac4 = bmpRead16(BMP085_CAL_AC4);
 8000e2c:	20b0      	movs	r0, #176	; 0xb0
 8000e2e:	f7ff ff85 	bl	8000d3c <bmpRead16>
 8000e32:	4603      	mov	r3, r0
 8000e34:	461a      	mov	r2, r3
 8000e36:	4b21      	ldr	r3, [pc, #132]	; (8000ebc <bmpBegin+0xec>)
 8000e38:	801a      	strh	r2, [r3, #0]
	ac5 = bmpRead16(BMP085_CAL_AC5);
 8000e3a:	20b2      	movs	r0, #178	; 0xb2
 8000e3c:	f7ff ff7e 	bl	8000d3c <bmpRead16>
 8000e40:	4603      	mov	r3, r0
 8000e42:	461a      	mov	r2, r3
 8000e44:	4b1e      	ldr	r3, [pc, #120]	; (8000ec0 <bmpBegin+0xf0>)
 8000e46:	801a      	strh	r2, [r3, #0]
	ac6 = bmpRead16(BMP085_CAL_AC6);
 8000e48:	20b4      	movs	r0, #180	; 0xb4
 8000e4a:	f7ff ff77 	bl	8000d3c <bmpRead16>
 8000e4e:	4603      	mov	r3, r0
 8000e50:	461a      	mov	r2, r3
 8000e52:	4b1c      	ldr	r3, [pc, #112]	; (8000ec4 <bmpBegin+0xf4>)
 8000e54:	801a      	strh	r2, [r3, #0]
	b1 = bmpRead16(BMP085_CAL_B1);
 8000e56:	20b6      	movs	r0, #182	; 0xb6
 8000e58:	f7ff ff70 	bl	8000d3c <bmpRead16>
 8000e5c:	4603      	mov	r3, r0
 8000e5e:	b21a      	sxth	r2, r3
 8000e60:	4b19      	ldr	r3, [pc, #100]	; (8000ec8 <bmpBegin+0xf8>)
 8000e62:	801a      	strh	r2, [r3, #0]
	b2 = bmpRead16(BMP085_CAL_B2);
 8000e64:	20b8      	movs	r0, #184	; 0xb8
 8000e66:	f7ff ff69 	bl	8000d3c <bmpRead16>
 8000e6a:	4603      	mov	r3, r0
 8000e6c:	b21a      	sxth	r2, r3
 8000e6e:	4b17      	ldr	r3, [pc, #92]	; (8000ecc <bmpBegin+0xfc>)
 8000e70:	801a      	strh	r2, [r3, #0]
	mb = bmpRead16(BMP085_CAL_MB);
 8000e72:	20ba      	movs	r0, #186	; 0xba
 8000e74:	f7ff ff62 	bl	8000d3c <bmpRead16>
 8000e78:	4603      	mov	r3, r0
 8000e7a:	b21a      	sxth	r2, r3
 8000e7c:	4b14      	ldr	r3, [pc, #80]	; (8000ed0 <bmpBegin+0x100>)
 8000e7e:	801a      	strh	r2, [r3, #0]
	mc = bmpRead16(BMP085_CAL_MC);
 8000e80:	20bc      	movs	r0, #188	; 0xbc
 8000e82:	f7ff ff5b 	bl	8000d3c <bmpRead16>
 8000e86:	4603      	mov	r3, r0
 8000e88:	b21a      	sxth	r2, r3
 8000e8a:	4b12      	ldr	r3, [pc, #72]	; (8000ed4 <bmpBegin+0x104>)
 8000e8c:	801a      	strh	r2, [r3, #0]
	md = bmpRead16(BMP085_CAL_MD);
 8000e8e:	20be      	movs	r0, #190	; 0xbe
 8000e90:	f7ff ff54 	bl	8000d3c <bmpRead16>
 8000e94:	4603      	mov	r3, r0
 8000e96:	b21a      	sxth	r2, r3
 8000e98:	4b0f      	ldr	r3, [pc, #60]	; (8000ed8 <bmpBegin+0x108>)
 8000e9a:	801a      	strh	r2, [r3, #0]
	return 1;
 8000e9c:	2301      	movs	r3, #1
}
 8000e9e:	4618      	mov	r0, r3
 8000ea0:	3708      	adds	r7, #8
 8000ea2:	46bd      	mov	sp, r7
 8000ea4:	bd80      	pop	{r7, pc}
 8000ea6:	bf00      	nop
 8000ea8:	20000244 	.word	0x20000244
 8000eac:	2000025a 	.word	0x2000025a
 8000eb0:	2000024c 	.word	0x2000024c
 8000eb4:	20000254 	.word	0x20000254
 8000eb8:	2000025e 	.word	0x2000025e
 8000ebc:	20000258 	.word	0x20000258
 8000ec0:	20000252 	.word	0x20000252
 8000ec4:	20000250 	.word	0x20000250
 8000ec8:	2000024e 	.word	0x2000024e
 8000ecc:	20000248 	.word	0x20000248
 8000ed0:	2000024a 	.word	0x2000024a
 8000ed4:	2000025c 	.word	0x2000025c
 8000ed8:	20000256 	.word	0x20000256

08000edc <computeB5>:
// Sensor read functions
int32_t computeB5(int32_t UT) {
 8000edc:	b480      	push	{r7}
 8000ede:	b085      	sub	sp, #20
 8000ee0:	af00      	add	r7, sp, #0
 8000ee2:	6078      	str	r0, [r7, #4]
	int32_t X1 = (UT - (int32_t) ac6) * ((int32_t) ac5) >> 15;
 8000ee4:	4b10      	ldr	r3, [pc, #64]	; (8000f28 <computeB5+0x4c>)
 8000ee6:	881b      	ldrh	r3, [r3, #0]
 8000ee8:	461a      	mov	r2, r3
 8000eea:	687b      	ldr	r3, [r7, #4]
 8000eec:	1a9b      	subs	r3, r3, r2
 8000eee:	4a0f      	ldr	r2, [pc, #60]	; (8000f2c <computeB5+0x50>)
 8000ef0:	8812      	ldrh	r2, [r2, #0]
 8000ef2:	fb02 f303 	mul.w	r3, r2, r3
 8000ef6:	13db      	asrs	r3, r3, #15
 8000ef8:	60fb      	str	r3, [r7, #12]
	int32_t X2 = ((int32_t) mc << 11) / (X1 + (int32_t) md);
 8000efa:	4b0d      	ldr	r3, [pc, #52]	; (8000f30 <computeB5+0x54>)
 8000efc:	f9b3 3000 	ldrsh.w	r3, [r3]
 8000f00:	02da      	lsls	r2, r3, #11
 8000f02:	4b0c      	ldr	r3, [pc, #48]	; (8000f34 <computeB5+0x58>)
 8000f04:	f9b3 3000 	ldrsh.w	r3, [r3]
 8000f08:	4619      	mov	r1, r3
 8000f0a:	68fb      	ldr	r3, [r7, #12]
 8000f0c:	440b      	add	r3, r1
 8000f0e:	fb92 f3f3 	sdiv	r3, r2, r3
 8000f12:	60bb      	str	r3, [r7, #8]
	return X1 + X2;
 8000f14:	68fa      	ldr	r2, [r7, #12]
 8000f16:	68bb      	ldr	r3, [r7, #8]
 8000f18:	4413      	add	r3, r2
}
 8000f1a:	4618      	mov	r0, r3
 8000f1c:	3714      	adds	r7, #20
 8000f1e:	46bd      	mov	sp, r7
 8000f20:	f85d 7b04 	ldr.w	r7, [sp], #4
 8000f24:	4770      	bx	lr
 8000f26:	bf00      	nop
 8000f28:	20000250 	.word	0x20000250
 8000f2c:	20000252 	.word	0x20000252
 8000f30:	2000025c 	.word	0x2000025c
 8000f34:	20000256 	.word	0x20000256

08000f38 <readBMPRawTemperature>:
uint16_t readBMPRawTemperature(void) {
 8000f38:	b580      	push	{r7, lr}
 8000f3a:	af00      	add	r7, sp, #0
	bmpWrite8(BMP085_CONTROL, BMP085_READTEMPCMD);
 8000f3c:	212e      	movs	r1, #46	; 0x2e
 8000f3e:	20f4      	movs	r0, #244	; 0xf4
 8000f40:	f7ff ff28 	bl	8000d94 <bmpWrite8>
	HAL_Delay(5);
 8000f44:	2005      	movs	r0, #5
 8000f46:	f001 f96d 	bl	8002224 <HAL_Delay>
	return bmpRead16(BMP085_TEMPDATA);
 8000f4a:	20f6      	movs	r0, #246	; 0xf6
 8000f4c:	f7ff fef6 	bl	8000d3c <bmpRead16>
 8000f50:	4603      	mov	r3, r0
}
 8000f52:	4618      	mov	r0, r3
 8000f54:	bd80      	pop	{r7, pc}
	...

08000f58 <readBMPRawPressure>:
uint32_t readBMPRawPressure(void) {
 8000f58:	b580      	push	{r7, lr}
 8000f5a:	b082      	sub	sp, #8
 8000f5c:	af00      	add	r7, sp, #0
	uint32_t raw;
	bmpWrite8(BMP085_CONTROL, BMP085_READPRESSURECMD + (oversampling << 6));
 8000f5e:	4b21      	ldr	r3, [pc, #132]	; (8000fe4 <readBMPRawPressure+0x8c>)
 8000f60:	781b      	ldrb	r3, [r3, #0]
 8000f62:	019b      	lsls	r3, r3, #6
 8000f64:	b2db      	uxtb	r3, r3
 8000f66:	3334      	adds	r3, #52	; 0x34
 8000f68:	b2db      	uxtb	r3, r3
 8000f6a:	4619      	mov	r1, r3
 8000f6c:	20f4      	movs	r0, #244	; 0xf4
 8000f6e:	f7ff ff11 	bl	8000d94 <bmpWrite8>
	if (oversampling == BMP085_ULTRALOWPOWER)
 8000f72:	4b1c      	ldr	r3, [pc, #112]	; (8000fe4 <readBMPRawPressure+0x8c>)
 8000f74:	781b      	ldrb	r3, [r3, #0]
 8000f76:	2b00      	cmp	r3, #0
 8000f78:	d103      	bne.n	8000f82 <readBMPRawPressure+0x2a>
		HAL_Delay(5);
 8000f7a:	2005      	movs	r0, #5
 8000f7c:	f001 f952 	bl	8002224 <HAL_Delay>
 8000f80:	e012      	b.n	8000fa8 <readBMPRawPressure+0x50>
	else if (oversampling == BMP085_STANDARD)
 8000f82:	4b18      	ldr	r3, [pc, #96]	; (8000fe4 <readBMPRawPressure+0x8c>)
 8000f84:	781b      	ldrb	r3, [r3, #0]
 8000f86:	2b01      	cmp	r3, #1
 8000f88:	d103      	bne.n	8000f92 <readBMPRawPressure+0x3a>
		HAL_Delay(8);
 8000f8a:	2008      	movs	r0, #8
 8000f8c:	f001 f94a 	bl	8002224 <HAL_Delay>
 8000f90:	e00a      	b.n	8000fa8 <readBMPRawPressure+0x50>
	else if (oversampling == BMP085_HIGHRES)
 8000f92:	4b14      	ldr	r3, [pc, #80]	; (8000fe4 <readBMPRawPressure+0x8c>)
 8000f94:	781b      	ldrb	r3, [r3, #0]
 8000f96:	2b02      	cmp	r3, #2
 8000f98:	d103      	bne.n	8000fa2 <readBMPRawPressure+0x4a>
		HAL_Delay(14);
 8000f9a:	200e      	movs	r0, #14
 8000f9c:	f001 f942 	bl	8002224 <HAL_Delay>
 8000fa0:	e002      	b.n	8000fa8 <readBMPRawPressure+0x50>
	else
		HAL_Delay(26);
 8000fa2:	201a      	movs	r0, #26
 8000fa4:	f001 f93e 	bl	8002224 <HAL_Delay>
	raw = bmpRead16(BMP085_PRESSUREDATA);
 8000fa8:	20f6      	movs	r0, #246	; 0xf6
 8000faa:	f7ff fec7 	bl	8000d3c <bmpRead16>
 8000fae:	4603      	mov	r3, r0
 8000fb0:	607b      	str	r3, [r7, #4]
	raw <<= 8;
 8000fb2:	687b      	ldr	r3, [r7, #4]
 8000fb4:	021b      	lsls	r3, r3, #8
 8000fb6:	607b      	str	r3, [r7, #4]
	raw |= bmpRead8(BMP085_PRESSUREDATA + 2);
 8000fb8:	20f8      	movs	r0, #248	; 0xf8
 8000fba:	f7ff fe9b 	bl	8000cf4 <bmpRead8>
 8000fbe:	4603      	mov	r3, r0
 8000fc0:	461a      	mov	r2, r3
 8000fc2:	687b      	ldr	r3, [r7, #4]
 8000fc4:	4313      	orrs	r3, r2
 8000fc6:	607b      	str	r3, [r7, #4]
	raw >>= (8 - oversampling);
 8000fc8:	4b06      	ldr	r3, [pc, #24]	; (8000fe4 <readBMPRawPressure+0x8c>)
 8000fca:	781b      	ldrb	r3, [r3, #0]
 8000fcc:	f1c3 0308 	rsb	r3, r3, #8
 8000fd0:	687a      	ldr	r2, [r7, #4]
 8000fd2:	fa22 f303 	lsr.w	r3, r2, r3
 8000fd6:	607b      	str	r3, [r7, #4]
	return raw;
 8000fd8:	687b      	ldr	r3, [r7, #4]
}
 8000fda:	4618      	mov	r0, r3
 8000fdc:	3708      	adds	r7, #8
 8000fde:	46bd      	mov	sp, r7
 8000fe0:	bd80      	pop	{r7, pc}
 8000fe2:	bf00      	nop
 8000fe4:	2000025a 	.word	0x2000025a

08000fe8 <readBMPTemperature>:
float readBMPTemperature(void) {
 8000fe8:	b580      	push	{r7, lr}
 8000fea:	b084      	sub	sp, #16
 8000fec:	af00      	add	r7, sp, #0
	int32_t UT, B5; // following ds convention
	float temp;
	UT = readBMPRawTemperature();
 8000fee:	f7ff ffa3 	bl	8000f38 <readBMPRawTemperature>
 8000ff2:	4603      	mov	r3, r0
 8000ff4:	60fb      	str	r3, [r7, #12]
	B5 = computeB5(UT);
 8000ff6:	68f8      	ldr	r0, [r7, #12]
 8000ff8:	f7ff ff70 	bl	8000edc <computeB5>
 8000ffc:	60b8      	str	r0, [r7, #8]
	temp = (B5 + 8) >> 4;
 8000ffe:	68bb      	ldr	r3, [r7, #8]
 8001000:	3308      	adds	r3, #8
 8001002:	111b      	asrs	r3, r3, #4
 8001004:	ee07 3a90 	vmov	s15, r3
 8001008:	eef8 7ae7 	vcvt.f32.s32	s15, s15
 800100c:	edc7 7a01 	vstr	s15, [r7, #4]
	temp /= 10;
 8001010:	ed97 7a01 	vldr	s14, [r7, #4]
 8001014:	eef2 6a04 	vmov.f32	s13, #36	; 0x41200000  10.0
 8001018:	eec7 7a26 	vdiv.f32	s15, s14, s13
 800101c:	edc7 7a01 	vstr	s15, [r7, #4]
	return temp;
 8001020:	687b      	ldr	r3, [r7, #4]
 8001022:	ee07 3a90 	vmov	s15, r3
}
 8001026:	eeb0 0a67 	vmov.f32	s0, s15
 800102a:	3710      	adds	r7, #16
 800102c:	46bd      	mov	sp, r7
 800102e:	bd80      	pop	{r7, pc}

08001030 <readBMPPressure>:
int32_t readBMPPressure(void) {
 8001030:	b580      	push	{r7, lr}
 8001032:	b08c      	sub	sp, #48	; 0x30
 8001034:	af00      	add	r7, sp, #0
	int32_t UT, UP, B3, B5, B6, X1, X2, X3, p;
	uint32_t B4, B7;
	UT = readBMPRawTemperature();
 8001036:	f7ff ff7f 	bl	8000f38 <readBMPRawTemperature>
 800103a:	4603      	mov	r3, r0
 800103c:	62bb      	str	r3, [r7, #40]	; 0x28
	UP = readBMPRawPressure();
 800103e:	f7ff ff8b 	bl	8000f58 <readBMPRawPressure>
 8001042:	4603      	mov	r3, r0
 8001044:	627b      	str	r3, [r7, #36]	; 0x24
	B5 = computeB5(UT);
 8001046:	6ab8      	ldr	r0, [r7, #40]	; 0x28
 8001048:	f7ff ff48 	bl	8000edc <computeB5>
 800104c:	6238      	str	r0, [r7, #32]
	// do pressure calcs
	B6 = B5 - 4000;
 800104e:	6a3b      	ldr	r3, [r7, #32]
 8001050:	f5a3 637a 	sub.w	r3, r3, #4000	; 0xfa0
 8001054:	61fb      	str	r3, [r7, #28]
	X1 = ((int32_t) b2 * ((B6 * B6) >> 12)) >> 11;
 8001056:	4b45      	ldr	r3, [pc, #276]	; (800116c <readBMPPressure+0x13c>)
 8001058:	f9b3 3000 	ldrsh.w	r3, [r3]
 800105c:	461a      	mov	r2, r3
 800105e:	69fb      	ldr	r3, [r7, #28]
 8001060:	fb03 f303 	mul.w	r3, r3, r3
 8001064:	131b      	asrs	r3, r3, #12
 8001066:	fb03 f302 	mul.w	r3, r3, r2
 800106a:	12db      	asrs	r3, r3, #11
 800106c:	61bb      	str	r3, [r7, #24]
	X2 = ((int32_t) ac2 * B6) >> 11;
 800106e:	4b40      	ldr	r3, [pc, #256]	; (8001170 <readBMPPressure+0x140>)
 8001070:	f9b3 3000 	ldrsh.w	r3, [r3]
 8001074:	461a      	mov	r2, r3
 8001076:	69fb      	ldr	r3, [r7, #28]
 8001078:	fb03 f302 	mul.w	r3, r3, r2
 800107c:	12db      	asrs	r3, r3, #11
 800107e:	617b      	str	r3, [r7, #20]
	X3 = X1 + X2;
 8001080:	69ba      	ldr	r2, [r7, #24]
 8001082:	697b      	ldr	r3, [r7, #20]
 8001084:	4413      	add	r3, r2
 8001086:	613b      	str	r3, [r7, #16]
	B3 = ((((int32_t) ac1 * 4 + X3) << oversampling) + 2) / 4;
 8001088:	4b3a      	ldr	r3, [pc, #232]	; (8001174 <readBMPPressure+0x144>)
 800108a:	f9b3 3000 	ldrsh.w	r3, [r3]
 800108e:	009a      	lsls	r2, r3, #2
 8001090:	693b      	ldr	r3, [r7, #16]
 8001092:	4413      	add	r3, r2
 8001094:	4a38      	ldr	r2, [pc, #224]	; (8001178 <readBMPPressure+0x148>)
 8001096:	7812      	ldrb	r2, [r2, #0]
 8001098:	4093      	lsls	r3, r2
 800109a:	3302      	adds	r3, #2
 800109c:	2b00      	cmp	r3, #0
 800109e:	da00      	bge.n	80010a2 <readBMPPressure+0x72>
 80010a0:	3303      	adds	r3, #3
 80010a2:	109b      	asrs	r3, r3, #2
 80010a4:	60fb      	str	r3, [r7, #12]
	X1 = ((int32_t) ac3 * B6) >> 13;
 80010a6:	4b35      	ldr	r3, [pc, #212]	; (800117c <readBMPPressure+0x14c>)
 80010a8:	f9b3 3000 	ldrsh.w	r3, [r3]
 80010ac:	461a      	mov	r2, r3
 80010ae:	69fb      	ldr	r3, [r7, #28]
 80010b0:	fb03 f302 	mul.w	r3, r3, r2
 80010b4:	135b      	asrs	r3, r3, #13
 80010b6:	61bb      	str	r3, [r7, #24]
	X2 = ((int32_t) b1 * ((B6 * B6) >> 12)) >> 16;
 80010b8:	4b31      	ldr	r3, [pc, #196]	; (8001180 <readBMPPressure+0x150>)
 80010ba:	f9b3 3000 	ldrsh.w	r3, [r3]
 80010be:	461a      	mov	r2, r3
 80010c0:	69fb      	ldr	r3, [r7, #28]
 80010c2:	fb03 f303 	mul.w	r3, r3, r3
 80010c6:	131b      	asrs	r3, r3, #12
 80010c8:	fb03 f302 	mul.w	r3, r3, r2
 80010cc:	141b      	asrs	r3, r3, #16
 80010ce:	617b      	str	r3, [r7, #20]
	X3 = ((X1 + X2) + 2) >> 2;
 80010d0:	69ba      	ldr	r2, [r7, #24]
 80010d2:	697b      	ldr	r3, [r7, #20]
 80010d4:	4413      	add	r3, r2
 80010d6:	3302      	adds	r3, #2
 80010d8:	109b      	asrs	r3, r3, #2
 80010da:	613b      	str	r3, [r7, #16]
	B4 = ((uint32_t) ac4 * (uint32_t) (X3 + 32768)) >> 15;
 80010dc:	4b29      	ldr	r3, [pc, #164]	; (8001184 <readBMPPressure+0x154>)
 80010de:	881b      	ldrh	r3, [r3, #0]
 80010e0:	461a      	mov	r2, r3
 80010e2:	693b      	ldr	r3, [r7, #16]
 80010e4:	f503 4300 	add.w	r3, r3, #32768	; 0x8000
 80010e8:	fb03 f302 	mul.w	r3, r3, r2
 80010ec:	0bdb      	lsrs	r3, r3, #15
 80010ee:	60bb      	str	r3, [r7, #8]
	B7 = ((uint32_t) UP - B3) * (uint32_t) (50000UL >> oversampling);
 80010f0:	6a7a      	ldr	r2, [r7, #36]	; 0x24
 80010f2:	68fb      	ldr	r3, [r7, #12]
 80010f4:	1ad3      	subs	r3, r2, r3
 80010f6:	4a20      	ldr	r2, [pc, #128]	; (8001178 <readBMPPressure+0x148>)
 80010f8:	7812      	ldrb	r2, [r2, #0]
 80010fa:	4611      	mov	r1, r2
 80010fc:	f24c 3250 	movw	r2, #50000	; 0xc350
 8001100:	40ca      	lsrs	r2, r1
 8001102:	fb02 f303 	mul.w	r3, r2, r3
 8001106:	607b      	str	r3, [r7, #4]
	if (B7 < 0x80000000) {
 8001108:	687b      	ldr	r3, [r7, #4]
 800110a:	2b00      	cmp	r3, #0
 800110c:	db06      	blt.n	800111c <readBMPPressure+0xec>
		p = (B7 * 2) / B4;
 800110e:	687b      	ldr	r3, [r7, #4]
 8001110:	005a      	lsls	r2, r3, #1
 8001112:	68bb      	ldr	r3, [r7, #8]
 8001114:	fbb2 f3f3 	udiv	r3, r2, r3
 8001118:	62fb      	str	r3, [r7, #44]	; 0x2c
 800111a:	e005      	b.n	8001128 <readBMPPressure+0xf8>
	} else {
		p = (B7 / B4) * 2;
 800111c:	687a      	ldr	r2, [r7, #4]
 800111e:	68bb      	ldr	r3, [r7, #8]
 8001120:	fbb2 f3f3 	udiv	r3, r2, r3
 8001124:	005b      	lsls	r3, r3, #1
 8001126:	62fb      	str	r3, [r7, #44]	; 0x2c
	}
	X1 = (p >> 8) * (p >> 8);
 8001128:	6afb      	ldr	r3, [r7, #44]	; 0x2c
 800112a:	121b      	asrs	r3, r3, #8
 800112c:	6afa      	ldr	r2, [r7, #44]	; 0x2c
 800112e:	1212      	asrs	r2, r2, #8
 8001130:	fb02 f303 	mul.w	r3, r2, r3
 8001134:	61bb      	str	r3, [r7, #24]
	X1 = (X1 * 3038) >> 16;
 8001136:	69bb      	ldr	r3, [r7, #24]
 8001138:	f640 32de 	movw	r2, #3038	; 0xbde
 800113c:	fb02 f303 	mul.w	r3, r2, r3
 8001140:	141b      	asrs	r3, r3, #16
 8001142:	61bb      	str	r3, [r7, #24]
	X2 = (-7357 * p) >> 16;
 8001144:	6afb      	ldr	r3, [r7, #44]	; 0x2c
 8001146:	4a10      	ldr	r2, [pc, #64]	; (8001188 <readBMPPressure+0x158>)
 8001148:	fb02 f303 	mul.w	r3, r2, r3
 800114c:	141b      	asrs	r3, r3, #16
 800114e:	617b      	str	r3, [r7, #20]
	p = p + ((X1 + X2 + (int32_t) 3791) >> 4);
 8001150:	69ba      	ldr	r2, [r7, #24]
 8001152:	697b      	ldr	r3, [r7, #20]
 8001154:	4413      	add	r3, r2
 8001156:	f603 63cf 	addw	r3, r3, #3791	; 0xecf
 800115a:	111b      	asrs	r3, r3, #4
 800115c:	6afa      	ldr	r2, [r7, #44]	; 0x2c
 800115e:	4413      	add	r3, r2
 8001160:	62fb      	str	r3, [r7, #44]	; 0x2c
	return p;
 8001162:	6afb      	ldr	r3, [r7, #44]	; 0x2c
}
 8001164:	4618      	mov	r0, r3
 8001166:	3730      	adds	r7, #48	; 0x30
 8001168:	46bd      	mov	sp, r7
 800116a:	bd80      	pop	{r7, pc}
 800116c:	20000248 	.word	0x20000248
 8001170:	20000254 	.word	0x20000254
 8001174:	2000024c 	.word	0x2000024c
 8001178:	2000025a 	.word	0x2000025a
 800117c:	2000025e 	.word	0x2000025e
 8001180:	2000024e 	.word	0x2000024e
 8001184:	20000258 	.word	0x20000258
 8001188:	ffffe343 	.word	0xffffe343
 800118c:	00000000 	.word	0x00000000

08001190 <calculateAltitude>:

double calculateAltitude(int32_t pressure, float temp) {
 8001190:	b5b0      	push	{r4, r5, r7, lr}
 8001192:	b086      	sub	sp, #24
 8001194:	af00      	add	r7, sp, #0
 8001196:	6078      	str	r0, [r7, #4]
 8001198:	ed87 0a00 	vstr	s0, [r7]
    double pressureRatio = SEA_LEVEL_PRESSURE / pressure;
 800119c:	6878      	ldr	r0, [r7, #4]
 800119e:	f7ff f9c1 	bl	8000524 <__aeabi_i2d>
 80011a2:	4602      	mov	r2, r0
 80011a4:	460b      	mov	r3, r1
 80011a6:	a127      	add	r1, pc, #156	; (adr r1, 8001244 <calculateAltitude+0xb4>)
 80011a8:	e9d1 0100 	ldrd	r0, r1, [r1]
 80011ac:	f7ff fb4e 	bl	800084c <__aeabi_ddiv>
 80011b0:	4602      	mov	r2, r0
 80011b2:	460b      	mov	r3, r1
 80011b4:	e9c7 2304 	strd	r2, r3, [r7, #16]
    double altitude = (pow(pressureRatio, 1.0 / 5.257) - 1.0) * (temp + 273.15) / 0.0065;
 80011b8:	ed9f 1b1b 	vldr	d1, [pc, #108]	; 8001228 <calculateAltitude+0x98>
 80011bc:	ed97 0b04 	vldr	d0, [r7, #16]
 80011c0:	f008 ff98 	bl	800a0f4 <pow>
 80011c4:	ec51 0b10 	vmov	r0, r1, d0
 80011c8:	f04f 0200 	mov.w	r2, #0
 80011cc:	4b1c      	ldr	r3, [pc, #112]	; (8001240 <calculateAltitude+0xb0>)
 80011ce:	f7ff f85b 	bl	8000288 <__aeabi_dsub>
 80011d2:	4602      	mov	r2, r0
 80011d4:	460b      	mov	r3, r1
 80011d6:	4614      	mov	r4, r2
 80011d8:	461d      	mov	r5, r3
 80011da:	6838      	ldr	r0, [r7, #0]
 80011dc:	f7ff f9b4 	bl	8000548 <__aeabi_f2d>
 80011e0:	a313      	add	r3, pc, #76	; (adr r3, 8001230 <calculateAltitude+0xa0>)
 80011e2:	e9d3 2300 	ldrd	r2, r3, [r3]
 80011e6:	f7ff f851 	bl	800028c <__adddf3>
 80011ea:	4602      	mov	r2, r0
 80011ec:	460b      	mov	r3, r1
 80011ee:	4620      	mov	r0, r4
 80011f0:	4629      	mov	r1, r5
 80011f2:	f7ff fa01 	bl	80005f8 <__aeabi_dmul>
 80011f6:	4602      	mov	r2, r0
 80011f8:	460b      	mov	r3, r1
 80011fa:	4610      	mov	r0, r2
 80011fc:	4619      	mov	r1, r3
 80011fe:	a30e      	add	r3, pc, #56	; (adr r3, 8001238 <calculateAltitude+0xa8>)
 8001200:	e9d3 2300 	ldrd	r2, r3, [r3]
 8001204:	f7ff fb22 	bl	800084c <__aeabi_ddiv>
 8001208:	4602      	mov	r2, r0
 800120a:	460b      	mov	r3, r1
 800120c:	e9c7 2302 	strd	r2, r3, [r7, #8]

    return altitude;
 8001210:	e9d7 2302 	ldrd	r2, r3, [r7, #8]
 8001214:	ec43 2b17 	vmov	d7, r2, r3
}
 8001218:	eeb0 0a47 	vmov.f32	s0, s14
 800121c:	eef0 0a67 	vmov.f32	s1, s15
 8001220:	3718      	adds	r7, #24
 8001222:	46bd      	mov	sp, r7
 8001224:	bdb0      	pop	{r4, r5, r7, pc}
 8001226:	bf00      	nop
 8001228:	7dee2d4a 	.word	0x7dee2d4a
 800122c:	3fc85936 	.word	0x3fc85936
 8001230:	66666666 	.word	0x66666666
 8001234:	40711266 	.word	0x40711266
 8001238:	76c8b439 	.word	0x76c8b439
 800123c:	3f7a9fbe 	.word	0x3f7a9fbe
 8001240:	3ff00000 	.word	0x3ff00000
 8001244:	00000000 	.word	0x00000000
 8001248:	40f8bcd0 	.word	0x40f8bcd0

0800124c <ITM_SendChar>:
           \li Is blocking when a debugger is connected, but the previous character sent has not been transmitted.
  \param [in]     ch  Character to transmit.
  \returns            Character to transmit.
 */
__STATIC_INLINE uint32_t ITM_SendChar (uint32_t ch)
{
 800124c:	b480      	push	{r7}
 800124e:	b083      	sub	sp, #12
 8001250:	af00      	add	r7, sp, #0
 8001252:	6078      	str	r0, [r7, #4]
  if (((ITM->TCR & ITM_TCR_ITMENA_Msk) != 0UL) &&      /* ITM enabled */
 8001254:	f04f 4360 	mov.w	r3, #3758096384	; 0xe0000000
 8001258:	f8d3 3e80 	ldr.w	r3, [r3, #3712]	; 0xe80
 800125c:	f003 0301 	and.w	r3, r3, #1
 8001260:	2b00      	cmp	r3, #0
 8001262:	d013      	beq.n	800128c <ITM_SendChar+0x40>
      ((ITM->TER & 1UL               ) != 0UL)   )     /* ITM Port #0 enabled */
 8001264:	f04f 4360 	mov.w	r3, #3758096384	; 0xe0000000
 8001268:	f8d3 3e00 	ldr.w	r3, [r3, #3584]	; 0xe00
 800126c:	f003 0301 	and.w	r3, r3, #1
  if (((ITM->TCR & ITM_TCR_ITMENA_Msk) != 0UL) &&      /* ITM enabled */
 8001270:	2b00      	cmp	r3, #0
 8001272:	d00b      	beq.n	800128c <ITM_SendChar+0x40>
  {
    while (ITM->PORT[0U].u32 == 0UL)
 8001274:	e000      	b.n	8001278 <ITM_SendChar+0x2c>
    {
      __NOP();
 8001276:	bf00      	nop
    while (ITM->PORT[0U].u32 == 0UL)
 8001278:	f04f 4360 	mov.w	r3, #3758096384	; 0xe0000000
 800127c:	681b      	ldr	r3, [r3, #0]
 800127e:	2b00      	cmp	r3, #0
 8001280:	d0f9      	beq.n	8001276 <ITM_SendChar+0x2a>
    }
    ITM->PORT[0U].u8 = (uint8_t)ch;
 8001282:	f04f 4360 	mov.w	r3, #3758096384	; 0xe0000000
 8001286:	687a      	ldr	r2, [r7, #4]
 8001288:	b2d2      	uxtb	r2, r2
 800128a:	701a      	strb	r2, [r3, #0]
  }
  return (ch);
 800128c:	687b      	ldr	r3, [r7, #4]
}
 800128e:	4618      	mov	r0, r3
 8001290:	370c      	adds	r7, #12
 8001292:	46bd      	mov	sp, r7
 8001294:	f85d 7b04 	ldr.w	r7, [sp], #4
 8001298:	4770      	bx	lr
	...

0800129c <main>:

/**
 * @brief  The application entry point.
 * @retval int
 */
int main(void) {
 800129c:	b5b0      	push	{r4, r5, r7, lr}
 800129e:	b086      	sub	sp, #24
 80012a0:	af04      	add	r7, sp, #16
	/* USER CODE END 1 */

	/* MCU Configuration--------------------------------------------------------*/

	/* Reset of all peripherals, Initializes the Flash interface and the Systick. */
	HAL_Init();
 80012a2:	f000 ff59 	bl	8002158 <HAL_Init>
	/* USER CODE BEGIN Init */

	/* USER CODE END Init */

	/* Configure the system clock */
	SystemClock_Config();
 80012a6:	f000 f957 	bl	8001558 <SystemClock_Config>
	/* USER CODE BEGIN SysInit */

	/* USER CODE END SysInit */

	/* Initialize all configured peripherals */
	MX_GPIO_Init();
 80012aa:	f000 fa95 	bl	80017d8 <MX_GPIO_Init>
	MX_I2C1_Init();
 80012ae:	f000 f9ab 	bl	8001608 <MX_I2C1_Init>
	MX_TIM2_Init();
 80012b2:	f000 f9e9 	bl	8001688 <MX_TIM2_Init>
	MX_TIM3_Init();
 80012b6:	f000 fa41 	bl	800173c <MX_TIM3_Init>
	/* USER CODE BEGIN 2 */
	HAL_TIM_PWM_Start(&htim2, TIM_CHANNEL_1); //initialize PWM
 80012ba:	2100      	movs	r1, #0
 80012bc:	4894      	ldr	r0, [pc, #592]	; (8001510 <main+0x274>)
 80012be:	f003 fb21 	bl	8004904 <HAL_TIM_PWM_Start>
	//HAL_TIM_Base_Start_IT(&htim3);

	int initBMP180 = bmpBegin(1, &hi2c1);
 80012c2:	4994      	ldr	r1, [pc, #592]	; (8001514 <main+0x278>)
 80012c4:	2001      	movs	r0, #1
 80012c6:	f7ff fd83 	bl	8000dd0 <bmpBegin>
 80012ca:	4603      	mov	r3, r0
 80012cc:	607b      	str	r3, [r7, #4]

	if (initBMP180 == 1) {
 80012ce:	687b      	ldr	r3, [r7, #4]
 80012d0:	2b01      	cmp	r3, #1
 80012d2:	d138      	bne.n	8001346 <main+0xaa>
		printf("successfully initialized BMP180\n");
 80012d4:	4890      	ldr	r0, [pc, #576]	; (8001518 <main+0x27c>)
 80012d6:	f005 f95d 	bl	8006594 <puts>
		HAL_Delay(20);
 80012da:	2014      	movs	r0, #20
 80012dc:	f000 ffa2 	bl	8002224 <HAL_Delay>
		initializeAltitudeArray(getRawAltitude());
 80012e0:	f000 fb66 	bl	80019b0 <getRawAltitude>
 80012e4:	eeb0 7a40 	vmov.f32	s14, s0
 80012e8:	eef0 7a60 	vmov.f32	s15, s1
 80012ec:	eeb0 0a47 	vmov.f32	s0, s14
 80012f0:	eef0 0a67 	vmov.f32	s1, s15
 80012f4:	f000 fb3c 	bl	8001970 <initializeAltitudeArray>
		SEALEVEL_ALTITUDE = getFilteredAltitude(getRawAltitude());
 80012f8:	f000 fb5a 	bl	80019b0 <getRawAltitude>
 80012fc:	eeb0 7a40 	vmov.f32	s14, s0
 8001300:	eef0 7a60 	vmov.f32	s15, s1
 8001304:	eeb0 0a47 	vmov.f32	s0, s14
 8001308:	eef0 0a67 	vmov.f32	s1, s15
 800130c:	f000 fb84 	bl	8001a18 <getFilteredAltitude>
 8001310:	eeb0 7a40 	vmov.f32	s14, s0
 8001314:	eef0 7a60 	vmov.f32	s15, s1
 8001318:	4b80      	ldr	r3, [pc, #512]	; (800151c <main+0x280>)
 800131a:	ed83 7b00 	vstr	d7, [r3]
		initializeAltitudeArray(getRawAltitude() - SEALEVEL_ALTITUDE);
 800131e:	f000 fb47 	bl	80019b0 <getRawAltitude>
 8001322:	ec51 0b10 	vmov	r0, r1, d0
 8001326:	4b7d      	ldr	r3, [pc, #500]	; (800151c <main+0x280>)
 8001328:	e9d3 2300 	ldrd	r2, r3, [r3]
 800132c:	f7fe ffac 	bl	8000288 <__aeabi_dsub>
 8001330:	4602      	mov	r2, r0
 8001332:	460b      	mov	r3, r1
 8001334:	ec43 2b17 	vmov	d7, r2, r3
 8001338:	eeb0 0a47 	vmov.f32	s0, s14
 800133c:	eef0 0a67 	vmov.f32	s1, s15
 8001340:	f000 fb16 	bl	8001970 <initializeAltitudeArray>
 8001344:	e002      	b.n	800134c <main+0xb0>

	} else {
		printf("initializing BMP180 failed\n");
 8001346:	4876      	ldr	r0, [pc, #472]	; (8001520 <main+0x284>)
 8001348:	f005 f924 	bl	8006594 <puts>
	}

	//int initBMX = bmxBegin(&hi2c1);

	fpState = HAL_GPIO_ReadPin(GPIOB, GPIO_PIN_4);
 800134c:	2110      	movs	r1, #16
 800134e:	4875      	ldr	r0, [pc, #468]	; (8001524 <main+0x288>)
 8001350:	f001 f9e4 	bl	800271c <HAL_GPIO_ReadPin>
 8001354:	4603      	mov	r3, r0
 8001356:	461a      	mov	r2, r3
 8001358:	4b73      	ldr	r3, [pc, #460]	; (8001528 <main+0x28c>)
 800135a:	601a      	str	r2, [r3, #0]
	initializeFpStateArray(fpState);
 800135c:	4b72      	ldr	r3, [pc, #456]	; (8001528 <main+0x28c>)
 800135e:	681b      	ldr	r3, [r3, #0]
 8001360:	4618      	mov	r0, r3
 8001362:	f000 fae9 	bl	8001938 <initializeFpStateArray>
	servoWrite(closeAngle);
 8001366:	2355      	movs	r3, #85	; 0x55
 8001368:	4618      	mov	r0, r3
 800136a:	f000 fc8d 	bl	8001c88 <servoWrite>

		/* USER CODE BEGIN 3 */
		//servoTest(85, 60, 10);

		//update altitude
		if (initBMP180) {
 800136e:	687b      	ldr	r3, [r7, #4]
 8001370:	2b00      	cmp	r3, #0
 8001372:	d040      	beq.n	80013f6 <main+0x15a>
			altitude = getRawAltitude() - SEALEVEL_ALTITUDE;
 8001374:	f000 fb1c 	bl	80019b0 <getRawAltitude>
 8001378:	ec51 0b10 	vmov	r0, r1, d0
 800137c:	4b67      	ldr	r3, [pc, #412]	; (800151c <main+0x280>)
 800137e:	e9d3 2300 	ldrd	r2, r3, [r3]
 8001382:	f7fe ff81 	bl	8000288 <__aeabi_dsub>
 8001386:	4602      	mov	r2, r0
 8001388:	460b      	mov	r3, r1
 800138a:	4968      	ldr	r1, [pc, #416]	; (800152c <main+0x290>)
 800138c:	e9c1 2300 	strd	r2, r3, [r1]
			filteredAltitude = getFilteredAltitude(altitude);
 8001390:	4b66      	ldr	r3, [pc, #408]	; (800152c <main+0x290>)
 8001392:	ed93 7b00 	vldr	d7, [r3]
 8001396:	eeb0 0a47 	vmov.f32	s0, s14
 800139a:	eef0 0a67 	vmov.f32	s1, s15
 800139e:	f000 fb3b 	bl	8001a18 <getFilteredAltitude>
 80013a2:	eeb0 7a40 	vmov.f32	s14, s0
 80013a6:	eef0 7a60 	vmov.f32	s15, s1
 80013aa:	4b61      	ldr	r3, [pc, #388]	; (8001530 <main+0x294>)
 80013ac:	ed83 7b00 	vstr	d7, [r3]

			if (filteredAltitude > maxAltitude) {
 80013b0:	4b5f      	ldr	r3, [pc, #380]	; (8001530 <main+0x294>)
 80013b2:	e9d3 0100 	ldrd	r0, r1, [r3]
 80013b6:	4b5f      	ldr	r3, [pc, #380]	; (8001534 <main+0x298>)
 80013b8:	e9d3 2300 	ldrd	r2, r3, [r3]
 80013bc:	f7ff fbac 	bl	8000b18 <__aeabi_dcmpgt>
 80013c0:	4603      	mov	r3, r0
 80013c2:	2b00      	cmp	r3, #0
 80013c4:	d005      	beq.n	80013d2 <main+0x136>
				maxAltitude = filteredAltitude;
 80013c6:	4b5a      	ldr	r3, [pc, #360]	; (8001530 <main+0x294>)
 80013c8:	e9d3 2300 	ldrd	r2, r3, [r3]
 80013cc:	4959      	ldr	r1, [pc, #356]	; (8001534 <main+0x298>)
 80013ce:	e9c1 2300 	strd	r2, r3, [r1]
			}

			printf("rawAltiude= %f, fileteredAltitude = %f, maxAltitude = %f\n",
 80013d2:	4b56      	ldr	r3, [pc, #344]	; (800152c <main+0x290>)
 80013d4:	e9d3 4500 	ldrd	r4, r5, [r3]
 80013d8:	4b55      	ldr	r3, [pc, #340]	; (8001530 <main+0x294>)
 80013da:	e9d3 2300 	ldrd	r2, r3, [r3]
 80013de:	4955      	ldr	r1, [pc, #340]	; (8001534 <main+0x298>)
 80013e0:	e9d1 0100 	ldrd	r0, r1, [r1]
 80013e4:	e9cd 0102 	strd	r0, r1, [sp, #8]
 80013e8:	e9cd 2300 	strd	r2, r3, [sp]
 80013ec:	4622      	mov	r2, r4
 80013ee:	462b      	mov	r3, r5
 80013f0:	4851      	ldr	r0, [pc, #324]	; (8001538 <main+0x29c>)
 80013f2:	f005 f849 	bl	8006488 <iprintf>
		 printf("mag = %f, %f, %f\n", mag[0], mag[1], mag[2]);
		 }
		 */

		//update Flight Pin Value
		fpState = HAL_GPIO_ReadPin(GPIOB, GPIO_PIN_4);
 80013f6:	2110      	movs	r1, #16
 80013f8:	484a      	ldr	r0, [pc, #296]	; (8001524 <main+0x288>)
 80013fa:	f001 f98f 	bl	800271c <HAL_GPIO_ReadPin>
 80013fe:	4603      	mov	r3, r0
 8001400:	461a      	mov	r2, r3
 8001402:	4b49      	ldr	r3, [pc, #292]	; (8001528 <main+0x28c>)
 8001404:	601a      	str	r2, [r3, #0]
		printf("mode = %d, FlightPin = %d\n", mode, fpState);
 8001406:	4b4d      	ldr	r3, [pc, #308]	; (800153c <main+0x2a0>)
 8001408:	681b      	ldr	r3, [r3, #0]
 800140a:	4a47      	ldr	r2, [pc, #284]	; (8001528 <main+0x28c>)
 800140c:	6812      	ldr	r2, [r2, #0]
 800140e:	4619      	mov	r1, r3
 8001410:	484b      	ldr	r0, [pc, #300]	; (8001540 <main+0x2a4>)
 8001412:	f005 f839 	bl	8006488 <iprintf>

		//update LED state
		indicateMode(mode);
 8001416:	4b49      	ldr	r3, [pc, #292]	; (800153c <main+0x2a0>)
 8001418:	681b      	ldr	r3, [r3, #0]
 800141a:	4618      	mov	r0, r3
 800141c:	f000 fc5a 	bl	8001cd4 <indicateMode>

		if (mode != 0) {
 8001420:	4b46      	ldr	r3, [pc, #280]	; (800153c <main+0x2a0>)
 8001422:	681b      	ldr	r3, [r3, #0]
 8001424:	2b00      	cmp	r3, #0
 8001426:	d00e      	beq.n	8001446 <main+0x1aa>
			if (!isLaunched(fpState)) {
 8001428:	4b3f      	ldr	r3, [pc, #252]	; (8001528 <main+0x28c>)
 800142a:	681b      	ldr	r3, [r3, #0]
 800142c:	4618      	mov	r0, r3
 800142e:	f000 fa39 	bl	80018a4 <isLaunched>
 8001432:	4603      	mov	r3, r0
 8001434:	2b00      	cmp	r3, #0
 8001436:	d106      	bne.n	8001446 <main+0x1aa>
				mode = 0;
 8001438:	4b40      	ldr	r3, [pc, #256]	; (800153c <main+0x2a0>)
 800143a:	2200      	movs	r2, #0
 800143c:	601a      	str	r2, [r3, #0]
				servoWrite(closeAngle);
 800143e:	2355      	movs	r3, #85	; 0x55
 8001440:	4618      	mov	r0, r3
 8001442:	f000 fc21 	bl	8001c88 <servoWrite>
			}
		}

		switch (mode) {
 8001446:	4b3d      	ldr	r3, [pc, #244]	; (800153c <main+0x2a0>)
 8001448:	681b      	ldr	r3, [r3, #0]
 800144a:	2b02      	cmp	r3, #2
 800144c:	d04f      	beq.n	80014ee <main+0x252>
 800144e:	2b02      	cmp	r3, #2
 8001450:	dc8d      	bgt.n	800136e <main+0xd2>
 8001452:	2b00      	cmp	r3, #0
 8001454:	d002      	beq.n	800145c <main+0x1c0>
 8001456:	2b01      	cmp	r3, #1
 8001458:	d01a      	beq.n	8001490 <main+0x1f4>
 800145a:	e057      	b.n	800150c <main+0x270>
		//mode0: standby, mode1:launched, mode2: paraOpen, mode3: lowPower
		case 0:
			if (isLaunched(fpState)) {
 800145c:	4b32      	ldr	r3, [pc, #200]	; (8001528 <main+0x28c>)
 800145e:	681b      	ldr	r3, [r3, #0]
 8001460:	4618      	mov	r0, r3
 8001462:	f000 fa1f 	bl	80018a4 <isLaunched>
 8001466:	4603      	mov	r3, r0
 8001468:	2b00      	cmp	r3, #0
 800146a:	d04a      	beq.n	8001502 <main+0x266>
				HAL_TIM_Base_Start_IT(&htim3);
 800146c:	4835      	ldr	r0, [pc, #212]	; (8001544 <main+0x2a8>)
 800146e:	f003 f995 	bl	800479c <HAL_TIM_Base_Start_IT>
				startTime = HAL_GetTick();
 8001472:	f000 fecb 	bl	800220c <HAL_GetTick>
 8001476:	4603      	mov	r3, r0
 8001478:	461a      	mov	r2, r3
 800147a:	4b33      	ldr	r3, [pc, #204]	; (8001548 <main+0x2ac>)
 800147c:	601a      	str	r2, [r3, #0]
				printf("launched\n");
 800147e:	4833      	ldr	r0, [pc, #204]	; (800154c <main+0x2b0>)
 8001480:	f005 f888 	bl	8006594 <puts>
				mode++;
 8001484:	4b2d      	ldr	r3, [pc, #180]	; (800153c <main+0x2a0>)
 8001486:	681b      	ldr	r3, [r3, #0]
 8001488:	3301      	adds	r3, #1
 800148a:	4a2c      	ldr	r2, [pc, #176]	; (800153c <main+0x2a0>)
 800148c:	6013      	str	r3, [r2, #0]
			}
			break;
 800148e:	e038      	b.n	8001502 <main+0x266>
		case 1:
			timeFromLaunch = HAL_GetTick() - startTime;
 8001490:	f000 febc 	bl	800220c <HAL_GetTick>
 8001494:	4603      	mov	r3, r0
 8001496:	4a2c      	ldr	r2, [pc, #176]	; (8001548 <main+0x2ac>)
 8001498:	6812      	ldr	r2, [r2, #0]
 800149a:	1a9b      	subs	r3, r3, r2
 800149c:	461a      	mov	r2, r3
 800149e:	4b2c      	ldr	r3, [pc, #176]	; (8001550 <main+0x2b4>)
 80014a0:	601a      	str	r2, [r3, #0]
			printf("timeFromLaunch = %d\n", timeFromLaunch);
 80014a2:	4b2b      	ldr	r3, [pc, #172]	; (8001550 <main+0x2b4>)
 80014a4:	681b      	ldr	r3, [r3, #0]
 80014a6:	4619      	mov	r1, r3
 80014a8:	482a      	ldr	r0, [pc, #168]	; (8001554 <main+0x2b8>)
 80014aa:	f004 ffed 	bl	8006488 <iprintf>

			if (isTopReached(timeFromLaunch, altitude, maxAltitude)) {
 80014ae:	4b28      	ldr	r3, [pc, #160]	; (8001550 <main+0x2b4>)
 80014b0:	681b      	ldr	r3, [r3, #0]
 80014b2:	4a1e      	ldr	r2, [pc, #120]	; (800152c <main+0x290>)
 80014b4:	ed92 7b00 	vldr	d7, [r2]
 80014b8:	4a1e      	ldr	r2, [pc, #120]	; (8001534 <main+0x298>)
 80014ba:	ed92 6b00 	vldr	d6, [r2]
 80014be:	eeb0 1a46 	vmov.f32	s2, s12
 80014c2:	eef0 1a66 	vmov.f32	s3, s13
 80014c6:	eeb0 0a47 	vmov.f32	s0, s14
 80014ca:	eef0 0a67 	vmov.f32	s1, s15
 80014ce:	4618      	mov	r0, r3
 80014d0:	f000 fa1c 	bl	800190c <isTopReached>
 80014d4:	4603      	mov	r3, r0
 80014d6:	2b00      	cmp	r3, #0
 80014d8:	d015      	beq.n	8001506 <main+0x26a>
				servoWrite(openAngle);
 80014da:	233c      	movs	r3, #60	; 0x3c
 80014dc:	4618      	mov	r0, r3
 80014de:	f000 fbd3 	bl	8001c88 <servoWrite>
				mode++;
 80014e2:	4b16      	ldr	r3, [pc, #88]	; (800153c <main+0x2a0>)
 80014e4:	681b      	ldr	r3, [r3, #0]
 80014e6:	3301      	adds	r3, #1
 80014e8:	4a14      	ldr	r2, [pc, #80]	; (800153c <main+0x2a0>)
 80014ea:	6013      	str	r3, [r2, #0]
			}
			break;
 80014ec:	e00b      	b.n	8001506 <main+0x26a>
		case 2:
			if (timeFromLaunch > 10 * 60) {
 80014ee:	4b18      	ldr	r3, [pc, #96]	; (8001550 <main+0x2b4>)
 80014f0:	681b      	ldr	r3, [r3, #0]
 80014f2:	f5b3 7f16 	cmp.w	r3, #600	; 0x258
 80014f6:	dd08      	ble.n	800150a <main+0x26e>
				servoWrite(closeAngle);
 80014f8:	2355      	movs	r3, #85	; 0x55
 80014fa:	4618      	mov	r0, r3
 80014fc:	f000 fbc4 	bl	8001c88 <servoWrite>
				//break;
			}
			break;
 8001500:	e003      	b.n	800150a <main+0x26e>
			break;
 8001502:	bf00      	nop
 8001504:	e733      	b.n	800136e <main+0xd2>
			break;
 8001506:	bf00      	nop
 8001508:	e731      	b.n	800136e <main+0xd2>
			break;
 800150a:	bf00      	nop
		if (initBMP180) {
 800150c:	e72f      	b.n	800136e <main+0xd2>
 800150e:	bf00      	nop
 8001510:	20000558 	.word	0x20000558
 8001514:	20000260 	.word	0x20000260
 8001518:	0800b060 	.word	0x0800b060
 800151c:	20000220 	.word	0x20000220
 8001520:	0800b080 	.word	0x0800b080
 8001524:	48000400 	.word	0x48000400
 8001528:	20000210 	.word	0x20000210
 800152c:	20000228 	.word	0x20000228
 8001530:	20000230 	.word	0x20000230
 8001534:	20000000 	.word	0x20000000
 8001538:	0800b09c 	.word	0x0800b09c
 800153c:	2000020c 	.word	0x2000020c
 8001540:	0800b0d8 	.word	0x0800b0d8
 8001544:	200002b4 	.word	0x200002b4
 8001548:	20000214 	.word	0x20000214
 800154c:	0800b0f4 	.word	0x0800b0f4
 8001550:	20000218 	.word	0x20000218
 8001554:	0800b100 	.word	0x0800b100

08001558 <SystemClock_Config>:

/**
 * @brief System Clock Configuration
 * @retval None
 */
void SystemClock_Config(void) {
 8001558:	b580      	push	{r7, lr}
 800155a:	b096      	sub	sp, #88	; 0x58
 800155c:	af00      	add	r7, sp, #0
	RCC_OscInitTypeDef RCC_OscInitStruct = { 0 };
 800155e:	f107 0330 	add.w	r3, r7, #48	; 0x30
 8001562:	2228      	movs	r2, #40	; 0x28
 8001564:	2100      	movs	r1, #0
 8001566:	4618      	mov	r0, r3
 8001568:	f004 f90c 	bl	8005784 <memset>
	RCC_ClkInitTypeDef RCC_ClkInitStruct = { 0 };
 800156c:	f107 031c 	add.w	r3, r7, #28
 8001570:	2200      	movs	r2, #0
 8001572:	601a      	str	r2, [r3, #0]
 8001574:	605a      	str	r2, [r3, #4]
 8001576:	609a      	str	r2, [r3, #8]
 8001578:	60da      	str	r2, [r3, #12]
 800157a:	611a      	str	r2, [r3, #16]
	RCC_PeriphCLKInitTypeDef PeriphClkInit = { 0 };
 800157c:	1d3b      	adds	r3, r7, #4
 800157e:	2200      	movs	r2, #0
 8001580:	601a      	str	r2, [r3, #0]
 8001582:	605a      	str	r2, [r3, #4]
 8001584:	609a      	str	r2, [r3, #8]
 8001586:	60da      	str	r2, [r3, #12]
 8001588:	611a      	str	r2, [r3, #16]
 800158a:	615a      	str	r2, [r3, #20]

	/** Initializes the RCC Oscillators according to the specified parameters
	 * in the RCC_OscInitTypeDef structure.
	 */
	RCC_OscInitStruct.OscillatorType = RCC_OSCILLATORTYPE_HSI;
 800158c:	2302      	movs	r3, #2
 800158e:	633b      	str	r3, [r7, #48]	; 0x30
	RCC_OscInitStruct.HSIState = RCC_HSI_ON;
 8001590:	2301      	movs	r3, #1
 8001592:	643b      	str	r3, [r7, #64]	; 0x40
	RCC_OscInitStruct.HSICalibrationValue = RCC_HSICALIBRATION_DEFAULT;
 8001594:	2310      	movs	r3, #16
 8001596:	647b      	str	r3, [r7, #68]	; 0x44
	RCC_OscInitStruct.PLL.PLLState = RCC_PLL_ON;
 8001598:	2302      	movs	r3, #2
 800159a:	64fb      	str	r3, [r7, #76]	; 0x4c
	RCC_OscInitStruct.PLL.PLLSource = RCC_PLLSOURCE_HSI;
 800159c:	2300      	movs	r3, #0
 800159e:	653b      	str	r3, [r7, #80]	; 0x50
	RCC_OscInitStruct.PLL.PLLMUL = RCC_PLL_MUL11;
 80015a0:	f44f 1310 	mov.w	r3, #2359296	; 0x240000
 80015a4:	657b      	str	r3, [r7, #84]	; 0x54
	if (HAL_RCC_OscConfig(&RCC_OscInitStruct) != HAL_OK) {
 80015a6:	f107 0330 	add.w	r3, r7, #48	; 0x30
 80015aa:	4618      	mov	r0, r3
 80015ac:	f001 fe8a 	bl	80032c4 <HAL_RCC_OscConfig>
 80015b0:	4603      	mov	r3, r0
 80015b2:	2b00      	cmp	r3, #0
 80015b4:	d001      	beq.n	80015ba <SystemClock_Config+0x62>
		Error_Handler();
 80015b6:	f000 fbc1 	bl	8001d3c <Error_Handler>
	}
	/** Initializes the CPU, AHB and APB buses clocks
	 */
	RCC_ClkInitStruct.ClockType = RCC_CLOCKTYPE_HCLK | RCC_CLOCKTYPE_SYSCLK
 80015ba:	230f      	movs	r3, #15
 80015bc:	61fb      	str	r3, [r7, #28]
			| RCC_CLOCKTYPE_PCLK1 | RCC_CLOCKTYPE_PCLK2;
	RCC_ClkInitStruct.SYSCLKSource = RCC_SYSCLKSOURCE_PLLCLK;
 80015be:	2302      	movs	r3, #2
 80015c0:	623b      	str	r3, [r7, #32]
	RCC_ClkInitStruct.AHBCLKDivider = RCC_SYSCLK_DIV1;
 80015c2:	2300      	movs	r3, #0
 80015c4:	627b      	str	r3, [r7, #36]	; 0x24
	RCC_ClkInitStruct.APB1CLKDivider = RCC_HCLK_DIV2;
 80015c6:	f44f 6380 	mov.w	r3, #1024	; 0x400
 80015ca:	62bb      	str	r3, [r7, #40]	; 0x28
	RCC_ClkInitStruct.APB2CLKDivider = RCC_HCLK_DIV1;
 80015cc:	2300      	movs	r3, #0
 80015ce:	62fb      	str	r3, [r7, #44]	; 0x2c

	if (HAL_RCC_ClockConfig(&RCC_ClkInitStruct, FLASH_LATENCY_1) != HAL_OK) {
 80015d0:	f107 031c 	add.w	r3, r7, #28
 80015d4:	2101      	movs	r1, #1
 80015d6:	4618      	mov	r0, r3
 80015d8:	f002 fd7c 	bl	80040d4 <HAL_RCC_ClockConfig>
 80015dc:	4603      	mov	r3, r0
 80015de:	2b00      	cmp	r3, #0
 80015e0:	d001      	beq.n	80015e6 <SystemClock_Config+0x8e>
		Error_Handler();
 80015e2:	f000 fbab 	bl	8001d3c <Error_Handler>
	}
	PeriphClkInit.PeriphClockSelection = RCC_PERIPHCLK_I2C1;
 80015e6:	2320      	movs	r3, #32
 80015e8:	607b      	str	r3, [r7, #4]
	PeriphClkInit.I2c1ClockSelection = RCC_I2C1CLKSOURCE_HSI;
 80015ea:	2300      	movs	r3, #0
 80015ec:	613b      	str	r3, [r7, #16]
	if (HAL_RCCEx_PeriphCLKConfig(&PeriphClkInit) != HAL_OK) {
 80015ee:	1d3b      	adds	r3, r7, #4
 80015f0:	4618      	mov	r0, r3
 80015f2:	f002 ff55 	bl	80044a0 <HAL_RCCEx_PeriphCLKConfig>
 80015f6:	4603      	mov	r3, r0
 80015f8:	2b00      	cmp	r3, #0
 80015fa:	d001      	beq.n	8001600 <SystemClock_Config+0xa8>
		Error_Handler();
 80015fc:	f000 fb9e 	bl	8001d3c <Error_Handler>
	}
}
 8001600:	bf00      	nop
 8001602:	3758      	adds	r7, #88	; 0x58
 8001604:	46bd      	mov	sp, r7
 8001606:	bd80      	pop	{r7, pc}

08001608 <MX_I2C1_Init>:
/**
 * @brief I2C1 Initialization Function
 * @param None
 * @retval None
 */
static void MX_I2C1_Init(void) {
 8001608:	b580      	push	{r7, lr}
 800160a:	af00      	add	r7, sp, #0
	/* USER CODE END I2C1_Init 0 */

	/* USER CODE BEGIN I2C1_Init 1 */

	/* USER CODE END I2C1_Init 1 */
	hi2c1.Instance = I2C1;
 800160c:	4b1b      	ldr	r3, [pc, #108]	; (800167c <MX_I2C1_Init+0x74>)
 800160e:	4a1c      	ldr	r2, [pc, #112]	; (8001680 <MX_I2C1_Init+0x78>)
 8001610:	601a      	str	r2, [r3, #0]
	hi2c1.Init.Timing = 0x2000090E;
 8001612:	4b1a      	ldr	r3, [pc, #104]	; (800167c <MX_I2C1_Init+0x74>)
 8001614:	4a1b      	ldr	r2, [pc, #108]	; (8001684 <MX_I2C1_Init+0x7c>)
 8001616:	605a      	str	r2, [r3, #4]
	hi2c1.Init.OwnAddress1 = 0;
 8001618:	4b18      	ldr	r3, [pc, #96]	; (800167c <MX_I2C1_Init+0x74>)
 800161a:	2200      	movs	r2, #0
 800161c:	609a      	str	r2, [r3, #8]
	hi2c1.Init.AddressingMode = I2C_ADDRESSINGMODE_7BIT;
 800161e:	4b17      	ldr	r3, [pc, #92]	; (800167c <MX_I2C1_Init+0x74>)
 8001620:	2201      	movs	r2, #1
 8001622:	60da      	str	r2, [r3, #12]
	hi2c1.Init.DualAddressMode = I2C_DUALADDRESS_DISABLE;
 8001624:	4b15      	ldr	r3, [pc, #84]	; (800167c <MX_I2C1_Init+0x74>)
 8001626:	2200      	movs	r2, #0
 8001628:	611a      	str	r2, [r3, #16]
	hi2c1.Init.OwnAddress2 = 0;
 800162a:	4b14      	ldr	r3, [pc, #80]	; (800167c <MX_I2C1_Init+0x74>)
 800162c:	2200      	movs	r2, #0
 800162e:	615a      	str	r2, [r3, #20]
	hi2c1.Init.OwnAddress2Masks = I2C_OA2_NOMASK;
 8001630:	4b12      	ldr	r3, [pc, #72]	; (800167c <MX_I2C1_Init+0x74>)
 8001632:	2200      	movs	r2, #0
 8001634:	619a      	str	r2, [r3, #24]
	hi2c1.Init.GeneralCallMode = I2C_GENERALCALL_DISABLE;
 8001636:	4b11      	ldr	r3, [pc, #68]	; (800167c <MX_I2C1_Init+0x74>)
 8001638:	2200      	movs	r2, #0
 800163a:	61da      	str	r2, [r3, #28]
	hi2c1.Init.NoStretchMode = I2C_NOSTRETCH_DISABLE;
 800163c:	4b0f      	ldr	r3, [pc, #60]	; (800167c <MX_I2C1_Init+0x74>)
 800163e:	2200      	movs	r2, #0
 8001640:	621a      	str	r2, [r3, #32]
	if (HAL_I2C_Init(&hi2c1) != HAL_OK) {
 8001642:	480e      	ldr	r0, [pc, #56]	; (800167c <MX_I2C1_Init+0x74>)
 8001644:	f001 f89a 	bl	800277c <HAL_I2C_Init>
 8001648:	4603      	mov	r3, r0
 800164a:	2b00      	cmp	r3, #0
 800164c:	d001      	beq.n	8001652 <MX_I2C1_Init+0x4a>
		Error_Handler();
 800164e:	f000 fb75 	bl	8001d3c <Error_Handler>
	}
	/** Configure Analogue filter
	 */
	if (HAL_I2CEx_ConfigAnalogFilter(&hi2c1, I2C_ANALOGFILTER_ENABLE)
 8001652:	2100      	movs	r1, #0
 8001654:	4809      	ldr	r0, [pc, #36]	; (800167c <MX_I2C1_Init+0x74>)
 8001656:	f001 fd9d 	bl	8003194 <HAL_I2CEx_ConfigAnalogFilter>
 800165a:	4603      	mov	r3, r0
 800165c:	2b00      	cmp	r3, #0
 800165e:	d001      	beq.n	8001664 <MX_I2C1_Init+0x5c>
			!= HAL_OK) {
		Error_Handler();
 8001660:	f000 fb6c 	bl	8001d3c <Error_Handler>
	}
	/** Configure Digital filter
	 */
	if (HAL_I2CEx_ConfigDigitalFilter(&hi2c1, 0) != HAL_OK) {
 8001664:	2100      	movs	r1, #0
 8001666:	4805      	ldr	r0, [pc, #20]	; (800167c <MX_I2C1_Init+0x74>)
 8001668:	f001 fddf 	bl	800322a <HAL_I2CEx_ConfigDigitalFilter>
 800166c:	4603      	mov	r3, r0
 800166e:	2b00      	cmp	r3, #0
 8001670:	d001      	beq.n	8001676 <MX_I2C1_Init+0x6e>
		Error_Handler();
 8001672:	f000 fb63 	bl	8001d3c <Error_Handler>
	}
	/* USER CODE BEGIN I2C1_Init 2 */

	/* USER CODE END I2C1_Init 2 */

}
 8001676:	bf00      	nop
 8001678:	bd80      	pop	{r7, pc}
 800167a:	bf00      	nop
 800167c:	20000260 	.word	0x20000260
 8001680:	40005400 	.word	0x40005400
 8001684:	2000090e 	.word	0x2000090e

08001688 <MX_TIM2_Init>:
/**
 * @brief TIM2 Initialization Function
 * @param None
 * @retval None
 */
static void MX_TIM2_Init(void) {
 8001688:	b580      	push	{r7, lr}
 800168a:	b08a      	sub	sp, #40	; 0x28
 800168c:	af00      	add	r7, sp, #0

	/* USER CODE BEGIN TIM2_Init 0 */

	/* USER CODE END TIM2_Init 0 */

	TIM_MasterConfigTypeDef sMasterConfig = { 0 };
 800168e:	f107 031c 	add.w	r3, r7, #28
 8001692:	2200      	movs	r2, #0
 8001694:	601a      	str	r2, [r3, #0]
 8001696:	605a      	str	r2, [r3, #4]
 8001698:	609a      	str	r2, [r3, #8]
	TIM_OC_InitTypeDef sConfigOC = { 0 };
 800169a:	463b      	mov	r3, r7
 800169c:	2200      	movs	r2, #0
 800169e:	601a      	str	r2, [r3, #0]
 80016a0:	605a      	str	r2, [r3, #4]
 80016a2:	609a      	str	r2, [r3, #8]
 80016a4:	60da      	str	r2, [r3, #12]
 80016a6:	611a      	str	r2, [r3, #16]
 80016a8:	615a      	str	r2, [r3, #20]
 80016aa:	619a      	str	r2, [r3, #24]

	/* USER CODE BEGIN TIM2_Init 1 */

	/* USER CODE END TIM2_Init 1 */
	htim2.Instance = TIM2;
 80016ac:	4b22      	ldr	r3, [pc, #136]	; (8001738 <MX_TIM2_Init+0xb0>)
 80016ae:	f04f 4280 	mov.w	r2, #1073741824	; 0x40000000
 80016b2:	601a      	str	r2, [r3, #0]
	htim2.Init.Prescaler = 840;
 80016b4:	4b20      	ldr	r3, [pc, #128]	; (8001738 <MX_TIM2_Init+0xb0>)
 80016b6:	f44f 7252 	mov.w	r2, #840	; 0x348
 80016ba:	605a      	str	r2, [r3, #4]
	htim2.Init.CounterMode = TIM_COUNTERMODE_UP;
 80016bc:	4b1e      	ldr	r3, [pc, #120]	; (8001738 <MX_TIM2_Init+0xb0>)
 80016be:	2200      	movs	r2, #0
 80016c0:	609a      	str	r2, [r3, #8]
	htim2.Init.Period = 1000;
 80016c2:	4b1d      	ldr	r3, [pc, #116]	; (8001738 <MX_TIM2_Init+0xb0>)
 80016c4:	f44f 727a 	mov.w	r2, #1000	; 0x3e8
 80016c8:	60da      	str	r2, [r3, #12]
	htim2.Init.ClockDivision = TIM_CLOCKDIVISION_DIV1;
 80016ca:	4b1b      	ldr	r3, [pc, #108]	; (8001738 <MX_TIM2_Init+0xb0>)
 80016cc:	2200      	movs	r2, #0
 80016ce:	611a      	str	r2, [r3, #16]
	htim2.Init.AutoReloadPreload = TIM_AUTORELOAD_PRELOAD_DISABLE;
 80016d0:	4b19      	ldr	r3, [pc, #100]	; (8001738 <MX_TIM2_Init+0xb0>)
 80016d2:	2200      	movs	r2, #0
 80016d4:	619a      	str	r2, [r3, #24]
	if (HAL_TIM_PWM_Init(&htim2) != HAL_OK) {
 80016d6:	4818      	ldr	r0, [pc, #96]	; (8001738 <MX_TIM2_Init+0xb0>)
 80016d8:	f003 f8bc 	bl	8004854 <HAL_TIM_PWM_Init>
 80016dc:	4603      	mov	r3, r0
 80016de:	2b00      	cmp	r3, #0
 80016e0:	d001      	beq.n	80016e6 <MX_TIM2_Init+0x5e>
		Error_Handler();
 80016e2:	f000 fb2b 	bl	8001d3c <Error_Handler>
	}
	sMasterConfig.MasterOutputTrigger = TIM_TRGO_RESET;
 80016e6:	2300      	movs	r3, #0
 80016e8:	61fb      	str	r3, [r7, #28]
	sMasterConfig.MasterSlaveMode = TIM_MASTERSLAVEMODE_DISABLE;
 80016ea:	2300      	movs	r3, #0
 80016ec:	627b      	str	r3, [r7, #36]	; 0x24
	if (HAL_TIMEx_MasterConfigSynchronization(&htim2, &sMasterConfig)
 80016ee:	f107 031c 	add.w	r3, r7, #28
 80016f2:	4619      	mov	r1, r3
 80016f4:	4810      	ldr	r0, [pc, #64]	; (8001738 <MX_TIM2_Init+0xb0>)
 80016f6:	f003 ffad 	bl	8005654 <HAL_TIMEx_MasterConfigSynchronization>
 80016fa:	4603      	mov	r3, r0
 80016fc:	2b00      	cmp	r3, #0
 80016fe:	d001      	beq.n	8001704 <MX_TIM2_Init+0x7c>
			!= HAL_OK) {
		Error_Handler();
 8001700:	f000 fb1c 	bl	8001d3c <Error_Handler>
	}
	sConfigOC.OCMode = TIM_OCMODE_PWM1;
 8001704:	2360      	movs	r3, #96	; 0x60
 8001706:	603b      	str	r3, [r7, #0]
	sConfigOC.Pulse = 0;
 8001708:	2300      	movs	r3, #0
 800170a:	607b      	str	r3, [r7, #4]
	sConfigOC.OCPolarity = TIM_OCPOLARITY_HIGH;
 800170c:	2300      	movs	r3, #0
 800170e:	60bb      	str	r3, [r7, #8]
	sConfigOC.OCFastMode = TIM_OCFAST_DISABLE;
 8001710:	2300      	movs	r3, #0
 8001712:	613b      	str	r3, [r7, #16]
	if (HAL_TIM_PWM_ConfigChannel(&htim2, &sConfigOC, TIM_CHANNEL_1)
 8001714:	463b      	mov	r3, r7
 8001716:	2200      	movs	r2, #0
 8001718:	4619      	mov	r1, r3
 800171a:	4807      	ldr	r0, [pc, #28]	; (8001738 <MX_TIM2_Init+0xb0>)
 800171c:	f003 f9de 	bl	8004adc <HAL_TIM_PWM_ConfigChannel>
 8001720:	4603      	mov	r3, r0
 8001722:	2b00      	cmp	r3, #0
 8001724:	d001      	beq.n	800172a <MX_TIM2_Init+0xa2>
			!= HAL_OK) {
		Error_Handler();
 8001726:	f000 fb09 	bl	8001d3c <Error_Handler>
	}
	/* USER CODE BEGIN TIM2_Init 2 */

	/* USER CODE END TIM2_Init 2 */
	HAL_TIM_MspPostInit(&htim2);
 800172a:	4803      	ldr	r0, [pc, #12]	; (8001738 <MX_TIM2_Init+0xb0>)
 800172c:	f000 fbd0 	bl	8001ed0 <HAL_TIM_MspPostInit>

}
 8001730:	bf00      	nop
 8001732:	3728      	adds	r7, #40	; 0x28
 8001734:	46bd      	mov	sp, r7
 8001736:	bd80      	pop	{r7, pc}
 8001738:	20000558 	.word	0x20000558

0800173c <MX_TIM3_Init>:
/**
 * @brief TIM3 Initialization Function
 * @param None
 * @retval None
 */
static void MX_TIM3_Init(void) {
 800173c:	b580      	push	{r7, lr}
 800173e:	b088      	sub	sp, #32
 8001740:	af00      	add	r7, sp, #0

	/* USER CODE BEGIN TIM3_Init 0 */

	/* USER CODE END TIM3_Init 0 */

	TIM_ClockConfigTypeDef sClockSourceConfig = { 0 };
 8001742:	f107 0310 	add.w	r3, r7, #16
 8001746:	2200      	movs	r2, #0
 8001748:	601a      	str	r2, [r3, #0]
 800174a:	605a      	str	r2, [r3, #4]
 800174c:	609a      	str	r2, [r3, #8]
 800174e:	60da      	str	r2, [r3, #12]
	TIM_MasterConfigTypeDef sMasterConfig = { 0 };
 8001750:	1d3b      	adds	r3, r7, #4
 8001752:	2200      	movs	r2, #0
 8001754:	601a      	str	r2, [r3, #0]
 8001756:	605a      	str	r2, [r3, #4]
 8001758:	609a      	str	r2, [r3, #8]

	/* USER CODE BEGIN TIM3_Init 1 */

	/* USER CODE END TIM3_Init 1 */
	htim3.Instance = TIM3;
 800175a:	4b1d      	ldr	r3, [pc, #116]	; (80017d0 <MX_TIM3_Init+0x94>)
 800175c:	4a1d      	ldr	r2, [pc, #116]	; (80017d4 <MX_TIM3_Init+0x98>)
 800175e:	601a      	str	r2, [r3, #0]
	htim3.Init.Prescaler = 0;
 8001760:	4b1b      	ldr	r3, [pc, #108]	; (80017d0 <MX_TIM3_Init+0x94>)
 8001762:	2200      	movs	r2, #0
 8001764:	605a      	str	r2, [r3, #4]
	htim3.Init.CounterMode = TIM_COUNTERMODE_UP;
 8001766:	4b1a      	ldr	r3, [pc, #104]	; (80017d0 <MX_TIM3_Init+0x94>)
 8001768:	2200      	movs	r2, #0
 800176a:	609a      	str	r2, [r3, #8]
	htim3.Init.Period = 65535;
 800176c:	4b18      	ldr	r3, [pc, #96]	; (80017d0 <MX_TIM3_Init+0x94>)
 800176e:	f64f 72ff 	movw	r2, #65535	; 0xffff
 8001772:	60da      	str	r2, [r3, #12]
	htim3.Init.ClockDivision = TIM_CLOCKDIVISION_DIV1;
 8001774:	4b16      	ldr	r3, [pc, #88]	; (80017d0 <MX_TIM3_Init+0x94>)
 8001776:	2200      	movs	r2, #0
 8001778:	611a      	str	r2, [r3, #16]
	htim3.Init.AutoReloadPreload = TIM_AUTORELOAD_PRELOAD_DISABLE;
 800177a:	4b15      	ldr	r3, [pc, #84]	; (80017d0 <MX_TIM3_Init+0x94>)
 800177c:	2200      	movs	r2, #0
 800177e:	619a      	str	r2, [r3, #24]
	if (HAL_TIM_Base_Init(&htim3) != HAL_OK) {
 8001780:	4813      	ldr	r0, [pc, #76]	; (80017d0 <MX_TIM3_Init+0x94>)
 8001782:	f002 ffb3 	bl	80046ec <HAL_TIM_Base_Init>
 8001786:	4603      	mov	r3, r0
 8001788:	2b00      	cmp	r3, #0
 800178a:	d001      	beq.n	8001790 <MX_TIM3_Init+0x54>
		Error_Handler();
 800178c:	f000 fad6 	bl	8001d3c <Error_Handler>
	}
	sClockSourceConfig.ClockSource = TIM_CLOCKSOURCE_INTERNAL;
 8001790:	f44f 5380 	mov.w	r3, #4096	; 0x1000
 8001794:	613b      	str	r3, [r7, #16]
	if (HAL_TIM_ConfigClockSource(&htim3, &sClockSourceConfig) != HAL_OK) {
 8001796:	f107 0310 	add.w	r3, r7, #16
 800179a:	4619      	mov	r1, r3
 800179c:	480c      	ldr	r0, [pc, #48]	; (80017d0 <MX_TIM3_Init+0x94>)
 800179e:	f003 fab1 	bl	8004d04 <HAL_TIM_ConfigClockSource>
 80017a2:	4603      	mov	r3, r0
 80017a4:	2b00      	cmp	r3, #0
 80017a6:	d001      	beq.n	80017ac <MX_TIM3_Init+0x70>
		Error_Handler();
 80017a8:	f000 fac8 	bl	8001d3c <Error_Handler>
	}
	sMasterConfig.MasterOutputTrigger = TIM_TRGO_RESET;
 80017ac:	2300      	movs	r3, #0
 80017ae:	607b      	str	r3, [r7, #4]
	sMasterConfig.MasterSlaveMode = TIM_MASTERSLAVEMODE_DISABLE;
 80017b0:	2300      	movs	r3, #0
 80017b2:	60fb      	str	r3, [r7, #12]
	if (HAL_TIMEx_MasterConfigSynchronization(&htim3, &sMasterConfig)
 80017b4:	1d3b      	adds	r3, r7, #4
 80017b6:	4619      	mov	r1, r3
 80017b8:	4805      	ldr	r0, [pc, #20]	; (80017d0 <MX_TIM3_Init+0x94>)
 80017ba:	f003 ff4b 	bl	8005654 <HAL_TIMEx_MasterConfigSynchronization>
 80017be:	4603      	mov	r3, r0
 80017c0:	2b00      	cmp	r3, #0
 80017c2:	d001      	beq.n	80017c8 <MX_TIM3_Init+0x8c>
			!= HAL_OK) {
		Error_Handler();
 80017c4:	f000 faba 	bl	8001d3c <Error_Handler>
	}
	/* USER CODE BEGIN TIM3_Init 2 */

	/* USER CODE END TIM3_Init 2 */

}
 80017c8:	bf00      	nop
 80017ca:	3720      	adds	r7, #32
 80017cc:	46bd      	mov	sp, r7
 80017ce:	bd80      	pop	{r7, pc}
 80017d0:	200002b4 	.word	0x200002b4
 80017d4:	40000400 	.word	0x40000400

080017d8 <MX_GPIO_Init>:
/**
 * @brief GPIO Initialization Function
 * @param None
 * @retval None
 */
static void MX_GPIO_Init(void) {
 80017d8:	b580      	push	{r7, lr}
 80017da:	b088      	sub	sp, #32
 80017dc:	af00      	add	r7, sp, #0
	GPIO_InitTypeDef GPIO_InitStruct = { 0 };
 80017de:	f107 030c 	add.w	r3, r7, #12
 80017e2:	2200      	movs	r2, #0
 80017e4:	601a      	str	r2, [r3, #0]
 80017e6:	605a      	str	r2, [r3, #4]
 80017e8:	609a      	str	r2, [r3, #8]
 80017ea:	60da      	str	r2, [r3, #12]
 80017ec:	611a      	str	r2, [r3, #16]

	/* GPIO Ports Clock Enable */
	__HAL_RCC_GPIOA_CLK_ENABLE();
 80017ee:	4b1d      	ldr	r3, [pc, #116]	; (8001864 <MX_GPIO_Init+0x8c>)
 80017f0:	695b      	ldr	r3, [r3, #20]
 80017f2:	4a1c      	ldr	r2, [pc, #112]	; (8001864 <MX_GPIO_Init+0x8c>)
 80017f4:	f443 3300 	orr.w	r3, r3, #131072	; 0x20000
 80017f8:	6153      	str	r3, [r2, #20]
 80017fa:	4b1a      	ldr	r3, [pc, #104]	; (8001864 <MX_GPIO_Init+0x8c>)
 80017fc:	695b      	ldr	r3, [r3, #20]
 80017fe:	f403 3300 	and.w	r3, r3, #131072	; 0x20000
 8001802:	60bb      	str	r3, [r7, #8]
 8001804:	68bb      	ldr	r3, [r7, #8]
	__HAL_RCC_GPIOB_CLK_ENABLE();
 8001806:	4b17      	ldr	r3, [pc, #92]	; (8001864 <MX_GPIO_Init+0x8c>)
 8001808:	695b      	ldr	r3, [r3, #20]
 800180a:	4a16      	ldr	r2, [pc, #88]	; (8001864 <MX_GPIO_Init+0x8c>)
 800180c:	f443 2380 	orr.w	r3, r3, #262144	; 0x40000
 8001810:	6153      	str	r3, [r2, #20]
 8001812:	4b14      	ldr	r3, [pc, #80]	; (8001864 <MX_GPIO_Init+0x8c>)
 8001814:	695b      	ldr	r3, [r3, #20]
 8001816:	f403 2380 	and.w	r3, r3, #262144	; 0x40000
 800181a:	607b      	str	r3, [r7, #4]
 800181c:	687b      	ldr	r3, [r7, #4]

	/*Configure GPIO pin Output Level */
	HAL_GPIO_WritePin(GPIOB, GPIO_PIN_0 | GPIO_PIN_1, GPIO_PIN_RESET);
 800181e:	2200      	movs	r2, #0
 8001820:	2103      	movs	r1, #3
 8001822:	4811      	ldr	r0, [pc, #68]	; (8001868 <MX_GPIO_Init+0x90>)
 8001824:	f000 ff92 	bl	800274c <HAL_GPIO_WritePin>

	/*Configure GPIO pins : PB0 PB1 */
	GPIO_InitStruct.Pin = GPIO_PIN_0 | GPIO_PIN_1;
 8001828:	2303      	movs	r3, #3
 800182a:	60fb      	str	r3, [r7, #12]
	GPIO_InitStruct.Mode = GPIO_MODE_OUTPUT_PP;
 800182c:	2301      	movs	r3, #1
 800182e:	613b      	str	r3, [r7, #16]
	GPIO_InitStruct.Pull = GPIO_PULLDOWN;
 8001830:	2302      	movs	r3, #2
 8001832:	617b      	str	r3, [r7, #20]
	GPIO_InitStruct.Speed = GPIO_SPEED_FREQ_LOW;
 8001834:	2300      	movs	r3, #0
 8001836:	61bb      	str	r3, [r7, #24]
	HAL_GPIO_Init(GPIOB, &GPIO_InitStruct);
 8001838:	f107 030c 	add.w	r3, r7, #12
 800183c:	4619      	mov	r1, r3
 800183e:	480a      	ldr	r0, [pc, #40]	; (8001868 <MX_GPIO_Init+0x90>)
 8001840:	f000 fdfa 	bl	8002438 <HAL_GPIO_Init>

	/*Configure GPIO pin : PB4 */
	GPIO_InitStruct.Pin = GPIO_PIN_4;
 8001844:	2310      	movs	r3, #16
 8001846:	60fb      	str	r3, [r7, #12]
	GPIO_InitStruct.Mode = GPIO_MODE_INPUT;
 8001848:	2300      	movs	r3, #0
 800184a:	613b      	str	r3, [r7, #16]
	GPIO_InitStruct.Pull = GPIO_PULLUP;
 800184c:	2301      	movs	r3, #1
 800184e:	617b      	str	r3, [r7, #20]
	HAL_GPIO_Init(GPIOB, &GPIO_InitStruct);
 8001850:	f107 030c 	add.w	r3, r7, #12
 8001854:	4619      	mov	r1, r3
 8001856:	4804      	ldr	r0, [pc, #16]	; (8001868 <MX_GPIO_Init+0x90>)
 8001858:	f000 fdee 	bl	8002438 <HAL_GPIO_Init>

}
 800185c:	bf00      	nop
 800185e:	3720      	adds	r7, #32
 8001860:	46bd      	mov	sp, r7
 8001862:	bd80      	pop	{r7, pc}
 8001864:	40021000 	.word	0x40021000
 8001868:	48000400 	.word	0x48000400

0800186c <_write>:

/* USER CODE BEGIN 4 */
int _write(int file, char *ptr, int len) {
 800186c:	b580      	push	{r7, lr}
 800186e:	b086      	sub	sp, #24
 8001870:	af00      	add	r7, sp, #0
 8001872:	60f8      	str	r0, [r7, #12]
 8001874:	60b9      	str	r1, [r7, #8]
 8001876:	607a      	str	r2, [r7, #4]
	int DataIdx;
	for (DataIdx = 0; DataIdx < len; DataIdx++) {
 8001878:	2300      	movs	r3, #0
 800187a:	617b      	str	r3, [r7, #20]
 800187c:	e009      	b.n	8001892 <_write+0x26>
		ITM_SendChar(*ptr++);
 800187e:	68bb      	ldr	r3, [r7, #8]
 8001880:	1c5a      	adds	r2, r3, #1
 8001882:	60ba      	str	r2, [r7, #8]
 8001884:	781b      	ldrb	r3, [r3, #0]
 8001886:	4618      	mov	r0, r3
 8001888:	f7ff fce0 	bl	800124c <ITM_SendChar>
	for (DataIdx = 0; DataIdx < len; DataIdx++) {
 800188c:	697b      	ldr	r3, [r7, #20]
 800188e:	3301      	adds	r3, #1
 8001890:	617b      	str	r3, [r7, #20]
 8001892:	697a      	ldr	r2, [r7, #20]
 8001894:	687b      	ldr	r3, [r7, #4]
 8001896:	429a      	cmp	r2, r3
 8001898:	dbf1      	blt.n	800187e <_write+0x12>
	}
	return len;
 800189a:	687b      	ldr	r3, [r7, #4]
}
 800189c:	4618      	mov	r0, r3
 800189e:	3718      	adds	r7, #24
 80018a0:	46bd      	mov	sp, r7
 80018a2:	bd80      	pop	{r7, pc}

080018a4 <isLaunched>:

int isLaunched(int FlighPinState) {
 80018a4:	b580      	push	{r7, lr}
 80018a6:	b084      	sub	sp, #16
 80018a8:	af00      	add	r7, sp, #0
 80018aa:	6078      	str	r0, [r7, #4]

	fpStateArray[0] = FlighPinState;
 80018ac:	4a15      	ldr	r2, [pc, #84]	; (8001904 <isLaunched+0x60>)
 80018ae:	687b      	ldr	r3, [r7, #4]
 80018b0:	6013      	str	r3, [r2, #0]

	for (int i = (SAMPLENUM - 1); i > 0; i--) {
 80018b2:	2331      	movs	r3, #49	; 0x31
 80018b4:	60fb      	str	r3, [r7, #12]
 80018b6:	e00b      	b.n	80018d0 <isLaunched+0x2c>
		fpStateArray[i] = fpStateArray[i - 1];
 80018b8:	68fb      	ldr	r3, [r7, #12]
 80018ba:	3b01      	subs	r3, #1
 80018bc:	4a11      	ldr	r2, [pc, #68]	; (8001904 <isLaunched+0x60>)
 80018be:	f852 2023 	ldr.w	r2, [r2, r3, lsl #2]
 80018c2:	4910      	ldr	r1, [pc, #64]	; (8001904 <isLaunched+0x60>)
 80018c4:	68fb      	ldr	r3, [r7, #12]
 80018c6:	f841 2023 	str.w	r2, [r1, r3, lsl #2]
	for (int i = (SAMPLENUM - 1); i > 0; i--) {
 80018ca:	68fb      	ldr	r3, [r7, #12]
 80018cc:	3b01      	subs	r3, #1
 80018ce:	60fb      	str	r3, [r7, #12]
 80018d0:	68fb      	ldr	r3, [r7, #12]
 80018d2:	2b00      	cmp	r3, #0
 80018d4:	dcf0      	bgt.n	80018b8 <isLaunched+0x14>
	}

	if (calcMedian(fpStateArray, SAMPLENUM, 0) == 1) { //launched
 80018d6:	2200      	movs	r2, #0
 80018d8:	2132      	movs	r1, #50	; 0x32
 80018da:	480a      	ldr	r0, [pc, #40]	; (8001904 <isLaunched+0x60>)
 80018dc:	f000 f8d0 	bl	8001a80 <calcMedian>
 80018e0:	ec51 0b10 	vmov	r0, r1, d0
 80018e4:	f04f 0200 	mov.w	r2, #0
 80018e8:	4b07      	ldr	r3, [pc, #28]	; (8001908 <isLaunched+0x64>)
 80018ea:	f7ff f8ed 	bl	8000ac8 <__aeabi_dcmpeq>
 80018ee:	4603      	mov	r3, r0
 80018f0:	2b00      	cmp	r3, #0
 80018f2:	d001      	beq.n	80018f8 <isLaunched+0x54>
		return 1;
 80018f4:	2301      	movs	r3, #1
 80018f6:	e000      	b.n	80018fa <isLaunched+0x56>
	} else {
		return 0;
 80018f8:	2300      	movs	r3, #0
	}

}
 80018fa:	4618      	mov	r0, r3
 80018fc:	3710      	adds	r7, #16
 80018fe:	46bd      	mov	sp, r7
 8001900:	bd80      	pop	{r7, pc}
 8001902:	bf00      	nop
 8001904:	20000490 	.word	0x20000490
 8001908:	3ff00000 	.word	0x3ff00000

0800190c <isTopReached>:

int isTopReached(int time, double currentHeight, double maxHeight) {
 800190c:	b480      	push	{r7}
 800190e:	b087      	sub	sp, #28
 8001910:	af00      	add	r7, sp, #0
 8001912:	6178      	str	r0, [r7, #20]
 8001914:	ed87 0b02 	vstr	d0, [r7, #8]
 8001918:	ed87 1b00 	vstr	d1, [r7]
	if (time > topReachTime) {
 800191c:	f249 420c 	movw	r2, #37900	; 0x940c
 8001920:	697b      	ldr	r3, [r7, #20]
 8001922:	4293      	cmp	r3, r2
 8001924:	dd01      	ble.n	800192a <isTopReached+0x1e>
		return 1;
 8001926:	2301      	movs	r3, #1
 8001928:	e000      	b.n	800192c <isTopReached+0x20>
		//}else if (maxHeight - currentHeight > refHeightDelta
		//&& time > engineBurnTime) {
		//return 1;
	} else {
		return 0;
 800192a:	2300      	movs	r3, #0
	}
}
 800192c:	4618      	mov	r0, r3
 800192e:	371c      	adds	r7, #28
 8001930:	46bd      	mov	sp, r7
 8001932:	f85d 7b04 	ldr.w	r7, [sp], #4
 8001936:	4770      	bx	lr

08001938 <initializeFpStateArray>:

void initializeFpStateArray(int FlightPinState) {
 8001938:	b480      	push	{r7}
 800193a:	b085      	sub	sp, #20
 800193c:	af00      	add	r7, sp, #0
 800193e:	6078      	str	r0, [r7, #4]
	for (int i = 0; i < SAMPLENUM; i++) {
 8001940:	2300      	movs	r3, #0
 8001942:	60fb      	str	r3, [r7, #12]
 8001944:	e007      	b.n	8001956 <initializeFpStateArray+0x1e>
		fpStateArray[i] = FlightPinState;
 8001946:	4909      	ldr	r1, [pc, #36]	; (800196c <initializeFpStateArray+0x34>)
 8001948:	68fb      	ldr	r3, [r7, #12]
 800194a:	687a      	ldr	r2, [r7, #4]
 800194c:	f841 2023 	str.w	r2, [r1, r3, lsl #2]
	for (int i = 0; i < SAMPLENUM; i++) {
 8001950:	68fb      	ldr	r3, [r7, #12]
 8001952:	3301      	adds	r3, #1
 8001954:	60fb      	str	r3, [r7, #12]
 8001956:	68fb      	ldr	r3, [r7, #12]
 8001958:	2b31      	cmp	r3, #49	; 0x31
 800195a:	ddf4      	ble.n	8001946 <initializeFpStateArray+0xe>
	}
}
 800195c:	bf00      	nop
 800195e:	bf00      	nop
 8001960:	3714      	adds	r7, #20
 8001962:	46bd      	mov	sp, r7
 8001964:	f85d 7b04 	ldr.w	r7, [sp], #4
 8001968:	4770      	bx	lr
 800196a:	bf00      	nop
 800196c:	20000490 	.word	0x20000490

08001970 <initializeAltitudeArray>:

void initializeAltitudeArray(double _altitude) {
 8001970:	b480      	push	{r7}
 8001972:	b085      	sub	sp, #20
 8001974:	af00      	add	r7, sp, #0
 8001976:	ed87 0b00 	vstr	d0, [r7]
	for (int i = 0; i < SAMPLENUM; i++) {
 800197a:	2300      	movs	r3, #0
 800197c:	60fb      	str	r3, [r7, #12]
 800197e:	e00a      	b.n	8001996 <initializeAltitudeArray+0x26>
		altitudeArray[i] = _altitude;
 8001980:	4a0a      	ldr	r2, [pc, #40]	; (80019ac <initializeAltitudeArray+0x3c>)
 8001982:	68fb      	ldr	r3, [r7, #12]
 8001984:	00db      	lsls	r3, r3, #3
 8001986:	18d1      	adds	r1, r2, r3
 8001988:	e9d7 2300 	ldrd	r2, r3, [r7]
 800198c:	e9c1 2300 	strd	r2, r3, [r1]
	for (int i = 0; i < SAMPLENUM; i++) {
 8001990:	68fb      	ldr	r3, [r7, #12]
 8001992:	3301      	adds	r3, #1
 8001994:	60fb      	str	r3, [r7, #12]
 8001996:	68fb      	ldr	r3, [r7, #12]
 8001998:	2b31      	cmp	r3, #49	; 0x31
 800199a:	ddf1      	ble.n	8001980 <initializeAltitudeArray+0x10>
	}
}
 800199c:	bf00      	nop
 800199e:	bf00      	nop
 80019a0:	3714      	adds	r7, #20
 80019a2:	46bd      	mov	sp, r7
 80019a4:	f85d 7b04 	ldr.w	r7, [sp], #4
 80019a8:	4770      	bx	lr
 80019aa:	bf00      	nop
 80019ac:	20000300 	.word	0x20000300

080019b0 <getRawAltitude>:

double getRawAltitude() {
 80019b0:	b590      	push	{r4, r7, lr}
 80019b2:	b087      	sub	sp, #28
 80019b4:	af00      	add	r7, sp, #0
	double pressure = readBMPPressure();
 80019b6:	f7ff fb3b 	bl	8001030 <readBMPPressure>
 80019ba:	4603      	mov	r3, r0
 80019bc:	4618      	mov	r0, r3
 80019be:	f7fe fdb1 	bl	8000524 <__aeabi_i2d>
 80019c2:	4602      	mov	r2, r0
 80019c4:	460b      	mov	r3, r1
 80019c6:	e9c7 2304 	strd	r2, r3, [r7, #16]
	double temperature = readBMPTemperature();
 80019ca:	f7ff fb0d 	bl	8000fe8 <readBMPTemperature>
 80019ce:	ee10 3a10 	vmov	r3, s0
 80019d2:	4618      	mov	r0, r3
 80019d4:	f7fe fdb8 	bl	8000548 <__aeabi_f2d>
 80019d8:	4602      	mov	r2, r0
 80019da:	460b      	mov	r3, r1
 80019dc:	e9c7 2302 	strd	r2, r3, [r7, #8]
	double _altitude = calculateAltitude(pressure, temperature);
 80019e0:	e9d7 0104 	ldrd	r0, r1, [r7, #16]
 80019e4:	f7ff f8b8 	bl	8000b58 <__aeabi_d2iz>
 80019e8:	4604      	mov	r4, r0
 80019ea:	e9d7 0102 	ldrd	r0, r1, [r7, #8]
 80019ee:	f7ff f8fb 	bl	8000be8 <__aeabi_d2f>
 80019f2:	4603      	mov	r3, r0
 80019f4:	ee00 3a10 	vmov	s0, r3
 80019f8:	4620      	mov	r0, r4
 80019fa:	f7ff fbc9 	bl	8001190 <calculateAltitude>
 80019fe:	ed87 0b00 	vstr	d0, [r7]

	return _altitude;
 8001a02:	e9d7 2300 	ldrd	r2, r3, [r7]
 8001a06:	ec43 2b17 	vmov	d7, r2, r3
}
 8001a0a:	eeb0 0a47 	vmov.f32	s0, s14
 8001a0e:	eef0 0a67 	vmov.f32	s1, s15
 8001a12:	371c      	adds	r7, #28
 8001a14:	46bd      	mov	sp, r7
 8001a16:	bd90      	pop	{r4, r7, pc}

08001a18 <getFilteredAltitude>:

double getFilteredAltitude(double rawAltitude) {
 8001a18:	b580      	push	{r7, lr}
 8001a1a:	b086      	sub	sp, #24
 8001a1c:	af00      	add	r7, sp, #0
 8001a1e:	ed87 0b00 	vstr	d0, [r7]
	altitudeArray[0] = rawAltitude;
 8001a22:	4916      	ldr	r1, [pc, #88]	; (8001a7c <getFilteredAltitude+0x64>)
 8001a24:	e9d7 2300 	ldrd	r2, r3, [r7]
 8001a28:	e9c1 2300 	strd	r2, r3, [r1]

	for (int i = (SAMPLENUM - 1); i > 0; i--) {
 8001a2c:	2331      	movs	r3, #49	; 0x31
 8001a2e:	617b      	str	r3, [r7, #20]
 8001a30:	e00f      	b.n	8001a52 <getFilteredAltitude+0x3a>
		altitudeArray[i] = altitudeArray[i - 1];
 8001a32:	697b      	ldr	r3, [r7, #20]
 8001a34:	3b01      	subs	r3, #1
 8001a36:	4a11      	ldr	r2, [pc, #68]	; (8001a7c <getFilteredAltitude+0x64>)
 8001a38:	00db      	lsls	r3, r3, #3
 8001a3a:	4413      	add	r3, r2
 8001a3c:	e9d3 2300 	ldrd	r2, r3, [r3]
 8001a40:	480e      	ldr	r0, [pc, #56]	; (8001a7c <getFilteredAltitude+0x64>)
 8001a42:	6979      	ldr	r1, [r7, #20]
 8001a44:	00c9      	lsls	r1, r1, #3
 8001a46:	4401      	add	r1, r0
 8001a48:	e9c1 2300 	strd	r2, r3, [r1]
	for (int i = (SAMPLENUM - 1); i > 0; i--) {
 8001a4c:	697b      	ldr	r3, [r7, #20]
 8001a4e:	3b01      	subs	r3, #1
 8001a50:	617b      	str	r3, [r7, #20]
 8001a52:	697b      	ldr	r3, [r7, #20]
 8001a54:	2b00      	cmp	r3, #0
 8001a56:	dcec      	bgt.n	8001a32 <getFilteredAltitude+0x1a>
	}

	double filteredAltitude = calcMedian(altitudeArray, SAMPLENUM, 1);
 8001a58:	2201      	movs	r2, #1
 8001a5a:	2132      	movs	r1, #50	; 0x32
 8001a5c:	4807      	ldr	r0, [pc, #28]	; (8001a7c <getFilteredAltitude+0x64>)
 8001a5e:	f000 f80f 	bl	8001a80 <calcMedian>
 8001a62:	ed87 0b02 	vstr	d0, [r7, #8]

	return filteredAltitude;
 8001a66:	e9d7 2302 	ldrd	r2, r3, [r7, #8]
 8001a6a:	ec43 2b17 	vmov	d7, r2, r3
}
 8001a6e:	eeb0 0a47 	vmov.f32	s0, s14
 8001a72:	eef0 0a67 	vmov.f32	s1, s15
 8001a76:	3718      	adds	r7, #24
 8001a78:	46bd      	mov	sp, r7
 8001a7a:	bd80      	pop	{r7, pc}
 8001a7c:	20000300 	.word	0x20000300

08001a80 <calcMedian>:

double calcMedian(void *array, int n, int type) {
 8001a80:	b590      	push	{r4, r7, lr}
 8001a82:	b08d      	sub	sp, #52	; 0x34
 8001a84:	af00      	add	r7, sp, #0
 8001a86:	60f8      	str	r0, [r7, #12]
 8001a88:	60b9      	str	r1, [r7, #8]
 8001a8a:	607a      	str	r2, [r7, #4]
	if (type == 0) { // If data type is int
 8001a8c:	687b      	ldr	r3, [r7, #4]
 8001a8e:	2b00      	cmp	r3, #0
 8001a90:	d16b      	bne.n	8001b6a <calcMedian+0xea>
		int *intArray = (int*) array;
 8001a92:	68fb      	ldr	r3, [r7, #12]
 8001a94:	617b      	str	r3, [r7, #20]

		for (int i = 0; i < n; i++) {
 8001a96:	2300      	movs	r3, #0
 8001a98:	62fb      	str	r3, [r7, #44]	; 0x2c
 8001a9a:	e02f      	b.n	8001afc <calcMedian+0x7c>
			for (int j = i + 1; j < n; j++) {
 8001a9c:	6afb      	ldr	r3, [r7, #44]	; 0x2c
 8001a9e:	3301      	adds	r3, #1
 8001aa0:	62bb      	str	r3, [r7, #40]	; 0x28
 8001aa2:	e024      	b.n	8001aee <calcMedian+0x6e>
				if (intArray[i] > intArray[j]) {
 8001aa4:	6afb      	ldr	r3, [r7, #44]	; 0x2c
 8001aa6:	009b      	lsls	r3, r3, #2
 8001aa8:	697a      	ldr	r2, [r7, #20]
 8001aaa:	4413      	add	r3, r2
 8001aac:	681a      	ldr	r2, [r3, #0]
 8001aae:	6abb      	ldr	r3, [r7, #40]	; 0x28
 8001ab0:	009b      	lsls	r3, r3, #2
 8001ab2:	6979      	ldr	r1, [r7, #20]
 8001ab4:	440b      	add	r3, r1
 8001ab6:	681b      	ldr	r3, [r3, #0]
 8001ab8:	429a      	cmp	r2, r3
 8001aba:	dd15      	ble.n	8001ae8 <calcMedian+0x68>
					int changer = intArray[j];
 8001abc:	6abb      	ldr	r3, [r7, #40]	; 0x28
 8001abe:	009b      	lsls	r3, r3, #2
 8001ac0:	697a      	ldr	r2, [r7, #20]
 8001ac2:	4413      	add	r3, r2
 8001ac4:	681b      	ldr	r3, [r3, #0]
 8001ac6:	613b      	str	r3, [r7, #16]
					intArray[j] = intArray[i];
 8001ac8:	6afb      	ldr	r3, [r7, #44]	; 0x2c
 8001aca:	009b      	lsls	r3, r3, #2
 8001acc:	697a      	ldr	r2, [r7, #20]
 8001ace:	441a      	add	r2, r3
 8001ad0:	6abb      	ldr	r3, [r7, #40]	; 0x28
 8001ad2:	009b      	lsls	r3, r3, #2
 8001ad4:	6979      	ldr	r1, [r7, #20]
 8001ad6:	440b      	add	r3, r1
 8001ad8:	6812      	ldr	r2, [r2, #0]
 8001ada:	601a      	str	r2, [r3, #0]
					intArray[i] = changer;
 8001adc:	6afb      	ldr	r3, [r7, #44]	; 0x2c
 8001ade:	009b      	lsls	r3, r3, #2
 8001ae0:	697a      	ldr	r2, [r7, #20]
 8001ae2:	4413      	add	r3, r2
 8001ae4:	693a      	ldr	r2, [r7, #16]
 8001ae6:	601a      	str	r2, [r3, #0]
			for (int j = i + 1; j < n; j++) {
 8001ae8:	6abb      	ldr	r3, [r7, #40]	; 0x28
 8001aea:	3301      	adds	r3, #1
 8001aec:	62bb      	str	r3, [r7, #40]	; 0x28
 8001aee:	6aba      	ldr	r2, [r7, #40]	; 0x28
 8001af0:	68bb      	ldr	r3, [r7, #8]
 8001af2:	429a      	cmp	r2, r3
 8001af4:	dbd6      	blt.n	8001aa4 <calcMedian+0x24>
		for (int i = 0; i < n; i++) {
 8001af6:	6afb      	ldr	r3, [r7, #44]	; 0x2c
 8001af8:	3301      	adds	r3, #1
 8001afa:	62fb      	str	r3, [r7, #44]	; 0x2c
 8001afc:	6afa      	ldr	r2, [r7, #44]	; 0x2c
 8001afe:	68bb      	ldr	r3, [r7, #8]
 8001b00:	429a      	cmp	r2, r3
 8001b02:	dbcb      	blt.n	8001a9c <calcMedian+0x1c>
				}
			}
		}

		if (n % 2 == 0) {
 8001b04:	68bb      	ldr	r3, [r7, #8]
 8001b06:	f003 0301 	and.w	r3, r3, #1
 8001b0a:	2b00      	cmp	r3, #0
 8001b0c:	d11f      	bne.n	8001b4e <calcMedian+0xce>
			return (double) (intArray[n / 2] + intArray[n / 2 - 1]) / 2;
 8001b0e:	68bb      	ldr	r3, [r7, #8]
 8001b10:	0fda      	lsrs	r2, r3, #31
 8001b12:	4413      	add	r3, r2
 8001b14:	105b      	asrs	r3, r3, #1
 8001b16:	009b      	lsls	r3, r3, #2
 8001b18:	697a      	ldr	r2, [r7, #20]
 8001b1a:	4413      	add	r3, r2
 8001b1c:	681a      	ldr	r2, [r3, #0]
 8001b1e:	68bb      	ldr	r3, [r7, #8]
 8001b20:	0fd9      	lsrs	r1, r3, #31
 8001b22:	440b      	add	r3, r1
 8001b24:	105b      	asrs	r3, r3, #1
 8001b26:	f103 4380 	add.w	r3, r3, #1073741824	; 0x40000000
 8001b2a:	3b01      	subs	r3, #1
 8001b2c:	009b      	lsls	r3, r3, #2
 8001b2e:	6979      	ldr	r1, [r7, #20]
 8001b30:	440b      	add	r3, r1
 8001b32:	681b      	ldr	r3, [r3, #0]
 8001b34:	4413      	add	r3, r2
 8001b36:	4618      	mov	r0, r3
 8001b38:	f7fe fcf4 	bl	8000524 <__aeabi_i2d>
 8001b3c:	f04f 0200 	mov.w	r2, #0
 8001b40:	f04f 4380 	mov.w	r3, #1073741824	; 0x40000000
 8001b44:	f7fe fe82 	bl	800084c <__aeabi_ddiv>
 8001b48:	4602      	mov	r2, r0
 8001b4a:	460b      	mov	r3, r1
 8001b4c:	e092      	b.n	8001c74 <calcMedian+0x1f4>
		} else {
			return (double) intArray[n / 2];
 8001b4e:	68bb      	ldr	r3, [r7, #8]
 8001b50:	0fda      	lsrs	r2, r3, #31
 8001b52:	4413      	add	r3, r2
 8001b54:	105b      	asrs	r3, r3, #1
 8001b56:	009b      	lsls	r3, r3, #2
 8001b58:	697a      	ldr	r2, [r7, #20]
 8001b5a:	4413      	add	r3, r2
 8001b5c:	681b      	ldr	r3, [r3, #0]
 8001b5e:	4618      	mov	r0, r3
 8001b60:	f7fe fce0 	bl	8000524 <__aeabi_i2d>
 8001b64:	4602      	mov	r2, r0
 8001b66:	460b      	mov	r3, r1
 8001b68:	e084      	b.n	8001c74 <calcMedian+0x1f4>
		}
	} else if (type == 1) { // If data type is float
 8001b6a:	687b      	ldr	r3, [r7, #4]
 8001b6c:	2b01      	cmp	r3, #1
 8001b6e:	d17d      	bne.n	8001c6c <calcMedian+0x1ec>
		double *doubleArray = (double*) array;
 8001b70:	68fb      	ldr	r3, [r7, #12]
 8001b72:	61fb      	str	r3, [r7, #28]

		for (int i = 0; i < n; i++) {
 8001b74:	2300      	movs	r3, #0
 8001b76:	627b      	str	r3, [r7, #36]	; 0x24
 8001b78:	e041      	b.n	8001bfe <calcMedian+0x17e>
			for (int j = i + 1; j < n; j++) {
 8001b7a:	6a7b      	ldr	r3, [r7, #36]	; 0x24
 8001b7c:	3301      	adds	r3, #1
 8001b7e:	623b      	str	r3, [r7, #32]
 8001b80:	e036      	b.n	8001bf0 <calcMedian+0x170>
				if (doubleArray[i] > doubleArray[j]) {
 8001b82:	6a7b      	ldr	r3, [r7, #36]	; 0x24
 8001b84:	00db      	lsls	r3, r3, #3
 8001b86:	69fa      	ldr	r2, [r7, #28]
 8001b88:	4413      	add	r3, r2
 8001b8a:	e9d3 0100 	ldrd	r0, r1, [r3]
 8001b8e:	6a3b      	ldr	r3, [r7, #32]
 8001b90:	00db      	lsls	r3, r3, #3
 8001b92:	69fa      	ldr	r2, [r7, #28]
 8001b94:	4413      	add	r3, r2
 8001b96:	e9d3 2300 	ldrd	r2, r3, [r3]
 8001b9a:	f7fe ffbd 	bl	8000b18 <__aeabi_dcmpgt>
 8001b9e:	4603      	mov	r3, r0
 8001ba0:	2b00      	cmp	r3, #0
 8001ba2:	d022      	beq.n	8001bea <calcMedian+0x16a>
					float changer = doubleArray[j];
 8001ba4:	6a3b      	ldr	r3, [r7, #32]
 8001ba6:	00db      	lsls	r3, r3, #3
 8001ba8:	69fa      	ldr	r2, [r7, #28]
 8001baa:	4413      	add	r3, r2
 8001bac:	e9d3 2300 	ldrd	r2, r3, [r3]
 8001bb0:	4610      	mov	r0, r2
 8001bb2:	4619      	mov	r1, r3
 8001bb4:	f7ff f818 	bl	8000be8 <__aeabi_d2f>
 8001bb8:	4603      	mov	r3, r0
 8001bba:	61bb      	str	r3, [r7, #24]
					doubleArray[j] = doubleArray[i];
 8001bbc:	6a7b      	ldr	r3, [r7, #36]	; 0x24
 8001bbe:	00db      	lsls	r3, r3, #3
 8001bc0:	69fa      	ldr	r2, [r7, #28]
 8001bc2:	4413      	add	r3, r2
 8001bc4:	6a3a      	ldr	r2, [r7, #32]
 8001bc6:	00d2      	lsls	r2, r2, #3
 8001bc8:	69f9      	ldr	r1, [r7, #28]
 8001bca:	4411      	add	r1, r2
 8001bcc:	e9d3 2300 	ldrd	r2, r3, [r3]
 8001bd0:	e9c1 2300 	strd	r2, r3, [r1]
					doubleArray[i] = changer;
 8001bd4:	6a7b      	ldr	r3, [r7, #36]	; 0x24
 8001bd6:	00db      	lsls	r3, r3, #3
 8001bd8:	69fa      	ldr	r2, [r7, #28]
 8001bda:	18d4      	adds	r4, r2, r3
 8001bdc:	69b8      	ldr	r0, [r7, #24]
 8001bde:	f7fe fcb3 	bl	8000548 <__aeabi_f2d>
 8001be2:	4602      	mov	r2, r0
 8001be4:	460b      	mov	r3, r1
 8001be6:	e9c4 2300 	strd	r2, r3, [r4]
			for (int j = i + 1; j < n; j++) {
 8001bea:	6a3b      	ldr	r3, [r7, #32]
 8001bec:	3301      	adds	r3, #1
 8001bee:	623b      	str	r3, [r7, #32]
 8001bf0:	6a3a      	ldr	r2, [r7, #32]
 8001bf2:	68bb      	ldr	r3, [r7, #8]
 8001bf4:	429a      	cmp	r2, r3
 8001bf6:	dbc4      	blt.n	8001b82 <calcMedian+0x102>
		for (int i = 0; i < n; i++) {
 8001bf8:	6a7b      	ldr	r3, [r7, #36]	; 0x24
 8001bfa:	3301      	adds	r3, #1
 8001bfc:	627b      	str	r3, [r7, #36]	; 0x24
 8001bfe:	6a7a      	ldr	r2, [r7, #36]	; 0x24
 8001c00:	68bb      	ldr	r3, [r7, #8]
 8001c02:	429a      	cmp	r2, r3
 8001c04:	dbb9      	blt.n	8001b7a <calcMedian+0xfa>
				}
			}
		}

		if (n % 2 == 0) {
 8001c06:	68bb      	ldr	r3, [r7, #8]
 8001c08:	f003 0301 	and.w	r3, r3, #1
 8001c0c:	2b00      	cmp	r3, #0
 8001c0e:	d123      	bne.n	8001c58 <calcMedian+0x1d8>
			return (doubleArray[n / 2] + doubleArray[n / 2 - 1]) / 2;
 8001c10:	68bb      	ldr	r3, [r7, #8]
 8001c12:	0fda      	lsrs	r2, r3, #31
 8001c14:	4413      	add	r3, r2
 8001c16:	105b      	asrs	r3, r3, #1
 8001c18:	00db      	lsls	r3, r3, #3
 8001c1a:	69fa      	ldr	r2, [r7, #28]
 8001c1c:	4413      	add	r3, r2
 8001c1e:	e9d3 0100 	ldrd	r0, r1, [r3]
 8001c22:	68bb      	ldr	r3, [r7, #8]
 8001c24:	0fda      	lsrs	r2, r3, #31
 8001c26:	4413      	add	r3, r2
 8001c28:	105b      	asrs	r3, r3, #1
 8001c2a:	f103 5300 	add.w	r3, r3, #536870912	; 0x20000000
 8001c2e:	3b01      	subs	r3, #1
 8001c30:	00db      	lsls	r3, r3, #3
 8001c32:	69fa      	ldr	r2, [r7, #28]
 8001c34:	4413      	add	r3, r2
 8001c36:	e9d3 2300 	ldrd	r2, r3, [r3]
 8001c3a:	f7fe fb27 	bl	800028c <__adddf3>
 8001c3e:	4602      	mov	r2, r0
 8001c40:	460b      	mov	r3, r1
 8001c42:	4610      	mov	r0, r2
 8001c44:	4619      	mov	r1, r3
 8001c46:	f04f 0200 	mov.w	r2, #0
 8001c4a:	f04f 4380 	mov.w	r3, #1073741824	; 0x40000000
 8001c4e:	f7fe fdfd 	bl	800084c <__aeabi_ddiv>
 8001c52:	4602      	mov	r2, r0
 8001c54:	460b      	mov	r3, r1
 8001c56:	e00d      	b.n	8001c74 <calcMedian+0x1f4>
		} else {
			return doubleArray[n / 2];
 8001c58:	68bb      	ldr	r3, [r7, #8]
 8001c5a:	0fda      	lsrs	r2, r3, #31
 8001c5c:	4413      	add	r3, r2
 8001c5e:	105b      	asrs	r3, r3, #1
 8001c60:	00db      	lsls	r3, r3, #3
 8001c62:	69fa      	ldr	r2, [r7, #28]
 8001c64:	4413      	add	r3, r2
 8001c66:	e9d3 2300 	ldrd	r2, r3, [r3]
 8001c6a:	e003      	b.n	8001c74 <calcMedian+0x1f4>
		}
	} else {
		// Error or unknown data type
		return 0.0;
 8001c6c:	f04f 0200 	mov.w	r2, #0
 8001c70:	f04f 0300 	mov.w	r3, #0
 8001c74:	ec43 2b17 	vmov	d7, r2, r3
	}
}
 8001c78:	eeb0 0a47 	vmov.f32	s0, s14
 8001c7c:	eef0 0a67 	vmov.f32	s1, s15
 8001c80:	3734      	adds	r7, #52	; 0x34
 8001c82:	46bd      	mov	sp, r7
 8001c84:	bd90      	pop	{r4, r7, pc}
	...

08001c88 <servoWrite>:

void servoWrite(int angle) {
 8001c88:	b480      	push	{r7}
 8001c8a:	b085      	sub	sp, #20
 8001c8c:	af00      	add	r7, sp, #0
 8001c8e:	6078      	str	r0, [r7, #4]
	// Calculate pulse value based on the angle
	int pulseValue = 25 + angle * (120 - 25) / 180;
 8001c90:	687a      	ldr	r2, [r7, #4]
 8001c92:	4613      	mov	r3, r2
 8001c94:	005b      	lsls	r3, r3, #1
 8001c96:	4413      	add	r3, r2
 8001c98:	015b      	lsls	r3, r3, #5
 8001c9a:	1a9b      	subs	r3, r3, r2
 8001c9c:	4a0b      	ldr	r2, [pc, #44]	; (8001ccc <servoWrite+0x44>)
 8001c9e:	fb82 1203 	smull	r1, r2, r2, r3
 8001ca2:	441a      	add	r2, r3
 8001ca4:	11d2      	asrs	r2, r2, #7
 8001ca6:	17db      	asrs	r3, r3, #31
 8001ca8:	1ad3      	subs	r3, r2, r3
 8001caa:	3319      	adds	r3, #25
 8001cac:	60fb      	str	r3, [r7, #12]

	// Ensure pulseValue is within valid range
	if (pulseValue > 120) {
 8001cae:	68fb      	ldr	r3, [r7, #12]
 8001cb0:	2b78      	cmp	r3, #120	; 0x78
 8001cb2:	dd01      	ble.n	8001cb8 <servoWrite+0x30>
		pulseValue = 120;
 8001cb4:	2378      	movs	r3, #120	; 0x78
 8001cb6:	60fb      	str	r3, [r7, #12]
	}

	// Set the pulse width using TIM2 and specified channel
	__HAL_TIM_SET_COMPARE(&htim2, TIM_CHANNEL_1, pulseValue);
 8001cb8:	4b05      	ldr	r3, [pc, #20]	; (8001cd0 <servoWrite+0x48>)
 8001cba:	681b      	ldr	r3, [r3, #0]
 8001cbc:	68fa      	ldr	r2, [r7, #12]
 8001cbe:	635a      	str	r2, [r3, #52]	; 0x34
}
 8001cc0:	bf00      	nop
 8001cc2:	3714      	adds	r7, #20
 8001cc4:	46bd      	mov	sp, r7
 8001cc6:	f85d 7b04 	ldr.w	r7, [sp], #4
 8001cca:	4770      	bx	lr
 8001ccc:	b60b60b7 	.word	0xb60b60b7
 8001cd0:	20000558 	.word	0x20000558

08001cd4 <indicateMode>:
		HAL_Delay(2000);
		servoWrite(angleB); // 60
	}
}

void indicateMode(int _mode) {
 8001cd4:	b580      	push	{r7, lr}
 8001cd6:	b082      	sub	sp, #8
 8001cd8:	af00      	add	r7, sp, #0
 8001cda:	6078      	str	r0, [r7, #4]
	if (_mode == 0) {
 8001cdc:	687b      	ldr	r3, [r7, #4]
 8001cde:	2b00      	cmp	r3, #0
 8001ce0:	d10a      	bne.n	8001cf8 <indicateMode+0x24>
		HAL_GPIO_WritePin(GPIOB, GPIO_PIN_0, GPIO_PIN_RESET);
 8001ce2:	2200      	movs	r2, #0
 8001ce4:	2101      	movs	r1, #1
 8001ce6:	4814      	ldr	r0, [pc, #80]	; (8001d38 <indicateMode+0x64>)
 8001ce8:	f000 fd30 	bl	800274c <HAL_GPIO_WritePin>
		HAL_GPIO_WritePin(GPIOB, GPIO_PIN_1, GPIO_PIN_RESET);
 8001cec:	2200      	movs	r2, #0
 8001cee:	2102      	movs	r1, #2
 8001cf0:	4811      	ldr	r0, [pc, #68]	; (8001d38 <indicateMode+0x64>)
 8001cf2:	f000 fd2b 	bl	800274c <HAL_GPIO_WritePin>
		HAL_GPIO_WritePin(GPIOB, GPIO_PIN_1, GPIO_PIN_SET);
	} else if (_mode == 2) {
		HAL_GPIO_WritePin(GPIOB, GPIO_PIN_0, GPIO_PIN_SET);
		HAL_GPIO_WritePin(GPIOB, GPIO_PIN_1, GPIO_PIN_SET);
	}
}
 8001cf6:	e01a      	b.n	8001d2e <indicateMode+0x5a>
	} else if (_mode == 1) {
 8001cf8:	687b      	ldr	r3, [r7, #4]
 8001cfa:	2b01      	cmp	r3, #1
 8001cfc:	d10a      	bne.n	8001d14 <indicateMode+0x40>
		HAL_GPIO_WritePin(GPIOB, GPIO_PIN_0, GPIO_PIN_RESET);
 8001cfe:	2200      	movs	r2, #0
 8001d00:	2101      	movs	r1, #1
 8001d02:	480d      	ldr	r0, [pc, #52]	; (8001d38 <indicateMode+0x64>)
 8001d04:	f000 fd22 	bl	800274c <HAL_GPIO_WritePin>
		HAL_GPIO_WritePin(GPIOB, GPIO_PIN_1, GPIO_PIN_SET);
 8001d08:	2201      	movs	r2, #1
 8001d0a:	2102      	movs	r1, #2
 8001d0c:	480a      	ldr	r0, [pc, #40]	; (8001d38 <indicateMode+0x64>)
 8001d0e:	f000 fd1d 	bl	800274c <HAL_GPIO_WritePin>
}
 8001d12:	e00c      	b.n	8001d2e <indicateMode+0x5a>
	} else if (_mode == 2) {
 8001d14:	687b      	ldr	r3, [r7, #4]
 8001d16:	2b02      	cmp	r3, #2
 8001d18:	d109      	bne.n	8001d2e <indicateMode+0x5a>
		HAL_GPIO_WritePin(GPIOB, GPIO_PIN_0, GPIO_PIN_SET);
 8001d1a:	2201      	movs	r2, #1
 8001d1c:	2101      	movs	r1, #1
 8001d1e:	4806      	ldr	r0, [pc, #24]	; (8001d38 <indicateMode+0x64>)
 8001d20:	f000 fd14 	bl	800274c <HAL_GPIO_WritePin>
		HAL_GPIO_WritePin(GPIOB, GPIO_PIN_1, GPIO_PIN_SET);
 8001d24:	2201      	movs	r2, #1
 8001d26:	2102      	movs	r1, #2
 8001d28:	4803      	ldr	r0, [pc, #12]	; (8001d38 <indicateMode+0x64>)
 8001d2a:	f000 fd0f 	bl	800274c <HAL_GPIO_WritePin>
}
 8001d2e:	bf00      	nop
 8001d30:	3708      	adds	r7, #8
 8001d32:	46bd      	mov	sp, r7
 8001d34:	bd80      	pop	{r7, pc}
 8001d36:	bf00      	nop
 8001d38:	48000400 	.word	0x48000400

08001d3c <Error_Handler>:

/**
 * @brief  This function is executed in case of error occurrence.
 * @retval None
 */
void Error_Handler(void) {
 8001d3c:	b480      	push	{r7}
 8001d3e:	af00      	add	r7, sp, #0
  \details Disables IRQ interrupts by setting the I-bit in the CPSR.
           Can only be executed in Privileged modes.
 */
__STATIC_FORCEINLINE void __disable_irq(void)
{
  __ASM volatile ("cpsid i" : : : "memory");
 8001d40:	b672      	cpsid	i
}
 8001d42:	bf00      	nop
	/* USER CODE BEGIN Error_Handler_Debug */
	/* User can add his own implementation to report the HAL error return state */
	__disable_irq();
	while (1) {
 8001d44:	e7fe      	b.n	8001d44 <Error_Handler+0x8>
	...

08001d48 <HAL_MspInit>:
void HAL_TIM_MspPostInit(TIM_HandleTypeDef *htim);
                    /**
  * Initializes the Global MSP.
  */
void HAL_MspInit(void)
{
 8001d48:	b480      	push	{r7}
 8001d4a:	b083      	sub	sp, #12
 8001d4c:	af00      	add	r7, sp, #0
  /* USER CODE BEGIN MspInit 0 */

  /* USER CODE END MspInit 0 */

  __HAL_RCC_SYSCFG_CLK_ENABLE();
 8001d4e:	4b0f      	ldr	r3, [pc, #60]	; (8001d8c <HAL_MspInit+0x44>)
 8001d50:	699b      	ldr	r3, [r3, #24]
 8001d52:	4a0e      	ldr	r2, [pc, #56]	; (8001d8c <HAL_MspInit+0x44>)
 8001d54:	f043 0301 	orr.w	r3, r3, #1
 8001d58:	6193      	str	r3, [r2, #24]
 8001d5a:	4b0c      	ldr	r3, [pc, #48]	; (8001d8c <HAL_MspInit+0x44>)
 8001d5c:	699b      	ldr	r3, [r3, #24]
 8001d5e:	f003 0301 	and.w	r3, r3, #1
 8001d62:	607b      	str	r3, [r7, #4]
 8001d64:	687b      	ldr	r3, [r7, #4]
  __HAL_RCC_PWR_CLK_ENABLE();
 8001d66:	4b09      	ldr	r3, [pc, #36]	; (8001d8c <HAL_MspInit+0x44>)
 8001d68:	69db      	ldr	r3, [r3, #28]
 8001d6a:	4a08      	ldr	r2, [pc, #32]	; (8001d8c <HAL_MspInit+0x44>)
 8001d6c:	f043 5380 	orr.w	r3, r3, #268435456	; 0x10000000
 8001d70:	61d3      	str	r3, [r2, #28]
 8001d72:	4b06      	ldr	r3, [pc, #24]	; (8001d8c <HAL_MspInit+0x44>)
 8001d74:	69db      	ldr	r3, [r3, #28]
 8001d76:	f003 5380 	and.w	r3, r3, #268435456	; 0x10000000
 8001d7a:	603b      	str	r3, [r7, #0]
 8001d7c:	683b      	ldr	r3, [r7, #0]
  /* System interrupt init*/

  /* USER CODE BEGIN MspInit 1 */

  /* USER CODE END MspInit 1 */
}
 8001d7e:	bf00      	nop
 8001d80:	370c      	adds	r7, #12
 8001d82:	46bd      	mov	sp, r7
 8001d84:	f85d 7b04 	ldr.w	r7, [sp], #4
 8001d88:	4770      	bx	lr
 8001d8a:	bf00      	nop
 8001d8c:	40021000 	.word	0x40021000

08001d90 <HAL_I2C_MspInit>:
* This function configures the hardware resources used in this example
* @param hi2c: I2C handle pointer
* @retval None
*/
void HAL_I2C_MspInit(I2C_HandleTypeDef* hi2c)
{
 8001d90:	b580      	push	{r7, lr}
 8001d92:	b08a      	sub	sp, #40	; 0x28
 8001d94:	af00      	add	r7, sp, #0
 8001d96:	6078      	str	r0, [r7, #4]
  GPIO_InitTypeDef GPIO_InitStruct = {0};
 8001d98:	f107 0314 	add.w	r3, r7, #20
 8001d9c:	2200      	movs	r2, #0
 8001d9e:	601a      	str	r2, [r3, #0]
 8001da0:	605a      	str	r2, [r3, #4]
 8001da2:	609a      	str	r2, [r3, #8]
 8001da4:	60da      	str	r2, [r3, #12]
 8001da6:	611a      	str	r2, [r3, #16]
  if(hi2c->Instance==I2C1)
 8001da8:	687b      	ldr	r3, [r7, #4]
 8001daa:	681b      	ldr	r3, [r3, #0]
 8001dac:	4a26      	ldr	r2, [pc, #152]	; (8001e48 <HAL_I2C_MspInit+0xb8>)
 8001dae:	4293      	cmp	r3, r2
 8001db0:	d145      	bne.n	8001e3e <HAL_I2C_MspInit+0xae>
  {
  /* USER CODE BEGIN I2C1_MspInit 0 */

  /* USER CODE END I2C1_MspInit 0 */

    __HAL_RCC_GPIOA_CLK_ENABLE();
 8001db2:	4b26      	ldr	r3, [pc, #152]	; (8001e4c <HAL_I2C_MspInit+0xbc>)
 8001db4:	695b      	ldr	r3, [r3, #20]
 8001db6:	4a25      	ldr	r2, [pc, #148]	; (8001e4c <HAL_I2C_MspInit+0xbc>)
 8001db8:	f443 3300 	orr.w	r3, r3, #131072	; 0x20000
 8001dbc:	6153      	str	r3, [r2, #20]
 8001dbe:	4b23      	ldr	r3, [pc, #140]	; (8001e4c <HAL_I2C_MspInit+0xbc>)
 8001dc0:	695b      	ldr	r3, [r3, #20]
 8001dc2:	f403 3300 	and.w	r3, r3, #131072	; 0x20000
 8001dc6:	613b      	str	r3, [r7, #16]
 8001dc8:	693b      	ldr	r3, [r7, #16]
    __HAL_RCC_GPIOB_CLK_ENABLE();
 8001dca:	4b20      	ldr	r3, [pc, #128]	; (8001e4c <HAL_I2C_MspInit+0xbc>)
 8001dcc:	695b      	ldr	r3, [r3, #20]
 8001dce:	4a1f      	ldr	r2, [pc, #124]	; (8001e4c <HAL_I2C_MspInit+0xbc>)
 8001dd0:	f443 2380 	orr.w	r3, r3, #262144	; 0x40000
 8001dd4:	6153      	str	r3, [r2, #20]
 8001dd6:	4b1d      	ldr	r3, [pc, #116]	; (8001e4c <HAL_I2C_MspInit+0xbc>)
 8001dd8:	695b      	ldr	r3, [r3, #20]
 8001dda:	f403 2380 	and.w	r3, r3, #262144	; 0x40000
 8001dde:	60fb      	str	r3, [r7, #12]
 8001de0:	68fb      	ldr	r3, [r7, #12]
    /**I2C1 GPIO Configuration
    PA15     ------> I2C1_SCL
    PB7     ------> I2C1_SDA
    */
    GPIO_InitStruct.Pin = GPIO_PIN_15;
 8001de2:	f44f 4300 	mov.w	r3, #32768	; 0x8000
 8001de6:	617b      	str	r3, [r7, #20]
    GPIO_InitStruct.Mode = GPIO_MODE_AF_OD;
 8001de8:	2312      	movs	r3, #18
 8001dea:	61bb      	str	r3, [r7, #24]
    GPIO_InitStruct.Pull = GPIO_NOPULL;
 8001dec:	2300      	movs	r3, #0
 8001dee:	61fb      	str	r3, [r7, #28]
    GPIO_InitStruct.Speed = GPIO_SPEED_FREQ_HIGH;
 8001df0:	2303      	movs	r3, #3
 8001df2:	623b      	str	r3, [r7, #32]
    GPIO_InitStruct.Alternate = GPIO_AF4_I2C1;
 8001df4:	2304      	movs	r3, #4
 8001df6:	627b      	str	r3, [r7, #36]	; 0x24
    HAL_GPIO_Init(GPIOA, &GPIO_InitStruct);
 8001df8:	f107 0314 	add.w	r3, r7, #20
 8001dfc:	4619      	mov	r1, r3
 8001dfe:	f04f 4090 	mov.w	r0, #1207959552	; 0x48000000
 8001e02:	f000 fb19 	bl	8002438 <HAL_GPIO_Init>

    GPIO_InitStruct.Pin = GPIO_PIN_7;
 8001e06:	2380      	movs	r3, #128	; 0x80
 8001e08:	617b      	str	r3, [r7, #20]
    GPIO_InitStruct.Mode = GPIO_MODE_AF_OD;
 8001e0a:	2312      	movs	r3, #18
 8001e0c:	61bb      	str	r3, [r7, #24]
    GPIO_InitStruct.Pull = GPIO_NOPULL;
 8001e0e:	2300      	movs	r3, #0
 8001e10:	61fb      	str	r3, [r7, #28]
    GPIO_InitStruct.Speed = GPIO_SPEED_FREQ_HIGH;
 8001e12:	2303      	movs	r3, #3
 8001e14:	623b      	str	r3, [r7, #32]
    GPIO_InitStruct.Alternate = GPIO_AF4_I2C1;
 8001e16:	2304      	movs	r3, #4
 8001e18:	627b      	str	r3, [r7, #36]	; 0x24
    HAL_GPIO_Init(GPIOB, &GPIO_InitStruct);
 8001e1a:	f107 0314 	add.w	r3, r7, #20
 8001e1e:	4619      	mov	r1, r3
 8001e20:	480b      	ldr	r0, [pc, #44]	; (8001e50 <HAL_I2C_MspInit+0xc0>)
 8001e22:	f000 fb09 	bl	8002438 <HAL_GPIO_Init>

    /* Peripheral clock enable */
    __HAL_RCC_I2C1_CLK_ENABLE();
 8001e26:	4b09      	ldr	r3, [pc, #36]	; (8001e4c <HAL_I2C_MspInit+0xbc>)
 8001e28:	69db      	ldr	r3, [r3, #28]
 8001e2a:	4a08      	ldr	r2, [pc, #32]	; (8001e4c <HAL_I2C_MspInit+0xbc>)
 8001e2c:	f443 1300 	orr.w	r3, r3, #2097152	; 0x200000
 8001e30:	61d3      	str	r3, [r2, #28]
 8001e32:	4b06      	ldr	r3, [pc, #24]	; (8001e4c <HAL_I2C_MspInit+0xbc>)
 8001e34:	69db      	ldr	r3, [r3, #28]
 8001e36:	f403 1300 	and.w	r3, r3, #2097152	; 0x200000
 8001e3a:	60bb      	str	r3, [r7, #8]
 8001e3c:	68bb      	ldr	r3, [r7, #8]
  /* USER CODE BEGIN I2C1_MspInit 1 */

  /* USER CODE END I2C1_MspInit 1 */
  }

}
 8001e3e:	bf00      	nop
 8001e40:	3728      	adds	r7, #40	; 0x28
 8001e42:	46bd      	mov	sp, r7
 8001e44:	bd80      	pop	{r7, pc}
 8001e46:	bf00      	nop
 8001e48:	40005400 	.word	0x40005400
 8001e4c:	40021000 	.word	0x40021000
 8001e50:	48000400 	.word	0x48000400

08001e54 <HAL_TIM_PWM_MspInit>:
* This function configures the hardware resources used in this example
* @param htim_pwm: TIM_PWM handle pointer
* @retval None
*/
void HAL_TIM_PWM_MspInit(TIM_HandleTypeDef* htim_pwm)
{
 8001e54:	b480      	push	{r7}
 8001e56:	b085      	sub	sp, #20
 8001e58:	af00      	add	r7, sp, #0
 8001e5a:	6078      	str	r0, [r7, #4]
  if(htim_pwm->Instance==TIM2)
 8001e5c:	687b      	ldr	r3, [r7, #4]
 8001e5e:	681b      	ldr	r3, [r3, #0]
 8001e60:	f1b3 4f80 	cmp.w	r3, #1073741824	; 0x40000000
 8001e64:	d10b      	bne.n	8001e7e <HAL_TIM_PWM_MspInit+0x2a>
  {
  /* USER CODE BEGIN TIM2_MspInit 0 */

  /* USER CODE END TIM2_MspInit 0 */
    /* Peripheral clock enable */
    __HAL_RCC_TIM2_CLK_ENABLE();
 8001e66:	4b09      	ldr	r3, [pc, #36]	; (8001e8c <HAL_TIM_PWM_MspInit+0x38>)
 8001e68:	69db      	ldr	r3, [r3, #28]
 8001e6a:	4a08      	ldr	r2, [pc, #32]	; (8001e8c <HAL_TIM_PWM_MspInit+0x38>)
 8001e6c:	f043 0301 	orr.w	r3, r3, #1
 8001e70:	61d3      	str	r3, [r2, #28]
 8001e72:	4b06      	ldr	r3, [pc, #24]	; (8001e8c <HAL_TIM_PWM_MspInit+0x38>)
 8001e74:	69db      	ldr	r3, [r3, #28]
 8001e76:	f003 0301 	and.w	r3, r3, #1
 8001e7a:	60fb      	str	r3, [r7, #12]
 8001e7c:	68fb      	ldr	r3, [r7, #12]
  /* USER CODE BEGIN TIM2_MspInit 1 */

  /* USER CODE END TIM2_MspInit 1 */
  }

}
 8001e7e:	bf00      	nop
 8001e80:	3714      	adds	r7, #20
 8001e82:	46bd      	mov	sp, r7
 8001e84:	f85d 7b04 	ldr.w	r7, [sp], #4
 8001e88:	4770      	bx	lr
 8001e8a:	bf00      	nop
 8001e8c:	40021000 	.word	0x40021000

08001e90 <HAL_TIM_Base_MspInit>:
* This function configures the hardware resources used in this example
* @param htim_base: TIM_Base handle pointer
* @retval None
*/
void HAL_TIM_Base_MspInit(TIM_HandleTypeDef* htim_base)
{
 8001e90:	b480      	push	{r7}
 8001e92:	b085      	sub	sp, #20
 8001e94:	af00      	add	r7, sp, #0
 8001e96:	6078      	str	r0, [r7, #4]
  if(htim_base->Instance==TIM3)
 8001e98:	687b      	ldr	r3, [r7, #4]
 8001e9a:	681b      	ldr	r3, [r3, #0]
 8001e9c:	4a0a      	ldr	r2, [pc, #40]	; (8001ec8 <HAL_TIM_Base_MspInit+0x38>)
 8001e9e:	4293      	cmp	r3, r2
 8001ea0:	d10b      	bne.n	8001eba <HAL_TIM_Base_MspInit+0x2a>
  {
  /* USER CODE BEGIN TIM3_MspInit 0 */

  /* USER CODE END TIM3_MspInit 0 */
    /* Peripheral clock enable */
    __HAL_RCC_TIM3_CLK_ENABLE();
 8001ea2:	4b0a      	ldr	r3, [pc, #40]	; (8001ecc <HAL_TIM_Base_MspInit+0x3c>)
 8001ea4:	69db      	ldr	r3, [r3, #28]
 8001ea6:	4a09      	ldr	r2, [pc, #36]	; (8001ecc <HAL_TIM_Base_MspInit+0x3c>)
 8001ea8:	f043 0302 	orr.w	r3, r3, #2
 8001eac:	61d3      	str	r3, [r2, #28]
 8001eae:	4b07      	ldr	r3, [pc, #28]	; (8001ecc <HAL_TIM_Base_MspInit+0x3c>)
 8001eb0:	69db      	ldr	r3, [r3, #28]
 8001eb2:	f003 0302 	and.w	r3, r3, #2
 8001eb6:	60fb      	str	r3, [r7, #12]
 8001eb8:	68fb      	ldr	r3, [r7, #12]
  /* USER CODE BEGIN TIM3_MspInit 1 */

  /* USER CODE END TIM3_MspInit 1 */
  }

}
 8001eba:	bf00      	nop
 8001ebc:	3714      	adds	r7, #20
 8001ebe:	46bd      	mov	sp, r7
 8001ec0:	f85d 7b04 	ldr.w	r7, [sp], #4
 8001ec4:	4770      	bx	lr
 8001ec6:	bf00      	nop
 8001ec8:	40000400 	.word	0x40000400
 8001ecc:	40021000 	.word	0x40021000

08001ed0 <HAL_TIM_MspPostInit>:

void HAL_TIM_MspPostInit(TIM_HandleTypeDef* htim)
{
 8001ed0:	b580      	push	{r7, lr}
 8001ed2:	b088      	sub	sp, #32
 8001ed4:	af00      	add	r7, sp, #0
 8001ed6:	6078      	str	r0, [r7, #4]
  GPIO_InitTypeDef GPIO_InitStruct = {0};
 8001ed8:	f107 030c 	add.w	r3, r7, #12
 8001edc:	2200      	movs	r2, #0
 8001ede:	601a      	str	r2, [r3, #0]
 8001ee0:	605a      	str	r2, [r3, #4]
 8001ee2:	609a      	str	r2, [r3, #8]
 8001ee4:	60da      	str	r2, [r3, #12]
 8001ee6:	611a      	str	r2, [r3, #16]
  if(htim->Instance==TIM2)
 8001ee8:	687b      	ldr	r3, [r7, #4]
 8001eea:	681b      	ldr	r3, [r3, #0]
 8001eec:	f1b3 4f80 	cmp.w	r3, #1073741824	; 0x40000000
 8001ef0:	d11c      	bne.n	8001f2c <HAL_TIM_MspPostInit+0x5c>
  {
  /* USER CODE BEGIN TIM2_MspPostInit 0 */

  /* USER CODE END TIM2_MspPostInit 0 */

    __HAL_RCC_GPIOA_CLK_ENABLE();
 8001ef2:	4b10      	ldr	r3, [pc, #64]	; (8001f34 <HAL_TIM_MspPostInit+0x64>)
 8001ef4:	695b      	ldr	r3, [r3, #20]
 8001ef6:	4a0f      	ldr	r2, [pc, #60]	; (8001f34 <HAL_TIM_MspPostInit+0x64>)
 8001ef8:	f443 3300 	orr.w	r3, r3, #131072	; 0x20000
 8001efc:	6153      	str	r3, [r2, #20]
 8001efe:	4b0d      	ldr	r3, [pc, #52]	; (8001f34 <HAL_TIM_MspPostInit+0x64>)
 8001f00:	695b      	ldr	r3, [r3, #20]
 8001f02:	f403 3300 	and.w	r3, r3, #131072	; 0x20000
 8001f06:	60bb      	str	r3, [r7, #8]
 8001f08:	68bb      	ldr	r3, [r7, #8]
    /**TIM2 GPIO Configuration
    PA5     ------> TIM2_CH1
    */
    GPIO_InitStruct.Pin = GPIO_PIN_5;
 8001f0a:	2320      	movs	r3, #32
 8001f0c:	60fb      	str	r3, [r7, #12]
    GPIO_InitStruct.Mode = GPIO_MODE_AF_PP;
 8001f0e:	2302      	movs	r3, #2
 8001f10:	613b      	str	r3, [r7, #16]
    GPIO_InitStruct.Pull = GPIO_NOPULL;
 8001f12:	2300      	movs	r3, #0
 8001f14:	617b      	str	r3, [r7, #20]
    GPIO_InitStruct.Speed = GPIO_SPEED_FREQ_LOW;
 8001f16:	2300      	movs	r3, #0
 8001f18:	61bb      	str	r3, [r7, #24]
    GPIO_InitStruct.Alternate = GPIO_AF1_TIM2;
 8001f1a:	2301      	movs	r3, #1
 8001f1c:	61fb      	str	r3, [r7, #28]
    HAL_GPIO_Init(GPIOA, &GPIO_InitStruct);
 8001f1e:	f107 030c 	add.w	r3, r7, #12
 8001f22:	4619      	mov	r1, r3
 8001f24:	f04f 4090 	mov.w	r0, #1207959552	; 0x48000000
 8001f28:	f000 fa86 	bl	8002438 <HAL_GPIO_Init>
  /* USER CODE BEGIN TIM2_MspPostInit 1 */

  /* USER CODE END TIM2_MspPostInit 1 */
  }

}
 8001f2c:	bf00      	nop
 8001f2e:	3720      	adds	r7, #32
 8001f30:	46bd      	mov	sp, r7
 8001f32:	bd80      	pop	{r7, pc}
 8001f34:	40021000 	.word	0x40021000

08001f38 <NMI_Handler>:
/******************************************************************************/
/**
  * @brief This function handles Non maskable interrupt.
  */
void NMI_Handler(void)
{
 8001f38:	b480      	push	{r7}
 8001f3a:	af00      	add	r7, sp, #0
  /* USER CODE BEGIN NonMaskableInt_IRQn 0 */

  /* USER CODE END NonMaskableInt_IRQn 0 */
  /* USER CODE BEGIN NonMaskableInt_IRQn 1 */
  while (1)
 8001f3c:	e7fe      	b.n	8001f3c <NMI_Handler+0x4>

08001f3e <HardFault_Handler>:

/**
  * @brief This function handles Hard fault interrupt.
  */
void HardFault_Handler(void)
{
 8001f3e:	b480      	push	{r7}
 8001f40:	af00      	add	r7, sp, #0
  /* USER CODE BEGIN HardFault_IRQn 0 */

  /* USER CODE END HardFault_IRQn 0 */
  while (1)
 8001f42:	e7fe      	b.n	8001f42 <HardFault_Handler+0x4>

08001f44 <MemManage_Handler>:

/**
  * @brief This function handles Memory management fault.
  */
void MemManage_Handler(void)
{
 8001f44:	b480      	push	{r7}
 8001f46:	af00      	add	r7, sp, #0
  /* USER CODE BEGIN MemoryManagement_IRQn 0 */

  /* USER CODE END MemoryManagement_IRQn 0 */
  while (1)
 8001f48:	e7fe      	b.n	8001f48 <MemManage_Handler+0x4>

08001f4a <BusFault_Handler>:

/**
  * @brief This function handles Pre-fetch fault, memory access fault.
  */
void BusFault_Handler(void)
{
 8001f4a:	b480      	push	{r7}
 8001f4c:	af00      	add	r7, sp, #0
  /* USER CODE BEGIN BusFault_IRQn 0 */

  /* USER CODE END BusFault_IRQn 0 */
  while (1)
 8001f4e:	e7fe      	b.n	8001f4e <BusFault_Handler+0x4>

08001f50 <UsageFault_Handler>:

/**
  * @brief This function handles Undefined instruction or illegal state.
  */
void UsageFault_Handler(void)
{
 8001f50:	b480      	push	{r7}
 8001f52:	af00      	add	r7, sp, #0
  /* USER CODE BEGIN UsageFault_IRQn 0 */

  /* USER CODE END UsageFault_IRQn 0 */
  while (1)
 8001f54:	e7fe      	b.n	8001f54 <UsageFault_Handler+0x4>

08001f56 <SVC_Handler>:

/**
  * @brief This function handles System service call via SWI instruction.
  */
void SVC_Handler(void)
{
 8001f56:	b480      	push	{r7}
 8001f58:	af00      	add	r7, sp, #0

  /* USER CODE END SVCall_IRQn 0 */
  /* USER CODE BEGIN SVCall_IRQn 1 */

  /* USER CODE END SVCall_IRQn 1 */
}
 8001f5a:	bf00      	nop
 8001f5c:	46bd      	mov	sp, r7
 8001f5e:	f85d 7b04 	ldr.w	r7, [sp], #4
 8001f62:	4770      	bx	lr

08001f64 <DebugMon_Handler>:

/**
  * @brief This function handles Debug monitor.
  */
void DebugMon_Handler(void)
{
 8001f64:	b480      	push	{r7}
 8001f66:	af00      	add	r7, sp, #0

  /* USER CODE END DebugMonitor_IRQn 0 */
  /* USER CODE BEGIN DebugMonitor_IRQn 1 */

  /* USER CODE END DebugMonitor_IRQn 1 */
}
 8001f68:	bf00      	nop
 8001f6a:	46bd      	mov	sp, r7
 8001f6c:	f85d 7b04 	ldr.w	r7, [sp], #4
 8001f70:	4770      	bx	lr

08001f72 <PendSV_Handler>:

/**
  * @brief This function handles Pendable request for system service.
  */
void PendSV_Handler(void)
{
 8001f72:	b480      	push	{r7}
 8001f74:	af00      	add	r7, sp, #0

  /* USER CODE END PendSV_IRQn 0 */
  /* USER CODE BEGIN PendSV_IRQn 1 */

  /* USER CODE END PendSV_IRQn 1 */
}
 8001f76:	bf00      	nop
 8001f78:	46bd      	mov	sp, r7
 8001f7a:	f85d 7b04 	ldr.w	r7, [sp], #4
 8001f7e:	4770      	bx	lr

08001f80 <SysTick_Handler>:

/**
  * @brief This function handles System tick timer.
  */
void SysTick_Handler(void)
{
 8001f80:	b580      	push	{r7, lr}
 8001f82:	af00      	add	r7, sp, #0
  /* USER CODE BEGIN SysTick_IRQn 0 */

  /* USER CODE END SysTick_IRQn 0 */
  HAL_IncTick();
 8001f84:	f000 f92e 	bl	80021e4 <HAL_IncTick>
  /* USER CODE BEGIN SysTick_IRQn 1 */

  /* USER CODE END SysTick_IRQn 1 */
}
 8001f88:	bf00      	nop
 8001f8a:	bd80      	pop	{r7, pc}

08001f8c <_getpid>:
void initialise_monitor_handles()
{
}

int _getpid(void)
{
 8001f8c:	b480      	push	{r7}
 8001f8e:	af00      	add	r7, sp, #0
	return 1;
 8001f90:	2301      	movs	r3, #1
}
 8001f92:	4618      	mov	r0, r3
 8001f94:	46bd      	mov	sp, r7
 8001f96:	f85d 7b04 	ldr.w	r7, [sp], #4
 8001f9a:	4770      	bx	lr

08001f9c <_kill>:

int _kill(int pid, int sig)
{
 8001f9c:	b580      	push	{r7, lr}
 8001f9e:	b082      	sub	sp, #8
 8001fa0:	af00      	add	r7, sp, #0
 8001fa2:	6078      	str	r0, [r7, #4]
 8001fa4:	6039      	str	r1, [r7, #0]
	errno = EINVAL;
 8001fa6:	f003 fbc3 	bl	8005730 <__errno>
 8001faa:	4603      	mov	r3, r0
 8001fac:	2216      	movs	r2, #22
 8001fae:	601a      	str	r2, [r3, #0]
	return -1;
 8001fb0:	f04f 33ff 	mov.w	r3, #4294967295
}
 8001fb4:	4618      	mov	r0, r3
 8001fb6:	3708      	adds	r7, #8
 8001fb8:	46bd      	mov	sp, r7
 8001fba:	bd80      	pop	{r7, pc}

08001fbc <_exit>:

void _exit (int status)
{
 8001fbc:	b580      	push	{r7, lr}
 8001fbe:	b082      	sub	sp, #8
 8001fc0:	af00      	add	r7, sp, #0
 8001fc2:	6078      	str	r0, [r7, #4]
	_kill(status, -1);
 8001fc4:	f04f 31ff 	mov.w	r1, #4294967295
 8001fc8:	6878      	ldr	r0, [r7, #4]
 8001fca:	f7ff ffe7 	bl	8001f9c <_kill>
	while (1) {}		/* Make sure we hang here */
 8001fce:	e7fe      	b.n	8001fce <_exit+0x12>

08001fd0 <_read>:
}

__attribute__((weak)) int _read(int file, char *ptr, int len)
{
 8001fd0:	b580      	push	{r7, lr}
 8001fd2:	b086      	sub	sp, #24
 8001fd4:	af00      	add	r7, sp, #0
 8001fd6:	60f8      	str	r0, [r7, #12]
 8001fd8:	60b9      	str	r1, [r7, #8]
 8001fda:	607a      	str	r2, [r7, #4]
	int DataIdx;

	for (DataIdx = 0; DataIdx < len; DataIdx++)
 8001fdc:	2300      	movs	r3, #0
 8001fde:	617b      	str	r3, [r7, #20]
 8001fe0:	e00a      	b.n	8001ff8 <_read+0x28>
	{
		*ptr++ = __io_getchar();
 8001fe2:	f3af 8000 	nop.w
 8001fe6:	4601      	mov	r1, r0
 8001fe8:	68bb      	ldr	r3, [r7, #8]
 8001fea:	1c5a      	adds	r2, r3, #1
 8001fec:	60ba      	str	r2, [r7, #8]
 8001fee:	b2ca      	uxtb	r2, r1
 8001ff0:	701a      	strb	r2, [r3, #0]
	for (DataIdx = 0; DataIdx < len; DataIdx++)
 8001ff2:	697b      	ldr	r3, [r7, #20]
 8001ff4:	3301      	adds	r3, #1
 8001ff6:	617b      	str	r3, [r7, #20]
 8001ff8:	697a      	ldr	r2, [r7, #20]
 8001ffa:	687b      	ldr	r3, [r7, #4]
 8001ffc:	429a      	cmp	r2, r3
 8001ffe:	dbf0      	blt.n	8001fe2 <_read+0x12>
	}

return len;
 8002000:	687b      	ldr	r3, [r7, #4]
}
 8002002:	4618      	mov	r0, r3
 8002004:	3718      	adds	r7, #24
 8002006:	46bd      	mov	sp, r7
 8002008:	bd80      	pop	{r7, pc}

0800200a <_close>:
	}
	return len;
}

int _close(int file)
{
 800200a:	b480      	push	{r7}
 800200c:	b083      	sub	sp, #12
 800200e:	af00      	add	r7, sp, #0
 8002010:	6078      	str	r0, [r7, #4]
	return -1;
 8002012:	f04f 33ff 	mov.w	r3, #4294967295
}
 8002016:	4618      	mov	r0, r3
 8002018:	370c      	adds	r7, #12
 800201a:	46bd      	mov	sp, r7
 800201c:	f85d 7b04 	ldr.w	r7, [sp], #4
 8002020:	4770      	bx	lr

08002022 <_fstat>:


int _fstat(int file, struct stat *st)
{
 8002022:	b480      	push	{r7}
 8002024:	b083      	sub	sp, #12
 8002026:	af00      	add	r7, sp, #0
 8002028:	6078      	str	r0, [r7, #4]
 800202a:	6039      	str	r1, [r7, #0]
	st->st_mode = S_IFCHR;
 800202c:	683b      	ldr	r3, [r7, #0]
 800202e:	f44f 5200 	mov.w	r2, #8192	; 0x2000
 8002032:	605a      	str	r2, [r3, #4]
	return 0;
 8002034:	2300      	movs	r3, #0
}
 8002036:	4618      	mov	r0, r3
 8002038:	370c      	adds	r7, #12
 800203a:	46bd      	mov	sp, r7
 800203c:	f85d 7b04 	ldr.w	r7, [sp], #4
 8002040:	4770      	bx	lr

08002042 <_isatty>:

int _isatty(int file)
{
 8002042:	b480      	push	{r7}
 8002044:	b083      	sub	sp, #12
 8002046:	af00      	add	r7, sp, #0
 8002048:	6078      	str	r0, [r7, #4]
	return 1;
 800204a:	2301      	movs	r3, #1
}
 800204c:	4618      	mov	r0, r3
 800204e:	370c      	adds	r7, #12
 8002050:	46bd      	mov	sp, r7
 8002052:	f85d 7b04 	ldr.w	r7, [sp], #4
 8002056:	4770      	bx	lr

08002058 <_lseek>:

int _lseek(int file, int ptr, int dir)
{
 8002058:	b480      	push	{r7}
 800205a:	b085      	sub	sp, #20
 800205c:	af00      	add	r7, sp, #0
 800205e:	60f8      	str	r0, [r7, #12]
 8002060:	60b9      	str	r1, [r7, #8]
 8002062:	607a      	str	r2, [r7, #4]
	return 0;
 8002064:	2300      	movs	r3, #0
}
 8002066:	4618      	mov	r0, r3
 8002068:	3714      	adds	r7, #20
 800206a:	46bd      	mov	sp, r7
 800206c:	f85d 7b04 	ldr.w	r7, [sp], #4
 8002070:	4770      	bx	lr
	...

08002074 <_sbrk>:
 *
 * @param incr Memory size
 * @return Pointer to allocated memory
 */
void *_sbrk(ptrdiff_t incr)
{
 8002074:	b580      	push	{r7, lr}
 8002076:	b086      	sub	sp, #24
 8002078:	af00      	add	r7, sp, #0
 800207a:	6078      	str	r0, [r7, #4]
  extern uint8_t _end; /* Symbol defined in the linker script */
  extern uint8_t _estack; /* Symbol defined in the linker script */
  extern uint32_t _Min_Stack_Size; /* Symbol defined in the linker script */
  const uint32_t stack_limit = (uint32_t)&_estack - (uint32_t)&_Min_Stack_Size;
 800207c:	4a14      	ldr	r2, [pc, #80]	; (80020d0 <_sbrk+0x5c>)
 800207e:	4b15      	ldr	r3, [pc, #84]	; (80020d4 <_sbrk+0x60>)
 8002080:	1ad3      	subs	r3, r2, r3
 8002082:	617b      	str	r3, [r7, #20]
  const uint8_t *max_heap = (uint8_t *)stack_limit;
 8002084:	697b      	ldr	r3, [r7, #20]
 8002086:	613b      	str	r3, [r7, #16]
  uint8_t *prev_heap_end;

  /* Initialize heap end at first call */
  if (NULL == __sbrk_heap_end)
 8002088:	4b13      	ldr	r3, [pc, #76]	; (80020d8 <_sbrk+0x64>)
 800208a:	681b      	ldr	r3, [r3, #0]
 800208c:	2b00      	cmp	r3, #0
 800208e:	d102      	bne.n	8002096 <_sbrk+0x22>
  {
    __sbrk_heap_end = &_end;
 8002090:	4b11      	ldr	r3, [pc, #68]	; (80020d8 <_sbrk+0x64>)
 8002092:	4a12      	ldr	r2, [pc, #72]	; (80020dc <_sbrk+0x68>)
 8002094:	601a      	str	r2, [r3, #0]
  }

  /* Protect heap from growing into the reserved MSP stack */
  if (__sbrk_heap_end + incr > max_heap)
 8002096:	4b10      	ldr	r3, [pc, #64]	; (80020d8 <_sbrk+0x64>)
 8002098:	681a      	ldr	r2, [r3, #0]
 800209a:	687b      	ldr	r3, [r7, #4]
 800209c:	4413      	add	r3, r2
 800209e:	693a      	ldr	r2, [r7, #16]
 80020a0:	429a      	cmp	r2, r3
 80020a2:	d207      	bcs.n	80020b4 <_sbrk+0x40>
  {
    errno = ENOMEM;
 80020a4:	f003 fb44 	bl	8005730 <__errno>
 80020a8:	4603      	mov	r3, r0
 80020aa:	220c      	movs	r2, #12
 80020ac:	601a      	str	r2, [r3, #0]
    return (void *)-1;
 80020ae:	f04f 33ff 	mov.w	r3, #4294967295
 80020b2:	e009      	b.n	80020c8 <_sbrk+0x54>
  }

  prev_heap_end = __sbrk_heap_end;
 80020b4:	4b08      	ldr	r3, [pc, #32]	; (80020d8 <_sbrk+0x64>)
 80020b6:	681b      	ldr	r3, [r3, #0]
 80020b8:	60fb      	str	r3, [r7, #12]
  __sbrk_heap_end += incr;
 80020ba:	4b07      	ldr	r3, [pc, #28]	; (80020d8 <_sbrk+0x64>)
 80020bc:	681a      	ldr	r2, [r3, #0]
 80020be:	687b      	ldr	r3, [r7, #4]
 80020c0:	4413      	add	r3, r2
 80020c2:	4a05      	ldr	r2, [pc, #20]	; (80020d8 <_sbrk+0x64>)
 80020c4:	6013      	str	r3, [r2, #0]

  return (void *)prev_heap_end;
 80020c6:	68fb      	ldr	r3, [r7, #12]
}
 80020c8:	4618      	mov	r0, r3
 80020ca:	3718      	adds	r7, #24
 80020cc:	46bd      	mov	sp, r7
 80020ce:	bd80      	pop	{r7, pc}
 80020d0:	20003000 	.word	0x20003000
 80020d4:	00000400 	.word	0x00000400
 80020d8:	20000238 	.word	0x20000238
 80020dc:	200005b8 	.word	0x200005b8

080020e0 <SystemInit>:
  * @brief  Setup the microcontroller system
  * @param  None
  * @retval None
  */
void SystemInit(void)
{
 80020e0:	b480      	push	{r7}
 80020e2:	af00      	add	r7, sp, #0
/* FPU settings --------------------------------------------------------------*/
#if (__FPU_PRESENT == 1) && (__FPU_USED == 1)
  SCB->CPACR |= ((3UL << 10*2)|(3UL << 11*2));  /* set CP10 and CP11 Full Access */
 80020e4:	4b06      	ldr	r3, [pc, #24]	; (8002100 <SystemInit+0x20>)
 80020e6:	f8d3 3088 	ldr.w	r3, [r3, #136]	; 0x88
 80020ea:	4a05      	ldr	r2, [pc, #20]	; (8002100 <SystemInit+0x20>)
 80020ec:	f443 0370 	orr.w	r3, r3, #15728640	; 0xf00000
 80020f0:	f8c2 3088 	str.w	r3, [r2, #136]	; 0x88

  /* Configure the Vector Table location -------------------------------------*/
#if defined(USER_VECT_TAB_ADDRESS)
  SCB->VTOR = VECT_TAB_BASE_ADDRESS | VECT_TAB_OFFSET; /* Vector Table Relocation in Internal SRAM */
#endif /* USER_VECT_TAB_ADDRESS */
}
 80020f4:	bf00      	nop
 80020f6:	46bd      	mov	sp, r7
 80020f8:	f85d 7b04 	ldr.w	r7, [sp], #4
 80020fc:	4770      	bx	lr
 80020fe:	bf00      	nop
 8002100:	e000ed00 	.word	0xe000ed00

08002104 <Reset_Handler>:

    .section	.text.Reset_Handler
	.weak	Reset_Handler
	.type	Reset_Handler, %function
Reset_Handler:
  ldr   sp, =_estack    /* Atollic update: set stack pointer */
 8002104:	f8df d034 	ldr.w	sp, [pc, #52]	; 800213c <LoopForever+0x2>
  
/* Call the clock system initialization function.*/
    bl  SystemInit
 8002108:	f7ff ffea 	bl	80020e0 <SystemInit>

/* Copy the data segment initializers from flash to SRAM */
  ldr r0, =_sdata
 800210c:	480c      	ldr	r0, [pc, #48]	; (8002140 <LoopForever+0x6>)
  ldr r1, =_edata
 800210e:	490d      	ldr	r1, [pc, #52]	; (8002144 <LoopForever+0xa>)
  ldr r2, =_sidata
 8002110:	4a0d      	ldr	r2, [pc, #52]	; (8002148 <LoopForever+0xe>)
  movs r3, #0
 8002112:	2300      	movs	r3, #0
  b LoopCopyDataInit
 8002114:	e002      	b.n	800211c <LoopCopyDataInit>

08002116 <CopyDataInit>:

CopyDataInit:
  ldr r4, [r2, r3]
 8002116:	58d4      	ldr	r4, [r2, r3]
  str r4, [r0, r3]
 8002118:	50c4      	str	r4, [r0, r3]
  adds r3, r3, #4
 800211a:	3304      	adds	r3, #4

0800211c <LoopCopyDataInit>:

LoopCopyDataInit:
  adds r4, r0, r3
 800211c:	18c4      	adds	r4, r0, r3
  cmp r4, r1
 800211e:	428c      	cmp	r4, r1
  bcc CopyDataInit
 8002120:	d3f9      	bcc.n	8002116 <CopyDataInit>
  
/* Zero fill the bss segment. */
  ldr r2, =_sbss
 8002122:	4a0a      	ldr	r2, [pc, #40]	; (800214c <LoopForever+0x12>)
  ldr r4, =_ebss
 8002124:	4c0a      	ldr	r4, [pc, #40]	; (8002150 <LoopForever+0x16>)
  movs r3, #0
 8002126:	2300      	movs	r3, #0
  b LoopFillZerobss
 8002128:	e001      	b.n	800212e <LoopFillZerobss>

0800212a <FillZerobss>:

FillZerobss:
  str  r3, [r2]
 800212a:	6013      	str	r3, [r2, #0]
  adds r2, r2, #4
 800212c:	3204      	adds	r2, #4

0800212e <LoopFillZerobss>:

LoopFillZerobss:
  cmp r2, r4
 800212e:	42a2      	cmp	r2, r4
  bcc FillZerobss
 8002130:	d3fb      	bcc.n	800212a <FillZerobss>

/* Call static constructors */
    bl __libc_init_array
 8002132:	f003 fb03 	bl	800573c <__libc_init_array>
/* Call the application's entry point.*/
	bl	main
 8002136:	f7ff f8b1 	bl	800129c <main>

0800213a <LoopForever>:

LoopForever:
    b LoopForever
 800213a:	e7fe      	b.n	800213a <LoopForever>
  ldr   sp, =_estack    /* Atollic update: set stack pointer */
 800213c:	20003000 	.word	0x20003000
  ldr r0, =_sdata
 8002140:	20000000 	.word	0x20000000
  ldr r1, =_edata
 8002144:	200001ec 	.word	0x200001ec
  ldr r2, =_sidata
 8002148:	0800b648 	.word	0x0800b648
  ldr r2, =_sbss
 800214c:	200001f0 	.word	0x200001f0
  ldr r4, =_ebss
 8002150:	200005b8 	.word	0x200005b8

08002154 <ADC1_2_IRQHandler>:
 * @retval : None
*/
    .section	.text.Default_Handler,"ax",%progbits
Default_Handler:
Infinite_Loop:
	b	Infinite_Loop
 8002154:	e7fe      	b.n	8002154 <ADC1_2_IRQHandler>
	...

08002158 <HAL_Init>:
  *         In the default implementation,Systick is used as source of time base.
  *       The tick variable is incremented each 1ms in its ISR.
  * @retval HAL status
  */
HAL_StatusTypeDef HAL_Init(void)
{
 8002158:	b580      	push	{r7, lr}
 800215a:	af00      	add	r7, sp, #0
  /* Configure Flash prefetch */
#if (PREFETCH_ENABLE != 0U)
  __HAL_FLASH_PREFETCH_BUFFER_ENABLE();
 800215c:	4b08      	ldr	r3, [pc, #32]	; (8002180 <HAL_Init+0x28>)
 800215e:	681b      	ldr	r3, [r3, #0]
 8002160:	4a07      	ldr	r2, [pc, #28]	; (8002180 <HAL_Init+0x28>)
 8002162:	f043 0310 	orr.w	r3, r3, #16
 8002166:	6013      	str	r3, [r2, #0]
#endif /* PREFETCH_ENABLE */

  /* Set Interrupt Group Priority */
  HAL_NVIC_SetPriorityGrouping(NVIC_PRIORITYGROUP_4);
 8002168:	2003      	movs	r0, #3
 800216a:	f000 f931 	bl	80023d0 <HAL_NVIC_SetPriorityGrouping>

  /* Enable systick and configure 1ms tick (default clock after Reset is HSI) */
  HAL_InitTick(TICK_INT_PRIORITY);
 800216e:	200f      	movs	r0, #15
 8002170:	f000 f808 	bl	8002184 <HAL_InitTick>

  /* Init the low level hardware */
  HAL_MspInit();
 8002174:	f7ff fde8 	bl	8001d48 <HAL_MspInit>

  /* Return function status */
  return HAL_OK;
 8002178:	2300      	movs	r3, #0
}
 800217a:	4618      	mov	r0, r3
 800217c:	bd80      	pop	{r7, pc}
 800217e:	bf00      	nop
 8002180:	40022000 	.word	0x40022000

08002184 <HAL_InitTick>:
  *         implementation  in user file.
  * @param TickPriority Tick interrupt priority.
  * @retval HAL status
  */
__weak HAL_StatusTypeDef HAL_InitTick(uint32_t TickPriority)
{
 8002184:	b580      	push	{r7, lr}
 8002186:	b082      	sub	sp, #8
 8002188:	af00      	add	r7, sp, #0
 800218a:	6078      	str	r0, [r7, #4]
  /* Configure the SysTick to have interrupt in 1ms time basis*/
  if (HAL_SYSTICK_Config(SystemCoreClock / (1000U / uwTickFreq)) > 0U)
 800218c:	4b12      	ldr	r3, [pc, #72]	; (80021d8 <HAL_InitTick+0x54>)
 800218e:	681a      	ldr	r2, [r3, #0]
 8002190:	4b12      	ldr	r3, [pc, #72]	; (80021dc <HAL_InitTick+0x58>)
 8002192:	781b      	ldrb	r3, [r3, #0]
 8002194:	4619      	mov	r1, r3
 8002196:	f44f 737a 	mov.w	r3, #1000	; 0x3e8
 800219a:	fbb3 f3f1 	udiv	r3, r3, r1
 800219e:	fbb2 f3f3 	udiv	r3, r2, r3
 80021a2:	4618      	mov	r0, r3
 80021a4:	f000 f93b 	bl	800241e <HAL_SYSTICK_Config>
 80021a8:	4603      	mov	r3, r0
 80021aa:	2b00      	cmp	r3, #0
 80021ac:	d001      	beq.n	80021b2 <HAL_InitTick+0x2e>
  {
    return HAL_ERROR;
 80021ae:	2301      	movs	r3, #1
 80021b0:	e00e      	b.n	80021d0 <HAL_InitTick+0x4c>
  }

  /* Configure the SysTick IRQ priority */
  if (TickPriority < (1UL << __NVIC_PRIO_BITS))
 80021b2:	687b      	ldr	r3, [r7, #4]
 80021b4:	2b0f      	cmp	r3, #15
 80021b6:	d80a      	bhi.n	80021ce <HAL_InitTick+0x4a>
  {
    HAL_NVIC_SetPriority(SysTick_IRQn, TickPriority, 0U);
 80021b8:	2200      	movs	r2, #0
 80021ba:	6879      	ldr	r1, [r7, #4]
 80021bc:	f04f 30ff 	mov.w	r0, #4294967295
 80021c0:	f000 f911 	bl	80023e6 <HAL_NVIC_SetPriority>
    uwTickPrio = TickPriority;
 80021c4:	4a06      	ldr	r2, [pc, #24]	; (80021e0 <HAL_InitTick+0x5c>)
 80021c6:	687b      	ldr	r3, [r7, #4]
 80021c8:	6013      	str	r3, [r2, #0]
  else
  {
    return HAL_ERROR;
  }
   /* Return function status */
  return HAL_OK;
 80021ca:	2300      	movs	r3, #0
 80021cc:	e000      	b.n	80021d0 <HAL_InitTick+0x4c>
    return HAL_ERROR;
 80021ce:	2301      	movs	r3, #1
}
 80021d0:	4618      	mov	r0, r3
 80021d2:	3708      	adds	r7, #8
 80021d4:	46bd      	mov	sp, r7
 80021d6:	bd80      	pop	{r7, pc}
 80021d8:	20000008 	.word	0x20000008
 80021dc:	20000010 	.word	0x20000010
 80021e0:	2000000c 	.word	0x2000000c

080021e4 <HAL_IncTick>:
  * @note This function is declared as __weak to be overwritten in case of other 
  *         implementations  in user file.
  * @retval None
  */
__weak void HAL_IncTick(void)
{
 80021e4:	b480      	push	{r7}
 80021e6:	af00      	add	r7, sp, #0
  uwTick += uwTickFreq;
 80021e8:	4b06      	ldr	r3, [pc, #24]	; (8002204 <HAL_IncTick+0x20>)
 80021ea:	781b      	ldrb	r3, [r3, #0]
 80021ec:	461a      	mov	r2, r3
 80021ee:	4b06      	ldr	r3, [pc, #24]	; (8002208 <HAL_IncTick+0x24>)
 80021f0:	681b      	ldr	r3, [r3, #0]
 80021f2:	4413      	add	r3, r2
 80021f4:	4a04      	ldr	r2, [pc, #16]	; (8002208 <HAL_IncTick+0x24>)
 80021f6:	6013      	str	r3, [r2, #0]
}
 80021f8:	bf00      	nop
 80021fa:	46bd      	mov	sp, r7
 80021fc:	f85d 7b04 	ldr.w	r7, [sp], #4
 8002200:	4770      	bx	lr
 8002202:	bf00      	nop
 8002204:	20000010 	.word	0x20000010
 8002208:	200005a4 	.word	0x200005a4

0800220c <HAL_GetTick>:
  * @note   The function is declared as __Weak  to be overwritten  in case of other 
  *         implementations  in user file.
  * @retval tick value
  */
__weak uint32_t HAL_GetTick(void)
{
 800220c:	b480      	push	{r7}
 800220e:	af00      	add	r7, sp, #0
  return uwTick;  
 8002210:	4b03      	ldr	r3, [pc, #12]	; (8002220 <HAL_GetTick+0x14>)
 8002212:	681b      	ldr	r3, [r3, #0]
}
 8002214:	4618      	mov	r0, r3
 8002216:	46bd      	mov	sp, r7
 8002218:	f85d 7b04 	ldr.w	r7, [sp], #4
 800221c:	4770      	bx	lr
 800221e:	bf00      	nop
 8002220:	200005a4 	.word	0x200005a4

08002224 <HAL_Delay>:
  *         implementations  in user file.
  * @param  Delay specifies the delay time length, in milliseconds.
  * @retval None
  */
__weak void HAL_Delay(uint32_t Delay)
{
 8002224:	b580      	push	{r7, lr}
 8002226:	b084      	sub	sp, #16
 8002228:	af00      	add	r7, sp, #0
 800222a:	6078      	str	r0, [r7, #4]
  uint32_t tickstart = HAL_GetTick();
 800222c:	f7ff ffee 	bl	800220c <HAL_GetTick>
 8002230:	60b8      	str	r0, [r7, #8]
  uint32_t wait = Delay;
 8002232:	687b      	ldr	r3, [r7, #4]
 8002234:	60fb      	str	r3, [r7, #12]
  
  /* Add freq to guarantee minimum wait */
  if (wait < HAL_MAX_DELAY)
 8002236:	68fb      	ldr	r3, [r7, #12]
 8002238:	f1b3 3fff 	cmp.w	r3, #4294967295
 800223c:	d005      	beq.n	800224a <HAL_Delay+0x26>
  {
    wait += (uint32_t)(uwTickFreq);
 800223e:	4b0a      	ldr	r3, [pc, #40]	; (8002268 <HAL_Delay+0x44>)
 8002240:	781b      	ldrb	r3, [r3, #0]
 8002242:	461a      	mov	r2, r3
 8002244:	68fb      	ldr	r3, [r7, #12]
 8002246:	4413      	add	r3, r2
 8002248:	60fb      	str	r3, [r7, #12]
  }
  
  while((HAL_GetTick() - tickstart) < wait)
 800224a:	bf00      	nop
 800224c:	f7ff ffde 	bl	800220c <HAL_GetTick>
 8002250:	4602      	mov	r2, r0
 8002252:	68bb      	ldr	r3, [r7, #8]
 8002254:	1ad3      	subs	r3, r2, r3
 8002256:	68fa      	ldr	r2, [r7, #12]
 8002258:	429a      	cmp	r2, r3
 800225a:	d8f7      	bhi.n	800224c <HAL_Delay+0x28>
  {
  }
}
 800225c:	bf00      	nop
 800225e:	bf00      	nop
 8002260:	3710      	adds	r7, #16
 8002262:	46bd      	mov	sp, r7
 8002264:	bd80      	pop	{r7, pc}
 8002266:	bf00      	nop
 8002268:	20000010 	.word	0x20000010

0800226c <__NVIC_SetPriorityGrouping>:
{
 800226c:	b480      	push	{r7}
 800226e:	b085      	sub	sp, #20
 8002270:	af00      	add	r7, sp, #0
 8002272:	6078      	str	r0, [r7, #4]
  uint32_t PriorityGroupTmp = (PriorityGroup & (uint32_t)0x07UL);             /* only values 0..7 are used          */
 8002274:	687b      	ldr	r3, [r7, #4]
 8002276:	f003 0307 	and.w	r3, r3, #7
 800227a:	60fb      	str	r3, [r7, #12]
  reg_value  =  SCB->AIRCR;                                                   /* read old register configuration    */
 800227c:	4b0c      	ldr	r3, [pc, #48]	; (80022b0 <__NVIC_SetPriorityGrouping+0x44>)
 800227e:	68db      	ldr	r3, [r3, #12]
 8002280:	60bb      	str	r3, [r7, #8]
  reg_value &= ~((uint32_t)(SCB_AIRCR_VECTKEY_Msk | SCB_AIRCR_PRIGROUP_Msk)); /* clear bits to change               */
 8002282:	68ba      	ldr	r2, [r7, #8]
 8002284:	f64f 03ff 	movw	r3, #63743	; 0xf8ff
 8002288:	4013      	ands	r3, r2
 800228a:	60bb      	str	r3, [r7, #8]
                (PriorityGroupTmp << SCB_AIRCR_PRIGROUP_Pos)  );              /* Insert write key and priority group */
 800228c:	68fb      	ldr	r3, [r7, #12]
 800228e:	021a      	lsls	r2, r3, #8
                ((uint32_t)0x5FAUL << SCB_AIRCR_VECTKEY_Pos) |
 8002290:	68bb      	ldr	r3, [r7, #8]
 8002292:	4313      	orrs	r3, r2
  reg_value  =  (reg_value                                   |
 8002294:	f043 63bf 	orr.w	r3, r3, #100139008	; 0x5f80000
 8002298:	f443 3300 	orr.w	r3, r3, #131072	; 0x20000
 800229c:	60bb      	str	r3, [r7, #8]
  SCB->AIRCR =  reg_value;
 800229e:	4a04      	ldr	r2, [pc, #16]	; (80022b0 <__NVIC_SetPriorityGrouping+0x44>)
 80022a0:	68bb      	ldr	r3, [r7, #8]
 80022a2:	60d3      	str	r3, [r2, #12]
}
 80022a4:	bf00      	nop
 80022a6:	3714      	adds	r7, #20
 80022a8:	46bd      	mov	sp, r7
 80022aa:	f85d 7b04 	ldr.w	r7, [sp], #4
 80022ae:	4770      	bx	lr
 80022b0:	e000ed00 	.word	0xe000ed00

080022b4 <__NVIC_GetPriorityGrouping>:
{
 80022b4:	b480      	push	{r7}
 80022b6:	af00      	add	r7, sp, #0
  return ((uint32_t)((SCB->AIRCR & SCB_AIRCR_PRIGROUP_Msk) >> SCB_AIRCR_PRIGROUP_Pos));
 80022b8:	4b04      	ldr	r3, [pc, #16]	; (80022cc <__NVIC_GetPriorityGrouping+0x18>)
 80022ba:	68db      	ldr	r3, [r3, #12]
 80022bc:	0a1b      	lsrs	r3, r3, #8
 80022be:	f003 0307 	and.w	r3, r3, #7
}
 80022c2:	4618      	mov	r0, r3
 80022c4:	46bd      	mov	sp, r7
 80022c6:	f85d 7b04 	ldr.w	r7, [sp], #4
 80022ca:	4770      	bx	lr
 80022cc:	e000ed00 	.word	0xe000ed00

080022d0 <__NVIC_SetPriority>:
{
 80022d0:	b480      	push	{r7}
 80022d2:	b083      	sub	sp, #12
 80022d4:	af00      	add	r7, sp, #0
 80022d6:	4603      	mov	r3, r0
 80022d8:	6039      	str	r1, [r7, #0]
 80022da:	71fb      	strb	r3, [r7, #7]
  if ((int32_t)(IRQn) >= 0)
 80022dc:	f997 3007 	ldrsb.w	r3, [r7, #7]
 80022e0:	2b00      	cmp	r3, #0
 80022e2:	db0a      	blt.n	80022fa <__NVIC_SetPriority+0x2a>
    NVIC->IP[((uint32_t)IRQn)]               = (uint8_t)((priority << (8U - __NVIC_PRIO_BITS)) & (uint32_t)0xFFUL);
 80022e4:	683b      	ldr	r3, [r7, #0]
 80022e6:	b2da      	uxtb	r2, r3
 80022e8:	490c      	ldr	r1, [pc, #48]	; (800231c <__NVIC_SetPriority+0x4c>)
 80022ea:	f997 3007 	ldrsb.w	r3, [r7, #7]
 80022ee:	0112      	lsls	r2, r2, #4
 80022f0:	b2d2      	uxtb	r2, r2
 80022f2:	440b      	add	r3, r1
 80022f4:	f883 2300 	strb.w	r2, [r3, #768]	; 0x300
}
 80022f8:	e00a      	b.n	8002310 <__NVIC_SetPriority+0x40>
    SCB->SHP[(((uint32_t)IRQn) & 0xFUL)-4UL] = (uint8_t)((priority << (8U - __NVIC_PRIO_BITS)) & (uint32_t)0xFFUL);
 80022fa:	683b      	ldr	r3, [r7, #0]
 80022fc:	b2da      	uxtb	r2, r3
 80022fe:	4908      	ldr	r1, [pc, #32]	; (8002320 <__NVIC_SetPriority+0x50>)
 8002300:	79fb      	ldrb	r3, [r7, #7]
 8002302:	f003 030f 	and.w	r3, r3, #15
 8002306:	3b04      	subs	r3, #4
 8002308:	0112      	lsls	r2, r2, #4
 800230a:	b2d2      	uxtb	r2, r2
 800230c:	440b      	add	r3, r1
 800230e:	761a      	strb	r2, [r3, #24]
}
 8002310:	bf00      	nop
 8002312:	370c      	adds	r7, #12
 8002314:	46bd      	mov	sp, r7
 8002316:	f85d 7b04 	ldr.w	r7, [sp], #4
 800231a:	4770      	bx	lr
 800231c:	e000e100 	.word	0xe000e100
 8002320:	e000ed00 	.word	0xe000ed00

08002324 <NVIC_EncodePriority>:
{
 8002324:	b480      	push	{r7}
 8002326:	b089      	sub	sp, #36	; 0x24
 8002328:	af00      	add	r7, sp, #0
 800232a:	60f8      	str	r0, [r7, #12]
 800232c:	60b9      	str	r1, [r7, #8]
 800232e:	607a      	str	r2, [r7, #4]
  uint32_t PriorityGroupTmp = (PriorityGroup & (uint32_t)0x07UL);   /* only values 0..7 are used          */
 8002330:	68fb      	ldr	r3, [r7, #12]
 8002332:	f003 0307 	and.w	r3, r3, #7
 8002336:	61fb      	str	r3, [r7, #28]
  PreemptPriorityBits = ((7UL - PriorityGroupTmp) > (uint32_t)(__NVIC_PRIO_BITS)) ? (uint32_t)(__NVIC_PRIO_BITS) : (uint32_t)(7UL - PriorityGroupTmp);
 8002338:	69fb      	ldr	r3, [r7, #28]
 800233a:	f1c3 0307 	rsb	r3, r3, #7
 800233e:	2b04      	cmp	r3, #4
 8002340:	bf28      	it	cs
 8002342:	2304      	movcs	r3, #4
 8002344:	61bb      	str	r3, [r7, #24]
  SubPriorityBits     = ((PriorityGroupTmp + (uint32_t)(__NVIC_PRIO_BITS)) < (uint32_t)7UL) ? (uint32_t)0UL : (uint32_t)((PriorityGroupTmp - 7UL) + (uint32_t)(__NVIC_PRIO_BITS));
 8002346:	69fb      	ldr	r3, [r7, #28]
 8002348:	3304      	adds	r3, #4
 800234a:	2b06      	cmp	r3, #6
 800234c:	d902      	bls.n	8002354 <NVIC_EncodePriority+0x30>
 800234e:	69fb      	ldr	r3, [r7, #28]
 8002350:	3b03      	subs	r3, #3
 8002352:	e000      	b.n	8002356 <NVIC_EncodePriority+0x32>
 8002354:	2300      	movs	r3, #0
 8002356:	617b      	str	r3, [r7, #20]
           ((PreemptPriority & (uint32_t)((1UL << (PreemptPriorityBits)) - 1UL)) << SubPriorityBits) |
 8002358:	f04f 32ff 	mov.w	r2, #4294967295
 800235c:	69bb      	ldr	r3, [r7, #24]
 800235e:	fa02 f303 	lsl.w	r3, r2, r3
 8002362:	43da      	mvns	r2, r3
 8002364:	68bb      	ldr	r3, [r7, #8]
 8002366:	401a      	ands	r2, r3
 8002368:	697b      	ldr	r3, [r7, #20]
 800236a:	409a      	lsls	r2, r3
           ((SubPriority     & (uint32_t)((1UL << (SubPriorityBits    )) - 1UL)))
 800236c:	f04f 31ff 	mov.w	r1, #4294967295
 8002370:	697b      	ldr	r3, [r7, #20]
 8002372:	fa01 f303 	lsl.w	r3, r1, r3
 8002376:	43d9      	mvns	r1, r3
 8002378:	687b      	ldr	r3, [r7, #4]
 800237a:	400b      	ands	r3, r1
           ((PreemptPriority & (uint32_t)((1UL << (PreemptPriorityBits)) - 1UL)) << SubPriorityBits) |
 800237c:	4313      	orrs	r3, r2
}
 800237e:	4618      	mov	r0, r3
 8002380:	3724      	adds	r7, #36	; 0x24
 8002382:	46bd      	mov	sp, r7
 8002384:	f85d 7b04 	ldr.w	r7, [sp], #4
 8002388:	4770      	bx	lr
	...

0800238c <SysTick_Config>:
{
 800238c:	b580      	push	{r7, lr}
 800238e:	b082      	sub	sp, #8
 8002390:	af00      	add	r7, sp, #0
 8002392:	6078      	str	r0, [r7, #4]
  if ((ticks - 1UL) > SysTick_LOAD_RELOAD_Msk)
 8002394:	687b      	ldr	r3, [r7, #4]
 8002396:	3b01      	subs	r3, #1
 8002398:	f1b3 7f80 	cmp.w	r3, #16777216	; 0x1000000
 800239c:	d301      	bcc.n	80023a2 <SysTick_Config+0x16>
    return (1UL);                                                   /* Reload value impossible */
 800239e:	2301      	movs	r3, #1
 80023a0:	e00f      	b.n	80023c2 <SysTick_Config+0x36>
  SysTick->LOAD  = (uint32_t)(ticks - 1UL);                         /* set reload register */
 80023a2:	4a0a      	ldr	r2, [pc, #40]	; (80023cc <SysTick_Config+0x40>)
 80023a4:	687b      	ldr	r3, [r7, #4]
 80023a6:	3b01      	subs	r3, #1
 80023a8:	6053      	str	r3, [r2, #4]
  NVIC_SetPriority (SysTick_IRQn, (1UL << __NVIC_PRIO_BITS) - 1UL); /* set Priority for Systick Interrupt */
 80023aa:	210f      	movs	r1, #15
 80023ac:	f04f 30ff 	mov.w	r0, #4294967295
 80023b0:	f7ff ff8e 	bl	80022d0 <__NVIC_SetPriority>
  SysTick->VAL   = 0UL;                                             /* Load the SysTick Counter Value */
 80023b4:	4b05      	ldr	r3, [pc, #20]	; (80023cc <SysTick_Config+0x40>)
 80023b6:	2200      	movs	r2, #0
 80023b8:	609a      	str	r2, [r3, #8]
  SysTick->CTRL  = SysTick_CTRL_CLKSOURCE_Msk |
 80023ba:	4b04      	ldr	r3, [pc, #16]	; (80023cc <SysTick_Config+0x40>)
 80023bc:	2207      	movs	r2, #7
 80023be:	601a      	str	r2, [r3, #0]
  return (0UL);                                                     /* Function successful */
 80023c0:	2300      	movs	r3, #0
}
 80023c2:	4618      	mov	r0, r3
 80023c4:	3708      	adds	r7, #8
 80023c6:	46bd      	mov	sp, r7
 80023c8:	bd80      	pop	{r7, pc}
 80023ca:	bf00      	nop
 80023cc:	e000e010 	.word	0xe000e010

080023d0 <HAL_NVIC_SetPriorityGrouping>:
  * @note   When the NVIC_PriorityGroup_0 is selected, IRQ pre-emption is no more possible.
  *         The pending IRQ priority will be managed only by the subpriority.
  * @retval None
  */
void HAL_NVIC_SetPriorityGrouping(uint32_t PriorityGroup)
{
 80023d0:	b580      	push	{r7, lr}
 80023d2:	b082      	sub	sp, #8
 80023d4:	af00      	add	r7, sp, #0
 80023d6:	6078      	str	r0, [r7, #4]
  /* Check the parameters */
  assert_param(IS_NVIC_PRIORITY_GROUP(PriorityGroup));

  /* Set the PRIGROUP[10:8] bits according to the PriorityGroup parameter value */
  NVIC_SetPriorityGrouping(PriorityGroup);
 80023d8:	6878      	ldr	r0, [r7, #4]
 80023da:	f7ff ff47 	bl	800226c <__NVIC_SetPriorityGrouping>
}
 80023de:	bf00      	nop
 80023e0:	3708      	adds	r7, #8
 80023e2:	46bd      	mov	sp, r7
 80023e4:	bd80      	pop	{r7, pc}

080023e6 <HAL_NVIC_SetPriority>:
  *         This parameter can be a value between 0 and 15 as described in the table CORTEX_NVIC_Priority_Table
  *         A lower priority value indicates a higher priority.
  * @retval None
  */
void HAL_NVIC_SetPriority(IRQn_Type IRQn, uint32_t PreemptPriority, uint32_t SubPriority)
{
 80023e6:	b580      	push	{r7, lr}
 80023e8:	b086      	sub	sp, #24
 80023ea:	af00      	add	r7, sp, #0
 80023ec:	4603      	mov	r3, r0
 80023ee:	60b9      	str	r1, [r7, #8]
 80023f0:	607a      	str	r2, [r7, #4]
 80023f2:	73fb      	strb	r3, [r7, #15]
  uint32_t prioritygroup = 0x00U;
 80023f4:	2300      	movs	r3, #0
 80023f6:	617b      	str	r3, [r7, #20]
  
  /* Check the parameters */
  assert_param(IS_NVIC_SUB_PRIORITY(SubPriority));
  assert_param(IS_NVIC_PREEMPTION_PRIORITY(PreemptPriority));
  
  prioritygroup = NVIC_GetPriorityGrouping();
 80023f8:	f7ff ff5c 	bl	80022b4 <__NVIC_GetPriorityGrouping>
 80023fc:	6178      	str	r0, [r7, #20]
  
  NVIC_SetPriority(IRQn, NVIC_EncodePriority(prioritygroup, PreemptPriority, SubPriority));
 80023fe:	687a      	ldr	r2, [r7, #4]
 8002400:	68b9      	ldr	r1, [r7, #8]
 8002402:	6978      	ldr	r0, [r7, #20]
 8002404:	f7ff ff8e 	bl	8002324 <NVIC_EncodePriority>
 8002408:	4602      	mov	r2, r0
 800240a:	f997 300f 	ldrsb.w	r3, [r7, #15]
 800240e:	4611      	mov	r1, r2
 8002410:	4618      	mov	r0, r3
 8002412:	f7ff ff5d 	bl	80022d0 <__NVIC_SetPriority>
}
 8002416:	bf00      	nop
 8002418:	3718      	adds	r7, #24
 800241a:	46bd      	mov	sp, r7
 800241c:	bd80      	pop	{r7, pc}

0800241e <HAL_SYSTICK_Config>:
  * @param  TicksNumb Specifies the ticks Number of ticks between two interrupts.
  * @retval status:  - 0  Function succeeded.
  *                  - 1  Function failed.
  */
uint32_t HAL_SYSTICK_Config(uint32_t TicksNumb)
{
 800241e:	b580      	push	{r7, lr}
 8002420:	b082      	sub	sp, #8
 8002422:	af00      	add	r7, sp, #0
 8002424:	6078      	str	r0, [r7, #4]
   return SysTick_Config(TicksNumb);
 8002426:	6878      	ldr	r0, [r7, #4]
 8002428:	f7ff ffb0 	bl	800238c <SysTick_Config>
 800242c:	4603      	mov	r3, r0
}
 800242e:	4618      	mov	r0, r3
 8002430:	3708      	adds	r7, #8
 8002432:	46bd      	mov	sp, r7
 8002434:	bd80      	pop	{r7, pc}
	...

08002438 <HAL_GPIO_Init>:
  * @param  GPIO_Init pointer to a GPIO_InitTypeDef structure that contains
  *         the configuration information for the specified GPIO peripheral.
  * @retval None
  */
void HAL_GPIO_Init(GPIO_TypeDef  *GPIOx, GPIO_InitTypeDef *GPIO_Init)
{
 8002438:	b480      	push	{r7}
 800243a:	b087      	sub	sp, #28
 800243c:	af00      	add	r7, sp, #0
 800243e:	6078      	str	r0, [r7, #4]
 8002440:	6039      	str	r1, [r7, #0]
  uint32_t position = 0x00u;
 8002442:	2300      	movs	r3, #0
 8002444:	617b      	str	r3, [r7, #20]
  assert_param(IS_GPIO_ALL_INSTANCE(GPIOx));
  assert_param(IS_GPIO_PIN(GPIO_Init->Pin));
  assert_param(IS_GPIO_MODE(GPIO_Init->Mode));

  /* Configure the port pins */
  while (((GPIO_Init->Pin) >> position) != 0x00u)
 8002446:	e14e      	b.n	80026e6 <HAL_GPIO_Init+0x2ae>
  {
    /* Get current io position */
    iocurrent = (GPIO_Init->Pin) & (1uL << position);
 8002448:	683b      	ldr	r3, [r7, #0]
 800244a:	681a      	ldr	r2, [r3, #0]
 800244c:	2101      	movs	r1, #1
 800244e:	697b      	ldr	r3, [r7, #20]
 8002450:	fa01 f303 	lsl.w	r3, r1, r3
 8002454:	4013      	ands	r3, r2
 8002456:	60fb      	str	r3, [r7, #12]

    if (iocurrent != 0x00u)
 8002458:	68fb      	ldr	r3, [r7, #12]
 800245a:	2b00      	cmp	r3, #0
 800245c:	f000 8140 	beq.w	80026e0 <HAL_GPIO_Init+0x2a8>
    {
      /*--------------------- GPIO Mode Configuration ------------------------*/
      /* In case of Output or Alternate function mode selection */
      if(((GPIO_Init->Mode & GPIO_MODE) == MODE_OUTPUT) || ((GPIO_Init->Mode & GPIO_MODE) == MODE_AF))
 8002460:	683b      	ldr	r3, [r7, #0]
 8002462:	685b      	ldr	r3, [r3, #4]
 8002464:	f003 0303 	and.w	r3, r3, #3
 8002468:	2b01      	cmp	r3, #1
 800246a:	d005      	beq.n	8002478 <HAL_GPIO_Init+0x40>
 800246c:	683b      	ldr	r3, [r7, #0]
 800246e:	685b      	ldr	r3, [r3, #4]
 8002470:	f003 0303 	and.w	r3, r3, #3
 8002474:	2b02      	cmp	r3, #2
 8002476:	d130      	bne.n	80024da <HAL_GPIO_Init+0xa2>
      {
        /* Check the Speed parameter */
        assert_param(IS_GPIO_SPEED(GPIO_Init->Speed));
        /* Configure the IO Speed */
        temp = GPIOx->OSPEEDR;
 8002478:	687b      	ldr	r3, [r7, #4]
 800247a:	689b      	ldr	r3, [r3, #8]
 800247c:	613b      	str	r3, [r7, #16]
        temp &= ~(GPIO_OSPEEDER_OSPEEDR0 << (position * 2u));
 800247e:	697b      	ldr	r3, [r7, #20]
 8002480:	005b      	lsls	r3, r3, #1
 8002482:	2203      	movs	r2, #3
 8002484:	fa02 f303 	lsl.w	r3, r2, r3
 8002488:	43db      	mvns	r3, r3
 800248a:	693a      	ldr	r2, [r7, #16]
 800248c:	4013      	ands	r3, r2
 800248e:	613b      	str	r3, [r7, #16]
        temp |= (GPIO_Init->Speed << (position * 2u));
 8002490:	683b      	ldr	r3, [r7, #0]
 8002492:	68da      	ldr	r2, [r3, #12]
 8002494:	697b      	ldr	r3, [r7, #20]
 8002496:	005b      	lsls	r3, r3, #1
 8002498:	fa02 f303 	lsl.w	r3, r2, r3
 800249c:	693a      	ldr	r2, [r7, #16]
 800249e:	4313      	orrs	r3, r2
 80024a0:	613b      	str	r3, [r7, #16]
        GPIOx->OSPEEDR = temp;
 80024a2:	687b      	ldr	r3, [r7, #4]
 80024a4:	693a      	ldr	r2, [r7, #16]
 80024a6:	609a      	str	r2, [r3, #8]

        /* Configure the IO Output Type */
        temp = GPIOx->OTYPER;
 80024a8:	687b      	ldr	r3, [r7, #4]
 80024aa:	685b      	ldr	r3, [r3, #4]
 80024ac:	613b      	str	r3, [r7, #16]
        temp &= ~(GPIO_OTYPER_OT_0 << position) ;
 80024ae:	2201      	movs	r2, #1
 80024b0:	697b      	ldr	r3, [r7, #20]
 80024b2:	fa02 f303 	lsl.w	r3, r2, r3
 80024b6:	43db      	mvns	r3, r3
 80024b8:	693a      	ldr	r2, [r7, #16]
 80024ba:	4013      	ands	r3, r2
 80024bc:	613b      	str	r3, [r7, #16]
        temp |= (((GPIO_Init->Mode & OUTPUT_TYPE) >> OUTPUT_TYPE_Pos) << position);
 80024be:	683b      	ldr	r3, [r7, #0]
 80024c0:	685b      	ldr	r3, [r3, #4]
 80024c2:	091b      	lsrs	r3, r3, #4
 80024c4:	f003 0201 	and.w	r2, r3, #1
 80024c8:	697b      	ldr	r3, [r7, #20]
 80024ca:	fa02 f303 	lsl.w	r3, r2, r3
 80024ce:	693a      	ldr	r2, [r7, #16]
 80024d0:	4313      	orrs	r3, r2
 80024d2:	613b      	str	r3, [r7, #16]
        GPIOx->OTYPER = temp;
 80024d4:	687b      	ldr	r3, [r7, #4]
 80024d6:	693a      	ldr	r2, [r7, #16]
 80024d8:	605a      	str	r2, [r3, #4]
      }

      if((GPIO_Init->Mode & GPIO_MODE) != MODE_ANALOG)
 80024da:	683b      	ldr	r3, [r7, #0]
 80024dc:	685b      	ldr	r3, [r3, #4]
 80024de:	f003 0303 	and.w	r3, r3, #3
 80024e2:	2b03      	cmp	r3, #3
 80024e4:	d017      	beq.n	8002516 <HAL_GPIO_Init+0xde>
      {
        /* Check the Pull parameter */
        assert_param(IS_GPIO_PULL(GPIO_Init->Pull));

        /* Activate the Pull-up or Pull down resistor for the current IO */
        temp = GPIOx->PUPDR;
 80024e6:	687b      	ldr	r3, [r7, #4]
 80024e8:	68db      	ldr	r3, [r3, #12]
 80024ea:	613b      	str	r3, [r7, #16]
        temp &= ~(GPIO_PUPDR_PUPDR0 << (position * 2u));
 80024ec:	697b      	ldr	r3, [r7, #20]
 80024ee:	005b      	lsls	r3, r3, #1
 80024f0:	2203      	movs	r2, #3
 80024f2:	fa02 f303 	lsl.w	r3, r2, r3
 80024f6:	43db      	mvns	r3, r3
 80024f8:	693a      	ldr	r2, [r7, #16]
 80024fa:	4013      	ands	r3, r2
 80024fc:	613b      	str	r3, [r7, #16]
        temp |= ((GPIO_Init->Pull) << (position * 2u));
 80024fe:	683b      	ldr	r3, [r7, #0]
 8002500:	689a      	ldr	r2, [r3, #8]
 8002502:	697b      	ldr	r3, [r7, #20]
 8002504:	005b      	lsls	r3, r3, #1
 8002506:	fa02 f303 	lsl.w	r3, r2, r3
 800250a:	693a      	ldr	r2, [r7, #16]
 800250c:	4313      	orrs	r3, r2
 800250e:	613b      	str	r3, [r7, #16]
        GPIOx->PUPDR = temp;
 8002510:	687b      	ldr	r3, [r7, #4]
 8002512:	693a      	ldr	r2, [r7, #16]
 8002514:	60da      	str	r2, [r3, #12]
      }

      /*--------------------- GPIO Mode Configuration ------------------------*/
      /* In case of Alternate function mode selection */
      if((GPIO_Init->Mode & GPIO_MODE) == MODE_AF)
 8002516:	683b      	ldr	r3, [r7, #0]
 8002518:	685b      	ldr	r3, [r3, #4]
 800251a:	f003 0303 	and.w	r3, r3, #3
 800251e:	2b02      	cmp	r3, #2
 8002520:	d123      	bne.n	800256a <HAL_GPIO_Init+0x132>
        /* Check the Alternate function parameters */
        assert_param(IS_GPIO_AF_INSTANCE(GPIOx));
        assert_param(IS_GPIO_AF(GPIO_Init->Alternate));

        /* Configure Alternate function mapped with the current IO */
        temp = GPIOx->AFR[position >> 3u];
 8002522:	697b      	ldr	r3, [r7, #20]
 8002524:	08da      	lsrs	r2, r3, #3
 8002526:	687b      	ldr	r3, [r7, #4]
 8002528:	3208      	adds	r2, #8
 800252a:	f853 3022 	ldr.w	r3, [r3, r2, lsl #2]
 800252e:	613b      	str	r3, [r7, #16]
        temp &= ~(0xFu << ((position & 0x07u) * 4u));
 8002530:	697b      	ldr	r3, [r7, #20]
 8002532:	f003 0307 	and.w	r3, r3, #7
 8002536:	009b      	lsls	r3, r3, #2
 8002538:	220f      	movs	r2, #15
 800253a:	fa02 f303 	lsl.w	r3, r2, r3
 800253e:	43db      	mvns	r3, r3
 8002540:	693a      	ldr	r2, [r7, #16]
 8002542:	4013      	ands	r3, r2
 8002544:	613b      	str	r3, [r7, #16]
        temp |= ((GPIO_Init->Alternate) << ((position & 0x07u) * 4u));
 8002546:	683b      	ldr	r3, [r7, #0]
 8002548:	691a      	ldr	r2, [r3, #16]
 800254a:	697b      	ldr	r3, [r7, #20]
 800254c:	f003 0307 	and.w	r3, r3, #7
 8002550:	009b      	lsls	r3, r3, #2
 8002552:	fa02 f303 	lsl.w	r3, r2, r3
 8002556:	693a      	ldr	r2, [r7, #16]
 8002558:	4313      	orrs	r3, r2
 800255a:	613b      	str	r3, [r7, #16]
        GPIOx->AFR[position >> 3u] = temp;
 800255c:	697b      	ldr	r3, [r7, #20]
 800255e:	08da      	lsrs	r2, r3, #3
 8002560:	687b      	ldr	r3, [r7, #4]
 8002562:	3208      	adds	r2, #8
 8002564:	6939      	ldr	r1, [r7, #16]
 8002566:	f843 1022 	str.w	r1, [r3, r2, lsl #2]
      }

      /* Configure IO Direction mode (Input, Output, Alternate or Analog) */
      temp = GPIOx->MODER;
 800256a:	687b      	ldr	r3, [r7, #4]
 800256c:	681b      	ldr	r3, [r3, #0]
 800256e:	613b      	str	r3, [r7, #16]
      temp &= ~(GPIO_MODER_MODER0 << (position * 2u));
 8002570:	697b      	ldr	r3, [r7, #20]
 8002572:	005b      	lsls	r3, r3, #1
 8002574:	2203      	movs	r2, #3
 8002576:	fa02 f303 	lsl.w	r3, r2, r3
 800257a:	43db      	mvns	r3, r3
 800257c:	693a      	ldr	r2, [r7, #16]
 800257e:	4013      	ands	r3, r2
 8002580:	613b      	str	r3, [r7, #16]
      temp |= ((GPIO_Init->Mode & GPIO_MODE) << (position * 2u));
 8002582:	683b      	ldr	r3, [r7, #0]
 8002584:	685b      	ldr	r3, [r3, #4]
 8002586:	f003 0203 	and.w	r2, r3, #3
 800258a:	697b      	ldr	r3, [r7, #20]
 800258c:	005b      	lsls	r3, r3, #1
 800258e:	fa02 f303 	lsl.w	r3, r2, r3
 8002592:	693a      	ldr	r2, [r7, #16]
 8002594:	4313      	orrs	r3, r2
 8002596:	613b      	str	r3, [r7, #16]
      GPIOx->MODER = temp;
 8002598:	687b      	ldr	r3, [r7, #4]
 800259a:	693a      	ldr	r2, [r7, #16]
 800259c:	601a      	str	r2, [r3, #0]

      /*--------------------- EXTI Mode Configuration ------------------------*/
      /* Configure the External Interrupt or event for the current IO */
      if((GPIO_Init->Mode & EXTI_MODE) != 0x00u)
 800259e:	683b      	ldr	r3, [r7, #0]
 80025a0:	685b      	ldr	r3, [r3, #4]
 80025a2:	f403 3340 	and.w	r3, r3, #196608	; 0x30000
 80025a6:	2b00      	cmp	r3, #0
 80025a8:	f000 809a 	beq.w	80026e0 <HAL_GPIO_Init+0x2a8>
      {
        /* Enable SYSCFG Clock */
        __HAL_RCC_SYSCFG_CLK_ENABLE();
 80025ac:	4b55      	ldr	r3, [pc, #340]	; (8002704 <HAL_GPIO_Init+0x2cc>)
 80025ae:	699b      	ldr	r3, [r3, #24]
 80025b0:	4a54      	ldr	r2, [pc, #336]	; (8002704 <HAL_GPIO_Init+0x2cc>)
 80025b2:	f043 0301 	orr.w	r3, r3, #1
 80025b6:	6193      	str	r3, [r2, #24]
 80025b8:	4b52      	ldr	r3, [pc, #328]	; (8002704 <HAL_GPIO_Init+0x2cc>)
 80025ba:	699b      	ldr	r3, [r3, #24]
 80025bc:	f003 0301 	and.w	r3, r3, #1
 80025c0:	60bb      	str	r3, [r7, #8]
 80025c2:	68bb      	ldr	r3, [r7, #8]

        temp = SYSCFG->EXTICR[position >> 2u];
 80025c4:	4a50      	ldr	r2, [pc, #320]	; (8002708 <HAL_GPIO_Init+0x2d0>)
 80025c6:	697b      	ldr	r3, [r7, #20]
 80025c8:	089b      	lsrs	r3, r3, #2
 80025ca:	3302      	adds	r3, #2
 80025cc:	f852 3023 	ldr.w	r3, [r2, r3, lsl #2]
 80025d0:	613b      	str	r3, [r7, #16]
        temp &= ~(0x0FuL << (4u * (position & 0x03u)));
 80025d2:	697b      	ldr	r3, [r7, #20]
 80025d4:	f003 0303 	and.w	r3, r3, #3
 80025d8:	009b      	lsls	r3, r3, #2
 80025da:	220f      	movs	r2, #15
 80025dc:	fa02 f303 	lsl.w	r3, r2, r3
 80025e0:	43db      	mvns	r3, r3
 80025e2:	693a      	ldr	r2, [r7, #16]
 80025e4:	4013      	ands	r3, r2
 80025e6:	613b      	str	r3, [r7, #16]
        temp |= (GPIO_GET_INDEX(GPIOx) << (4u * (position & 0x03u)));
 80025e8:	687b      	ldr	r3, [r7, #4]
 80025ea:	f1b3 4f90 	cmp.w	r3, #1207959552	; 0x48000000
 80025ee:	d013      	beq.n	8002618 <HAL_GPIO_Init+0x1e0>
 80025f0:	687b      	ldr	r3, [r7, #4]
 80025f2:	4a46      	ldr	r2, [pc, #280]	; (800270c <HAL_GPIO_Init+0x2d4>)
 80025f4:	4293      	cmp	r3, r2
 80025f6:	d00d      	beq.n	8002614 <HAL_GPIO_Init+0x1dc>
 80025f8:	687b      	ldr	r3, [r7, #4]
 80025fa:	4a45      	ldr	r2, [pc, #276]	; (8002710 <HAL_GPIO_Init+0x2d8>)
 80025fc:	4293      	cmp	r3, r2
 80025fe:	d007      	beq.n	8002610 <HAL_GPIO_Init+0x1d8>
 8002600:	687b      	ldr	r3, [r7, #4]
 8002602:	4a44      	ldr	r2, [pc, #272]	; (8002714 <HAL_GPIO_Init+0x2dc>)
 8002604:	4293      	cmp	r3, r2
 8002606:	d101      	bne.n	800260c <HAL_GPIO_Init+0x1d4>
 8002608:	2303      	movs	r3, #3
 800260a:	e006      	b.n	800261a <HAL_GPIO_Init+0x1e2>
 800260c:	2305      	movs	r3, #5
 800260e:	e004      	b.n	800261a <HAL_GPIO_Init+0x1e2>
 8002610:	2302      	movs	r3, #2
 8002612:	e002      	b.n	800261a <HAL_GPIO_Init+0x1e2>
 8002614:	2301      	movs	r3, #1
 8002616:	e000      	b.n	800261a <HAL_GPIO_Init+0x1e2>
 8002618:	2300      	movs	r3, #0
 800261a:	697a      	ldr	r2, [r7, #20]
 800261c:	f002 0203 	and.w	r2, r2, #3
 8002620:	0092      	lsls	r2, r2, #2
 8002622:	4093      	lsls	r3, r2
 8002624:	693a      	ldr	r2, [r7, #16]
 8002626:	4313      	orrs	r3, r2
 8002628:	613b      	str	r3, [r7, #16]
        SYSCFG->EXTICR[position >> 2u] = temp;
 800262a:	4937      	ldr	r1, [pc, #220]	; (8002708 <HAL_GPIO_Init+0x2d0>)
 800262c:	697b      	ldr	r3, [r7, #20]
 800262e:	089b      	lsrs	r3, r3, #2
 8002630:	3302      	adds	r3, #2
 8002632:	693a      	ldr	r2, [r7, #16]
 8002634:	f841 2023 	str.w	r2, [r1, r3, lsl #2]

        /* Clear Rising Falling edge configuration */
        temp = EXTI->RTSR;
 8002638:	4b37      	ldr	r3, [pc, #220]	; (8002718 <HAL_GPIO_Init+0x2e0>)
 800263a:	689b      	ldr	r3, [r3, #8]
 800263c:	613b      	str	r3, [r7, #16]
        temp &= ~(iocurrent);
 800263e:	68fb      	ldr	r3, [r7, #12]
 8002640:	43db      	mvns	r3, r3
 8002642:	693a      	ldr	r2, [r7, #16]
 8002644:	4013      	ands	r3, r2
 8002646:	613b      	str	r3, [r7, #16]
        if((GPIO_Init->Mode & TRIGGER_RISING) != 0x00u)
 8002648:	683b      	ldr	r3, [r7, #0]
 800264a:	685b      	ldr	r3, [r3, #4]
 800264c:	f403 1380 	and.w	r3, r3, #1048576	; 0x100000
 8002650:	2b00      	cmp	r3, #0
 8002652:	d003      	beq.n	800265c <HAL_GPIO_Init+0x224>
        {
          temp |= iocurrent;
 8002654:	693a      	ldr	r2, [r7, #16]
 8002656:	68fb      	ldr	r3, [r7, #12]
 8002658:	4313      	orrs	r3, r2
 800265a:	613b      	str	r3, [r7, #16]
        }
        EXTI->RTSR = temp;
 800265c:	4a2e      	ldr	r2, [pc, #184]	; (8002718 <HAL_GPIO_Init+0x2e0>)
 800265e:	693b      	ldr	r3, [r7, #16]
 8002660:	6093      	str	r3, [r2, #8]

        temp = EXTI->FTSR;
 8002662:	4b2d      	ldr	r3, [pc, #180]	; (8002718 <HAL_GPIO_Init+0x2e0>)
 8002664:	68db      	ldr	r3, [r3, #12]
 8002666:	613b      	str	r3, [r7, #16]
        temp &= ~(iocurrent);
 8002668:	68fb      	ldr	r3, [r7, #12]
 800266a:	43db      	mvns	r3, r3
 800266c:	693a      	ldr	r2, [r7, #16]
 800266e:	4013      	ands	r3, r2
 8002670:	613b      	str	r3, [r7, #16]
        if((GPIO_Init->Mode & TRIGGER_FALLING) != 0x00u)
 8002672:	683b      	ldr	r3, [r7, #0]
 8002674:	685b      	ldr	r3, [r3, #4]
 8002676:	f403 1300 	and.w	r3, r3, #2097152	; 0x200000
 800267a:	2b00      	cmp	r3, #0
 800267c:	d003      	beq.n	8002686 <HAL_GPIO_Init+0x24e>
        {
          temp |= iocurrent;
 800267e:	693a      	ldr	r2, [r7, #16]
 8002680:	68fb      	ldr	r3, [r7, #12]
 8002682:	4313      	orrs	r3, r2
 8002684:	613b      	str	r3, [r7, #16]
        }
        EXTI->FTSR = temp;
 8002686:	4a24      	ldr	r2, [pc, #144]	; (8002718 <HAL_GPIO_Init+0x2e0>)
 8002688:	693b      	ldr	r3, [r7, #16]
 800268a:	60d3      	str	r3, [r2, #12]

        temp = EXTI->EMR;
 800268c:	4b22      	ldr	r3, [pc, #136]	; (8002718 <HAL_GPIO_Init+0x2e0>)
 800268e:	685b      	ldr	r3, [r3, #4]
 8002690:	613b      	str	r3, [r7, #16]
        temp &= ~(iocurrent);
 8002692:	68fb      	ldr	r3, [r7, #12]
 8002694:	43db      	mvns	r3, r3
 8002696:	693a      	ldr	r2, [r7, #16]
 8002698:	4013      	ands	r3, r2
 800269a:	613b      	str	r3, [r7, #16]
        if((GPIO_Init->Mode & EXTI_EVT) != 0x00u)
 800269c:	683b      	ldr	r3, [r7, #0]
 800269e:	685b      	ldr	r3, [r3, #4]
 80026a0:	f403 3300 	and.w	r3, r3, #131072	; 0x20000
 80026a4:	2b00      	cmp	r3, #0
 80026a6:	d003      	beq.n	80026b0 <HAL_GPIO_Init+0x278>
        {
          temp |= iocurrent;
 80026a8:	693a      	ldr	r2, [r7, #16]
 80026aa:	68fb      	ldr	r3, [r7, #12]
 80026ac:	4313      	orrs	r3, r2
 80026ae:	613b      	str	r3, [r7, #16]
        }
        EXTI->EMR = temp;
 80026b0:	4a19      	ldr	r2, [pc, #100]	; (8002718 <HAL_GPIO_Init+0x2e0>)
 80026b2:	693b      	ldr	r3, [r7, #16]
 80026b4:	6053      	str	r3, [r2, #4]

        /* Clear EXTI line configuration */
        temp = EXTI->IMR;
 80026b6:	4b18      	ldr	r3, [pc, #96]	; (8002718 <HAL_GPIO_Init+0x2e0>)
 80026b8:	681b      	ldr	r3, [r3, #0]
 80026ba:	613b      	str	r3, [r7, #16]
        temp &= ~(iocurrent);
 80026bc:	68fb      	ldr	r3, [r7, #12]
 80026be:	43db      	mvns	r3, r3
 80026c0:	693a      	ldr	r2, [r7, #16]
 80026c2:	4013      	ands	r3, r2
 80026c4:	613b      	str	r3, [r7, #16]
        if((GPIO_Init->Mode & EXTI_IT) != 0x00u)
 80026c6:	683b      	ldr	r3, [r7, #0]
 80026c8:	685b      	ldr	r3, [r3, #4]
 80026ca:	f403 3380 	and.w	r3, r3, #65536	; 0x10000
 80026ce:	2b00      	cmp	r3, #0
 80026d0:	d003      	beq.n	80026da <HAL_GPIO_Init+0x2a2>
        {
          temp |= iocurrent;
 80026d2:	693a      	ldr	r2, [r7, #16]
 80026d4:	68fb      	ldr	r3, [r7, #12]
 80026d6:	4313      	orrs	r3, r2
 80026d8:	613b      	str	r3, [r7, #16]
        }
        EXTI->IMR = temp;
 80026da:	4a0f      	ldr	r2, [pc, #60]	; (8002718 <HAL_GPIO_Init+0x2e0>)
 80026dc:	693b      	ldr	r3, [r7, #16]
 80026de:	6013      	str	r3, [r2, #0]
      }
    }

    position++;
 80026e0:	697b      	ldr	r3, [r7, #20]
 80026e2:	3301      	adds	r3, #1
 80026e4:	617b      	str	r3, [r7, #20]
  while (((GPIO_Init->Pin) >> position) != 0x00u)
 80026e6:	683b      	ldr	r3, [r7, #0]
 80026e8:	681a      	ldr	r2, [r3, #0]
 80026ea:	697b      	ldr	r3, [r7, #20]
 80026ec:	fa22 f303 	lsr.w	r3, r2, r3
 80026f0:	2b00      	cmp	r3, #0
 80026f2:	f47f aea9 	bne.w	8002448 <HAL_GPIO_Init+0x10>
  }
}
 80026f6:	bf00      	nop
 80026f8:	bf00      	nop
 80026fa:	371c      	adds	r7, #28
 80026fc:	46bd      	mov	sp, r7
 80026fe:	f85d 7b04 	ldr.w	r7, [sp], #4
 8002702:	4770      	bx	lr
 8002704:	40021000 	.word	0x40021000
 8002708:	40010000 	.word	0x40010000
 800270c:	48000400 	.word	0x48000400
 8002710:	48000800 	.word	0x48000800
 8002714:	48000c00 	.word	0x48000c00
 8002718:	40010400 	.word	0x40010400

0800271c <HAL_GPIO_ReadPin>:
  * @param  GPIO_Pin specifies the port bit to read.
  *         This parameter can be GPIO_PIN_x where x can be (0..15).
  * @retval The input port pin value.
  */
GPIO_PinState HAL_GPIO_ReadPin(GPIO_TypeDef* GPIOx, uint16_t GPIO_Pin)
{
 800271c:	b480      	push	{r7}
 800271e:	b085      	sub	sp, #20
 8002720:	af00      	add	r7, sp, #0
 8002722:	6078      	str	r0, [r7, #4]
 8002724:	460b      	mov	r3, r1
 8002726:	807b      	strh	r3, [r7, #2]
  GPIO_PinState bitstatus;

  /* Check the parameters */
  assert_param(IS_GPIO_PIN(GPIO_Pin));

  if((GPIOx->IDR & GPIO_Pin) != (uint32_t)GPIO_PIN_RESET)
 8002728:	687b      	ldr	r3, [r7, #4]
 800272a:	691a      	ldr	r2, [r3, #16]
 800272c:	887b      	ldrh	r3, [r7, #2]
 800272e:	4013      	ands	r3, r2
 8002730:	2b00      	cmp	r3, #0
 8002732:	d002      	beq.n	800273a <HAL_GPIO_ReadPin+0x1e>
  {
    bitstatus = GPIO_PIN_SET;
 8002734:	2301      	movs	r3, #1
 8002736:	73fb      	strb	r3, [r7, #15]
 8002738:	e001      	b.n	800273e <HAL_GPIO_ReadPin+0x22>
  }
  else
  {
    bitstatus = GPIO_PIN_RESET;
 800273a:	2300      	movs	r3, #0
 800273c:	73fb      	strb	r3, [r7, #15]
  }
  return bitstatus;
 800273e:	7bfb      	ldrb	r3, [r7, #15]
}
 8002740:	4618      	mov	r0, r3
 8002742:	3714      	adds	r7, #20
 8002744:	46bd      	mov	sp, r7
 8002746:	f85d 7b04 	ldr.w	r7, [sp], #4
 800274a:	4770      	bx	lr

0800274c <HAL_GPIO_WritePin>:
  *            @arg GPIO_PIN_RESET: to clear the port pin
  *            @arg GPIO_PIN_SET: to set the port pin
  * @retval None
  */
void HAL_GPIO_WritePin(GPIO_TypeDef* GPIOx, uint16_t GPIO_Pin, GPIO_PinState PinState)
{
 800274c:	b480      	push	{r7}
 800274e:	b083      	sub	sp, #12
 8002750:	af00      	add	r7, sp, #0
 8002752:	6078      	str	r0, [r7, #4]
 8002754:	460b      	mov	r3, r1
 8002756:	807b      	strh	r3, [r7, #2]
 8002758:	4613      	mov	r3, r2
 800275a:	707b      	strb	r3, [r7, #1]
  /* Check the parameters */
  assert_param(IS_GPIO_PIN(GPIO_Pin));
  assert_param(IS_GPIO_PIN_ACTION(PinState));

  if(PinState != GPIO_PIN_RESET)
 800275c:	787b      	ldrb	r3, [r7, #1]
 800275e:	2b00      	cmp	r3, #0
 8002760:	d003      	beq.n	800276a <HAL_GPIO_WritePin+0x1e>
  {
    GPIOx->BSRR = (uint32_t)GPIO_Pin;
 8002762:	887a      	ldrh	r2, [r7, #2]
 8002764:	687b      	ldr	r3, [r7, #4]
 8002766:	619a      	str	r2, [r3, #24]
  }
  else
  {
    GPIOx->BRR = (uint32_t)GPIO_Pin;
  }
}
 8002768:	e002      	b.n	8002770 <HAL_GPIO_WritePin+0x24>
    GPIOx->BRR = (uint32_t)GPIO_Pin;
 800276a:	887a      	ldrh	r2, [r7, #2]
 800276c:	687b      	ldr	r3, [r7, #4]
 800276e:	629a      	str	r2, [r3, #40]	; 0x28
}
 8002770:	bf00      	nop
 8002772:	370c      	adds	r7, #12
 8002774:	46bd      	mov	sp, r7
 8002776:	f85d 7b04 	ldr.w	r7, [sp], #4
 800277a:	4770      	bx	lr

0800277c <HAL_I2C_Init>:
  * @param  hi2c Pointer to a I2C_HandleTypeDef structure that contains
  *                the configuration information for the specified I2C.
  * @retval HAL status
  */
HAL_StatusTypeDef HAL_I2C_Init(I2C_HandleTypeDef *hi2c)
{
 800277c:	b580      	push	{r7, lr}
 800277e:	b082      	sub	sp, #8
 8002780:	af00      	add	r7, sp, #0
 8002782:	6078      	str	r0, [r7, #4]
  /* Check the I2C handle allocation */
  if (hi2c == NULL)
 8002784:	687b      	ldr	r3, [r7, #4]
 8002786:	2b00      	cmp	r3, #0
 8002788:	d101      	bne.n	800278e <HAL_I2C_Init+0x12>
  {
    return HAL_ERROR;
 800278a:	2301      	movs	r3, #1
 800278c:	e081      	b.n	8002892 <HAL_I2C_Init+0x116>
  assert_param(IS_I2C_OWN_ADDRESS2(hi2c->Init.OwnAddress2));
  assert_param(IS_I2C_OWN_ADDRESS2_MASK(hi2c->Init.OwnAddress2Masks));
  assert_param(IS_I2C_GENERAL_CALL(hi2c->Init.GeneralCallMode));
  assert_param(IS_I2C_NO_STRETCH(hi2c->Init.NoStretchMode));

  if (hi2c->State == HAL_I2C_STATE_RESET)
 800278e:	687b      	ldr	r3, [r7, #4]
 8002790:	f893 3041 	ldrb.w	r3, [r3, #65]	; 0x41
 8002794:	b2db      	uxtb	r3, r3
 8002796:	2b00      	cmp	r3, #0
 8002798:	d106      	bne.n	80027a8 <HAL_I2C_Init+0x2c>
  {
    /* Allocate lock resource and initialize it */
    hi2c->Lock = HAL_UNLOCKED;
 800279a:	687b      	ldr	r3, [r7, #4]
 800279c:	2200      	movs	r2, #0
 800279e:	f883 2040 	strb.w	r2, [r3, #64]	; 0x40

    /* Init the low level hardware : GPIO, CLOCK, CORTEX...etc */
    hi2c->MspInitCallback(hi2c);
#else
    /* Init the low level hardware : GPIO, CLOCK, CORTEX...etc */
    HAL_I2C_MspInit(hi2c);
 80027a2:	6878      	ldr	r0, [r7, #4]
 80027a4:	f7ff faf4 	bl	8001d90 <HAL_I2C_MspInit>
#endif /* USE_HAL_I2C_REGISTER_CALLBACKS */
  }

  hi2c->State = HAL_I2C_STATE_BUSY;
 80027a8:	687b      	ldr	r3, [r7, #4]
 80027aa:	2224      	movs	r2, #36	; 0x24
 80027ac:	f883 2041 	strb.w	r2, [r3, #65]	; 0x41

  /* Disable the selected I2C peripheral */
  __HAL_I2C_DISABLE(hi2c);
 80027b0:	687b      	ldr	r3, [r7, #4]
 80027b2:	681b      	ldr	r3, [r3, #0]
 80027b4:	681a      	ldr	r2, [r3, #0]
 80027b6:	687b      	ldr	r3, [r7, #4]
 80027b8:	681b      	ldr	r3, [r3, #0]
 80027ba:	f022 0201 	bic.w	r2, r2, #1
 80027be:	601a      	str	r2, [r3, #0]

  /*---------------------------- I2Cx TIMINGR Configuration ------------------*/
  /* Configure I2Cx: Frequency range */
  hi2c->Instance->TIMINGR = hi2c->Init.Timing & TIMING_CLEAR_MASK;
 80027c0:	687b      	ldr	r3, [r7, #4]
 80027c2:	685a      	ldr	r2, [r3, #4]
 80027c4:	687b      	ldr	r3, [r7, #4]
 80027c6:	681b      	ldr	r3, [r3, #0]
 80027c8:	f022 6270 	bic.w	r2, r2, #251658240	; 0xf000000
 80027cc:	611a      	str	r2, [r3, #16]

  /*---------------------------- I2Cx OAR1 Configuration ---------------------*/
  /* Disable Own Address1 before set the Own Address1 configuration */
  hi2c->Instance->OAR1 &= ~I2C_OAR1_OA1EN;
 80027ce:	687b      	ldr	r3, [r7, #4]
 80027d0:	681b      	ldr	r3, [r3, #0]
 80027d2:	689a      	ldr	r2, [r3, #8]
 80027d4:	687b      	ldr	r3, [r7, #4]
 80027d6:	681b      	ldr	r3, [r3, #0]
 80027d8:	f422 4200 	bic.w	r2, r2, #32768	; 0x8000
 80027dc:	609a      	str	r2, [r3, #8]

  /* Configure I2Cx: Own Address1 and ack own address1 mode */
  if (hi2c->Init.AddressingMode == I2C_ADDRESSINGMODE_7BIT)
 80027de:	687b      	ldr	r3, [r7, #4]
 80027e0:	68db      	ldr	r3, [r3, #12]
 80027e2:	2b01      	cmp	r3, #1
 80027e4:	d107      	bne.n	80027f6 <HAL_I2C_Init+0x7a>
  {
    hi2c->Instance->OAR1 = (I2C_OAR1_OA1EN | hi2c->Init.OwnAddress1);
 80027e6:	687b      	ldr	r3, [r7, #4]
 80027e8:	689a      	ldr	r2, [r3, #8]
 80027ea:	687b      	ldr	r3, [r7, #4]
 80027ec:	681b      	ldr	r3, [r3, #0]
 80027ee:	f442 4200 	orr.w	r2, r2, #32768	; 0x8000
 80027f2:	609a      	str	r2, [r3, #8]
 80027f4:	e006      	b.n	8002804 <HAL_I2C_Init+0x88>
  }
  else /* I2C_ADDRESSINGMODE_10BIT */
  {
    hi2c->Instance->OAR1 = (I2C_OAR1_OA1EN | I2C_OAR1_OA1MODE | hi2c->Init.OwnAddress1);
 80027f6:	687b      	ldr	r3, [r7, #4]
 80027f8:	689a      	ldr	r2, [r3, #8]
 80027fa:	687b      	ldr	r3, [r7, #4]
 80027fc:	681b      	ldr	r3, [r3, #0]
 80027fe:	f442 4204 	orr.w	r2, r2, #33792	; 0x8400
 8002802:	609a      	str	r2, [r3, #8]
  }

  /*---------------------------- I2Cx CR2 Configuration ----------------------*/
  /* Configure I2Cx: Addressing Master mode */
  if (hi2c->Init.AddressingMode == I2C_ADDRESSINGMODE_10BIT)
 8002804:	687b      	ldr	r3, [r7, #4]
 8002806:	68db      	ldr	r3, [r3, #12]
 8002808:	2b02      	cmp	r3, #2
 800280a:	d104      	bne.n	8002816 <HAL_I2C_Init+0x9a>
  {
    hi2c->Instance->CR2 = (I2C_CR2_ADD10);
 800280c:	687b      	ldr	r3, [r7, #4]
 800280e:	681b      	ldr	r3, [r3, #0]
 8002810:	f44f 6200 	mov.w	r2, #2048	; 0x800
 8002814:	605a      	str	r2, [r3, #4]
  }
  /* Enable the AUTOEND by default, and enable NACK (should be disable only during Slave process */
  hi2c->Instance->CR2 |= (I2C_CR2_AUTOEND | I2C_CR2_NACK);
 8002816:	687b      	ldr	r3, [r7, #4]
 8002818:	681b      	ldr	r3, [r3, #0]
 800281a:	685b      	ldr	r3, [r3, #4]
 800281c:	687a      	ldr	r2, [r7, #4]
 800281e:	6812      	ldr	r2, [r2, #0]
 8002820:	f043 7300 	orr.w	r3, r3, #33554432	; 0x2000000
 8002824:	f443 4300 	orr.w	r3, r3, #32768	; 0x8000
 8002828:	6053      	str	r3, [r2, #4]

  /*---------------------------- I2Cx OAR2 Configuration ---------------------*/
  /* Disable Own Address2 before set the Own Address2 configuration */
  hi2c->Instance->OAR2 &= ~I2C_DUALADDRESS_ENABLE;
 800282a:	687b      	ldr	r3, [r7, #4]
 800282c:	681b      	ldr	r3, [r3, #0]
 800282e:	68da      	ldr	r2, [r3, #12]
 8002830:	687b      	ldr	r3, [r7, #4]
 8002832:	681b      	ldr	r3, [r3, #0]
 8002834:	f422 4200 	bic.w	r2, r2, #32768	; 0x8000
 8002838:	60da      	str	r2, [r3, #12]

  /* Configure I2Cx: Dual mode and Own Address2 */
  hi2c->Instance->OAR2 = (hi2c->Init.DualAddressMode | hi2c->Init.OwnAddress2 | \
 800283a:	687b      	ldr	r3, [r7, #4]
 800283c:	691a      	ldr	r2, [r3, #16]
 800283e:	687b      	ldr	r3, [r7, #4]
 8002840:	695b      	ldr	r3, [r3, #20]
 8002842:	ea42 0103 	orr.w	r1, r2, r3
                          (hi2c->Init.OwnAddress2Masks << 8));
 8002846:	687b      	ldr	r3, [r7, #4]
 8002848:	699b      	ldr	r3, [r3, #24]
 800284a:	021a      	lsls	r2, r3, #8
  hi2c->Instance->OAR2 = (hi2c->Init.DualAddressMode | hi2c->Init.OwnAddress2 | \
 800284c:	687b      	ldr	r3, [r7, #4]
 800284e:	681b      	ldr	r3, [r3, #0]
 8002850:	430a      	orrs	r2, r1
 8002852:	60da      	str	r2, [r3, #12]

  /*---------------------------- I2Cx CR1 Configuration ----------------------*/
  /* Configure I2Cx: Generalcall and NoStretch mode */
  hi2c->Instance->CR1 = (hi2c->Init.GeneralCallMode | hi2c->Init.NoStretchMode);
 8002854:	687b      	ldr	r3, [r7, #4]
 8002856:	69d9      	ldr	r1, [r3, #28]
 8002858:	687b      	ldr	r3, [r7, #4]
 800285a:	6a1a      	ldr	r2, [r3, #32]
 800285c:	687b      	ldr	r3, [r7, #4]
 800285e:	681b      	ldr	r3, [r3, #0]
 8002860:	430a      	orrs	r2, r1
 8002862:	601a      	str	r2, [r3, #0]

  /* Enable the selected I2C peripheral */
  __HAL_I2C_ENABLE(hi2c);
 8002864:	687b      	ldr	r3, [r7, #4]
 8002866:	681b      	ldr	r3, [r3, #0]
 8002868:	681a      	ldr	r2, [r3, #0]
 800286a:	687b      	ldr	r3, [r7, #4]
 800286c:	681b      	ldr	r3, [r3, #0]
 800286e:	f042 0201 	orr.w	r2, r2, #1
 8002872:	601a      	str	r2, [r3, #0]

  hi2c->ErrorCode = HAL_I2C_ERROR_NONE;
 8002874:	687b      	ldr	r3, [r7, #4]
 8002876:	2200      	movs	r2, #0
 8002878:	645a      	str	r2, [r3, #68]	; 0x44
  hi2c->State = HAL_I2C_STATE_READY;
 800287a:	687b      	ldr	r3, [r7, #4]
 800287c:	2220      	movs	r2, #32
 800287e:	f883 2041 	strb.w	r2, [r3, #65]	; 0x41
  hi2c->PreviousState = I2C_STATE_NONE;
 8002882:	687b      	ldr	r3, [r7, #4]
 8002884:	2200      	movs	r2, #0
 8002886:	631a      	str	r2, [r3, #48]	; 0x30
  hi2c->Mode = HAL_I2C_MODE_NONE;
 8002888:	687b      	ldr	r3, [r7, #4]
 800288a:	2200      	movs	r2, #0
 800288c:	f883 2042 	strb.w	r2, [r3, #66]	; 0x42

  return HAL_OK;
 8002890:	2300      	movs	r3, #0
}
 8002892:	4618      	mov	r0, r3
 8002894:	3708      	adds	r7, #8
 8002896:	46bd      	mov	sp, r7
 8002898:	bd80      	pop	{r7, pc}
	...

0800289c <HAL_I2C_Master_Transmit>:
  * @param  Timeout Timeout duration
  * @retval HAL status
  */
HAL_StatusTypeDef HAL_I2C_Master_Transmit(I2C_HandleTypeDef *hi2c, uint16_t DevAddress, uint8_t *pData,
                                          uint16_t Size, uint32_t Timeout)
{
 800289c:	b580      	push	{r7, lr}
 800289e:	b088      	sub	sp, #32
 80028a0:	af02      	add	r7, sp, #8
 80028a2:	60f8      	str	r0, [r7, #12]
 80028a4:	607a      	str	r2, [r7, #4]
 80028a6:	461a      	mov	r2, r3
 80028a8:	460b      	mov	r3, r1
 80028aa:	817b      	strh	r3, [r7, #10]
 80028ac:	4613      	mov	r3, r2
 80028ae:	813b      	strh	r3, [r7, #8]
  uint32_t tickstart;

  if (hi2c->State == HAL_I2C_STATE_READY)
 80028b0:	68fb      	ldr	r3, [r7, #12]
 80028b2:	f893 3041 	ldrb.w	r3, [r3, #65]	; 0x41
 80028b6:	b2db      	uxtb	r3, r3
 80028b8:	2b20      	cmp	r3, #32
 80028ba:	f040 80da 	bne.w	8002a72 <HAL_I2C_Master_Transmit+0x1d6>
  {
    /* Process Locked */
    __HAL_LOCK(hi2c);
 80028be:	68fb      	ldr	r3, [r7, #12]
 80028c0:	f893 3040 	ldrb.w	r3, [r3, #64]	; 0x40
 80028c4:	2b01      	cmp	r3, #1
 80028c6:	d101      	bne.n	80028cc <HAL_I2C_Master_Transmit+0x30>
 80028c8:	2302      	movs	r3, #2
 80028ca:	e0d3      	b.n	8002a74 <HAL_I2C_Master_Transmit+0x1d8>
 80028cc:	68fb      	ldr	r3, [r7, #12]
 80028ce:	2201      	movs	r2, #1
 80028d0:	f883 2040 	strb.w	r2, [r3, #64]	; 0x40

    /* Init tickstart for timeout management*/
    tickstart = HAL_GetTick();
 80028d4:	f7ff fc9a 	bl	800220c <HAL_GetTick>
 80028d8:	6178      	str	r0, [r7, #20]

    if (I2C_WaitOnFlagUntilTimeout(hi2c, I2C_FLAG_BUSY, SET, I2C_TIMEOUT_BUSY, tickstart) != HAL_OK)
 80028da:	697b      	ldr	r3, [r7, #20]
 80028dc:	9300      	str	r3, [sp, #0]
 80028de:	2319      	movs	r3, #25
 80028e0:	2201      	movs	r2, #1
 80028e2:	f44f 4100 	mov.w	r1, #32768	; 0x8000
 80028e6:	68f8      	ldr	r0, [r7, #12]
 80028e8:	f000 f9e6 	bl	8002cb8 <I2C_WaitOnFlagUntilTimeout>
 80028ec:	4603      	mov	r3, r0
 80028ee:	2b00      	cmp	r3, #0
 80028f0:	d001      	beq.n	80028f6 <HAL_I2C_Master_Transmit+0x5a>
    {
      return HAL_ERROR;
 80028f2:	2301      	movs	r3, #1
 80028f4:	e0be      	b.n	8002a74 <HAL_I2C_Master_Transmit+0x1d8>
    }

    hi2c->State     = HAL_I2C_STATE_BUSY_TX;
 80028f6:	68fb      	ldr	r3, [r7, #12]
 80028f8:	2221      	movs	r2, #33	; 0x21
 80028fa:	f883 2041 	strb.w	r2, [r3, #65]	; 0x41
    hi2c->Mode      = HAL_I2C_MODE_MASTER;
 80028fe:	68fb      	ldr	r3, [r7, #12]
 8002900:	2210      	movs	r2, #16
 8002902:	f883 2042 	strb.w	r2, [r3, #66]	; 0x42
    hi2c->ErrorCode = HAL_I2C_ERROR_NONE;
 8002906:	68fb      	ldr	r3, [r7, #12]
 8002908:	2200      	movs	r2, #0
 800290a:	645a      	str	r2, [r3, #68]	; 0x44

    /* Prepare transfer parameters */
    hi2c->pBuffPtr  = pData;
 800290c:	68fb      	ldr	r3, [r7, #12]
 800290e:	687a      	ldr	r2, [r7, #4]
 8002910:	625a      	str	r2, [r3, #36]	; 0x24
    hi2c->XferCount = Size;
 8002912:	68fb      	ldr	r3, [r7, #12]
 8002914:	893a      	ldrh	r2, [r7, #8]
 8002916:	855a      	strh	r2, [r3, #42]	; 0x2a
    hi2c->XferISR   = NULL;
 8002918:	68fb      	ldr	r3, [r7, #12]
 800291a:	2200      	movs	r2, #0
 800291c:	635a      	str	r2, [r3, #52]	; 0x34

    /* Send Slave Address */
    /* Set NBYTES to write and reload if hi2c->XferCount > MAX_NBYTE_SIZE and generate RESTART */
    if (hi2c->XferCount > MAX_NBYTE_SIZE)
 800291e:	68fb      	ldr	r3, [r7, #12]
 8002920:	8d5b      	ldrh	r3, [r3, #42]	; 0x2a
 8002922:	b29b      	uxth	r3, r3
 8002924:	2bff      	cmp	r3, #255	; 0xff
 8002926:	d90e      	bls.n	8002946 <HAL_I2C_Master_Transmit+0xaa>
    {
      hi2c->XferSize = MAX_NBYTE_SIZE;
 8002928:	68fb      	ldr	r3, [r7, #12]
 800292a:	22ff      	movs	r2, #255	; 0xff
 800292c:	851a      	strh	r2, [r3, #40]	; 0x28
      I2C_TransferConfig(hi2c, DevAddress, (uint8_t)hi2c->XferSize, I2C_RELOAD_MODE,
 800292e:	68fb      	ldr	r3, [r7, #12]
 8002930:	8d1b      	ldrh	r3, [r3, #40]	; 0x28
 8002932:	b2da      	uxtb	r2, r3
 8002934:	8979      	ldrh	r1, [r7, #10]
 8002936:	4b51      	ldr	r3, [pc, #324]	; (8002a7c <HAL_I2C_Master_Transmit+0x1e0>)
 8002938:	9300      	str	r3, [sp, #0]
 800293a:	f04f 7380 	mov.w	r3, #16777216	; 0x1000000
 800293e:	68f8      	ldr	r0, [r7, #12]
 8002940:	f000 fbf6 	bl	8003130 <I2C_TransferConfig>
 8002944:	e06c      	b.n	8002a20 <HAL_I2C_Master_Transmit+0x184>
                         I2C_GENERATE_START_WRITE);
    }
    else
    {
      hi2c->XferSize = hi2c->XferCount;
 8002946:	68fb      	ldr	r3, [r7, #12]
 8002948:	8d5b      	ldrh	r3, [r3, #42]	; 0x2a
 800294a:	b29a      	uxth	r2, r3
 800294c:	68fb      	ldr	r3, [r7, #12]
 800294e:	851a      	strh	r2, [r3, #40]	; 0x28
      I2C_TransferConfig(hi2c, DevAddress, (uint8_t)hi2c->XferSize, I2C_AUTOEND_MODE,
 8002950:	68fb      	ldr	r3, [r7, #12]
 8002952:	8d1b      	ldrh	r3, [r3, #40]	; 0x28
 8002954:	b2da      	uxtb	r2, r3
 8002956:	8979      	ldrh	r1, [r7, #10]
 8002958:	4b48      	ldr	r3, [pc, #288]	; (8002a7c <HAL_I2C_Master_Transmit+0x1e0>)
 800295a:	9300      	str	r3, [sp, #0]
 800295c:	f04f 7300 	mov.w	r3, #33554432	; 0x2000000
 8002960:	68f8      	ldr	r0, [r7, #12]
 8002962:	f000 fbe5 	bl	8003130 <I2C_TransferConfig>
                         I2C_GENERATE_START_WRITE);
    }

    while (hi2c->XferCount > 0U)
 8002966:	e05b      	b.n	8002a20 <HAL_I2C_Master_Transmit+0x184>
    {
      /* Wait until TXIS flag is set */
      if (I2C_WaitOnTXISFlagUntilTimeout(hi2c, Timeout, tickstart) != HAL_OK)
 8002968:	697a      	ldr	r2, [r7, #20]
 800296a:	6a39      	ldr	r1, [r7, #32]
 800296c:	68f8      	ldr	r0, [r7, #12]
 800296e:	f000 f9f2 	bl	8002d56 <I2C_WaitOnTXISFlagUntilTimeout>
 8002972:	4603      	mov	r3, r0
 8002974:	2b00      	cmp	r3, #0
 8002976:	d001      	beq.n	800297c <HAL_I2C_Master_Transmit+0xe0>
      {
        return HAL_ERROR;
 8002978:	2301      	movs	r3, #1
 800297a:	e07b      	b.n	8002a74 <HAL_I2C_Master_Transmit+0x1d8>
      }
      /* Write data to TXDR */
      hi2c->Instance->TXDR = *hi2c->pBuffPtr;
 800297c:	68fb      	ldr	r3, [r7, #12]
 800297e:	6a5b      	ldr	r3, [r3, #36]	; 0x24
 8002980:	781a      	ldrb	r2, [r3, #0]
 8002982:	68fb      	ldr	r3, [r7, #12]
 8002984:	681b      	ldr	r3, [r3, #0]
 8002986:	629a      	str	r2, [r3, #40]	; 0x28

      /* Increment Buffer pointer */
      hi2c->pBuffPtr++;
 8002988:	68fb      	ldr	r3, [r7, #12]
 800298a:	6a5b      	ldr	r3, [r3, #36]	; 0x24
 800298c:	1c5a      	adds	r2, r3, #1
 800298e:	68fb      	ldr	r3, [r7, #12]
 8002990:	625a      	str	r2, [r3, #36]	; 0x24

      hi2c->XferCount--;
 8002992:	68fb      	ldr	r3, [r7, #12]
 8002994:	8d5b      	ldrh	r3, [r3, #42]	; 0x2a
 8002996:	b29b      	uxth	r3, r3
 8002998:	3b01      	subs	r3, #1
 800299a:	b29a      	uxth	r2, r3
 800299c:	68fb      	ldr	r3, [r7, #12]
 800299e:	855a      	strh	r2, [r3, #42]	; 0x2a
      hi2c->XferSize--;
 80029a0:	68fb      	ldr	r3, [r7, #12]
 80029a2:	8d1b      	ldrh	r3, [r3, #40]	; 0x28
 80029a4:	3b01      	subs	r3, #1
 80029a6:	b29a      	uxth	r2, r3
 80029a8:	68fb      	ldr	r3, [r7, #12]
 80029aa:	851a      	strh	r2, [r3, #40]	; 0x28

      if ((hi2c->XferCount != 0U) && (hi2c->XferSize == 0U))
 80029ac:	68fb      	ldr	r3, [r7, #12]
 80029ae:	8d5b      	ldrh	r3, [r3, #42]	; 0x2a
 80029b0:	b29b      	uxth	r3, r3
 80029b2:	2b00      	cmp	r3, #0
 80029b4:	d034      	beq.n	8002a20 <HAL_I2C_Master_Transmit+0x184>
 80029b6:	68fb      	ldr	r3, [r7, #12]
 80029b8:	8d1b      	ldrh	r3, [r3, #40]	; 0x28
 80029ba:	2b00      	cmp	r3, #0
 80029bc:	d130      	bne.n	8002a20 <HAL_I2C_Master_Transmit+0x184>
      {
        /* Wait until TCR flag is set */
        if (I2C_WaitOnFlagUntilTimeout(hi2c, I2C_FLAG_TCR, RESET, Timeout, tickstart) != HAL_OK)
 80029be:	697b      	ldr	r3, [r7, #20]
 80029c0:	9300      	str	r3, [sp, #0]
 80029c2:	6a3b      	ldr	r3, [r7, #32]
 80029c4:	2200      	movs	r2, #0
 80029c6:	2180      	movs	r1, #128	; 0x80
 80029c8:	68f8      	ldr	r0, [r7, #12]
 80029ca:	f000 f975 	bl	8002cb8 <I2C_WaitOnFlagUntilTimeout>
 80029ce:	4603      	mov	r3, r0
 80029d0:	2b00      	cmp	r3, #0
 80029d2:	d001      	beq.n	80029d8 <HAL_I2C_Master_Transmit+0x13c>
        {
          return HAL_ERROR;
 80029d4:	2301      	movs	r3, #1
 80029d6:	e04d      	b.n	8002a74 <HAL_I2C_Master_Transmit+0x1d8>
        }

        if (hi2c->XferCount > MAX_NBYTE_SIZE)
 80029d8:	68fb      	ldr	r3, [r7, #12]
 80029da:	8d5b      	ldrh	r3, [r3, #42]	; 0x2a
 80029dc:	b29b      	uxth	r3, r3
 80029de:	2bff      	cmp	r3, #255	; 0xff
 80029e0:	d90e      	bls.n	8002a00 <HAL_I2C_Master_Transmit+0x164>
        {
          hi2c->XferSize = MAX_NBYTE_SIZE;
 80029e2:	68fb      	ldr	r3, [r7, #12]
 80029e4:	22ff      	movs	r2, #255	; 0xff
 80029e6:	851a      	strh	r2, [r3, #40]	; 0x28
          I2C_TransferConfig(hi2c, DevAddress, (uint8_t)hi2c->XferSize, I2C_RELOAD_MODE,
 80029e8:	68fb      	ldr	r3, [r7, #12]
 80029ea:	8d1b      	ldrh	r3, [r3, #40]	; 0x28
 80029ec:	b2da      	uxtb	r2, r3
 80029ee:	8979      	ldrh	r1, [r7, #10]
 80029f0:	2300      	movs	r3, #0
 80029f2:	9300      	str	r3, [sp, #0]
 80029f4:	f04f 7380 	mov.w	r3, #16777216	; 0x1000000
 80029f8:	68f8      	ldr	r0, [r7, #12]
 80029fa:	f000 fb99 	bl	8003130 <I2C_TransferConfig>
 80029fe:	e00f      	b.n	8002a20 <HAL_I2C_Master_Transmit+0x184>
                             I2C_NO_STARTSTOP);
        }
        else
        {
          hi2c->XferSize = hi2c->XferCount;
 8002a00:	68fb      	ldr	r3, [r7, #12]
 8002a02:	8d5b      	ldrh	r3, [r3, #42]	; 0x2a
 8002a04:	b29a      	uxth	r2, r3
 8002a06:	68fb      	ldr	r3, [r7, #12]
 8002a08:	851a      	strh	r2, [r3, #40]	; 0x28
          I2C_TransferConfig(hi2c, DevAddress, (uint8_t)hi2c->XferSize, I2C_AUTOEND_MODE,
 8002a0a:	68fb      	ldr	r3, [r7, #12]
 8002a0c:	8d1b      	ldrh	r3, [r3, #40]	; 0x28
 8002a0e:	b2da      	uxtb	r2, r3
 8002a10:	8979      	ldrh	r1, [r7, #10]
 8002a12:	2300      	movs	r3, #0
 8002a14:	9300      	str	r3, [sp, #0]
 8002a16:	f04f 7300 	mov.w	r3, #33554432	; 0x2000000
 8002a1a:	68f8      	ldr	r0, [r7, #12]
 8002a1c:	f000 fb88 	bl	8003130 <I2C_TransferConfig>
    while (hi2c->XferCount > 0U)
 8002a20:	68fb      	ldr	r3, [r7, #12]
 8002a22:	8d5b      	ldrh	r3, [r3, #42]	; 0x2a
 8002a24:	b29b      	uxth	r3, r3
 8002a26:	2b00      	cmp	r3, #0
 8002a28:	d19e      	bne.n	8002968 <HAL_I2C_Master_Transmit+0xcc>
      }
    }

    /* No need to Check TC flag, with AUTOEND mode the stop is automatically generated */
    /* Wait until STOPF flag is set */
    if (I2C_WaitOnSTOPFlagUntilTimeout(hi2c, Timeout, tickstart) != HAL_OK)
 8002a2a:	697a      	ldr	r2, [r7, #20]
 8002a2c:	6a39      	ldr	r1, [r7, #32]
 8002a2e:	68f8      	ldr	r0, [r7, #12]
 8002a30:	f000 f9d8 	bl	8002de4 <I2C_WaitOnSTOPFlagUntilTimeout>
 8002a34:	4603      	mov	r3, r0
 8002a36:	2b00      	cmp	r3, #0
 8002a38:	d001      	beq.n	8002a3e <HAL_I2C_Master_Transmit+0x1a2>
    {
      return HAL_ERROR;
 8002a3a:	2301      	movs	r3, #1
 8002a3c:	e01a      	b.n	8002a74 <HAL_I2C_Master_Transmit+0x1d8>
    }

    /* Clear STOP Flag */
    __HAL_I2C_CLEAR_FLAG(hi2c, I2C_FLAG_STOPF);
 8002a3e:	68fb      	ldr	r3, [r7, #12]
 8002a40:	681b      	ldr	r3, [r3, #0]
 8002a42:	2220      	movs	r2, #32
 8002a44:	61da      	str	r2, [r3, #28]

    /* Clear Configuration Register 2 */
    I2C_RESET_CR2(hi2c);
 8002a46:	68fb      	ldr	r3, [r7, #12]
 8002a48:	681b      	ldr	r3, [r3, #0]
 8002a4a:	6859      	ldr	r1, [r3, #4]
 8002a4c:	68fb      	ldr	r3, [r7, #12]
 8002a4e:	681a      	ldr	r2, [r3, #0]
 8002a50:	4b0b      	ldr	r3, [pc, #44]	; (8002a80 <HAL_I2C_Master_Transmit+0x1e4>)
 8002a52:	400b      	ands	r3, r1
 8002a54:	6053      	str	r3, [r2, #4]

    hi2c->State = HAL_I2C_STATE_READY;
 8002a56:	68fb      	ldr	r3, [r7, #12]
 8002a58:	2220      	movs	r2, #32
 8002a5a:	f883 2041 	strb.w	r2, [r3, #65]	; 0x41
    hi2c->Mode  = HAL_I2C_MODE_NONE;
 8002a5e:	68fb      	ldr	r3, [r7, #12]
 8002a60:	2200      	movs	r2, #0
 8002a62:	f883 2042 	strb.w	r2, [r3, #66]	; 0x42

    /* Process Unlocked */
    __HAL_UNLOCK(hi2c);
 8002a66:	68fb      	ldr	r3, [r7, #12]
 8002a68:	2200      	movs	r2, #0
 8002a6a:	f883 2040 	strb.w	r2, [r3, #64]	; 0x40

    return HAL_OK;
 8002a6e:	2300      	movs	r3, #0
 8002a70:	e000      	b.n	8002a74 <HAL_I2C_Master_Transmit+0x1d8>
  }
  else
  {
    return HAL_BUSY;
 8002a72:	2302      	movs	r3, #2
  }
}
 8002a74:	4618      	mov	r0, r3
 8002a76:	3718      	adds	r7, #24
 8002a78:	46bd      	mov	sp, r7
 8002a7a:	bd80      	pop	{r7, pc}
 8002a7c:	80002000 	.word	0x80002000
 8002a80:	fe00e800 	.word	0xfe00e800

08002a84 <HAL_I2C_Master_Receive>:
  * @param  Timeout Timeout duration
  * @retval HAL status
  */
HAL_StatusTypeDef HAL_I2C_Master_Receive(I2C_HandleTypeDef *hi2c, uint16_t DevAddress, uint8_t *pData,
                                         uint16_t Size, uint32_t Timeout)
{
 8002a84:	b580      	push	{r7, lr}
 8002a86:	b088      	sub	sp, #32
 8002a88:	af02      	add	r7, sp, #8
 8002a8a:	60f8      	str	r0, [r7, #12]
 8002a8c:	607a      	str	r2, [r7, #4]
 8002a8e:	461a      	mov	r2, r3
 8002a90:	460b      	mov	r3, r1
 8002a92:	817b      	strh	r3, [r7, #10]
 8002a94:	4613      	mov	r3, r2
 8002a96:	813b      	strh	r3, [r7, #8]
  uint32_t tickstart;

  if (hi2c->State == HAL_I2C_STATE_READY)
 8002a98:	68fb      	ldr	r3, [r7, #12]
 8002a9a:	f893 3041 	ldrb.w	r3, [r3, #65]	; 0x41
 8002a9e:	b2db      	uxtb	r3, r3
 8002aa0:	2b20      	cmp	r3, #32
 8002aa2:	f040 80db 	bne.w	8002c5c <HAL_I2C_Master_Receive+0x1d8>
  {
    /* Process Locked */
    __HAL_LOCK(hi2c);
 8002aa6:	68fb      	ldr	r3, [r7, #12]
 8002aa8:	f893 3040 	ldrb.w	r3, [r3, #64]	; 0x40
 8002aac:	2b01      	cmp	r3, #1
 8002aae:	d101      	bne.n	8002ab4 <HAL_I2C_Master_Receive+0x30>
 8002ab0:	2302      	movs	r3, #2
 8002ab2:	e0d4      	b.n	8002c5e <HAL_I2C_Master_Receive+0x1da>
 8002ab4:	68fb      	ldr	r3, [r7, #12]
 8002ab6:	2201      	movs	r2, #1
 8002ab8:	f883 2040 	strb.w	r2, [r3, #64]	; 0x40

    /* Init tickstart for timeout management*/
    tickstart = HAL_GetTick();
 8002abc:	f7ff fba6 	bl	800220c <HAL_GetTick>
 8002ac0:	6178      	str	r0, [r7, #20]

    if (I2C_WaitOnFlagUntilTimeout(hi2c, I2C_FLAG_BUSY, SET, I2C_TIMEOUT_BUSY, tickstart) != HAL_OK)
 8002ac2:	697b      	ldr	r3, [r7, #20]
 8002ac4:	9300      	str	r3, [sp, #0]
 8002ac6:	2319      	movs	r3, #25
 8002ac8:	2201      	movs	r2, #1
 8002aca:	f44f 4100 	mov.w	r1, #32768	; 0x8000
 8002ace:	68f8      	ldr	r0, [r7, #12]
 8002ad0:	f000 f8f2 	bl	8002cb8 <I2C_WaitOnFlagUntilTimeout>
 8002ad4:	4603      	mov	r3, r0
 8002ad6:	2b00      	cmp	r3, #0
 8002ad8:	d001      	beq.n	8002ade <HAL_I2C_Master_Receive+0x5a>
    {
      return HAL_ERROR;
 8002ada:	2301      	movs	r3, #1
 8002adc:	e0bf      	b.n	8002c5e <HAL_I2C_Master_Receive+0x1da>
    }

    hi2c->State     = HAL_I2C_STATE_BUSY_RX;
 8002ade:	68fb      	ldr	r3, [r7, #12]
 8002ae0:	2222      	movs	r2, #34	; 0x22
 8002ae2:	f883 2041 	strb.w	r2, [r3, #65]	; 0x41
    hi2c->Mode      = HAL_I2C_MODE_MASTER;
 8002ae6:	68fb      	ldr	r3, [r7, #12]
 8002ae8:	2210      	movs	r2, #16
 8002aea:	f883 2042 	strb.w	r2, [r3, #66]	; 0x42
    hi2c->ErrorCode = HAL_I2C_ERROR_NONE;
 8002aee:	68fb      	ldr	r3, [r7, #12]
 8002af0:	2200      	movs	r2, #0
 8002af2:	645a      	str	r2, [r3, #68]	; 0x44

    /* Prepare transfer parameters */
    hi2c->pBuffPtr  = pData;
 8002af4:	68fb      	ldr	r3, [r7, #12]
 8002af6:	687a      	ldr	r2, [r7, #4]
 8002af8:	625a      	str	r2, [r3, #36]	; 0x24
    hi2c->XferCount = Size;
 8002afa:	68fb      	ldr	r3, [r7, #12]
 8002afc:	893a      	ldrh	r2, [r7, #8]
 8002afe:	855a      	strh	r2, [r3, #42]	; 0x2a
    hi2c->XferISR   = NULL;
 8002b00:	68fb      	ldr	r3, [r7, #12]
 8002b02:	2200      	movs	r2, #0
 8002b04:	635a      	str	r2, [r3, #52]	; 0x34

    /* Send Slave Address */
    /* Set NBYTES to write and reload if hi2c->XferCount > MAX_NBYTE_SIZE and generate RESTART */
    if (hi2c->XferCount > MAX_NBYTE_SIZE)
 8002b06:	68fb      	ldr	r3, [r7, #12]
 8002b08:	8d5b      	ldrh	r3, [r3, #42]	; 0x2a
 8002b0a:	b29b      	uxth	r3, r3
 8002b0c:	2bff      	cmp	r3, #255	; 0xff
 8002b0e:	d90e      	bls.n	8002b2e <HAL_I2C_Master_Receive+0xaa>
    {
      hi2c->XferSize = MAX_NBYTE_SIZE;
 8002b10:	68fb      	ldr	r3, [r7, #12]
 8002b12:	22ff      	movs	r2, #255	; 0xff
 8002b14:	851a      	strh	r2, [r3, #40]	; 0x28
      I2C_TransferConfig(hi2c, DevAddress, (uint8_t)hi2c->XferSize, I2C_RELOAD_MODE,
 8002b16:	68fb      	ldr	r3, [r7, #12]
 8002b18:	8d1b      	ldrh	r3, [r3, #40]	; 0x28
 8002b1a:	b2da      	uxtb	r2, r3
 8002b1c:	8979      	ldrh	r1, [r7, #10]
 8002b1e:	4b52      	ldr	r3, [pc, #328]	; (8002c68 <HAL_I2C_Master_Receive+0x1e4>)
 8002b20:	9300      	str	r3, [sp, #0]
 8002b22:	f04f 7380 	mov.w	r3, #16777216	; 0x1000000
 8002b26:	68f8      	ldr	r0, [r7, #12]
 8002b28:	f000 fb02 	bl	8003130 <I2C_TransferConfig>
 8002b2c:	e06d      	b.n	8002c0a <HAL_I2C_Master_Receive+0x186>
                         I2C_GENERATE_START_READ);
    }
    else
    {
      hi2c->XferSize = hi2c->XferCount;
 8002b2e:	68fb      	ldr	r3, [r7, #12]
 8002b30:	8d5b      	ldrh	r3, [r3, #42]	; 0x2a
 8002b32:	b29a      	uxth	r2, r3
 8002b34:	68fb      	ldr	r3, [r7, #12]
 8002b36:	851a      	strh	r2, [r3, #40]	; 0x28
      I2C_TransferConfig(hi2c, DevAddress, (uint8_t)hi2c->XferSize, I2C_AUTOEND_MODE,
 8002b38:	68fb      	ldr	r3, [r7, #12]
 8002b3a:	8d1b      	ldrh	r3, [r3, #40]	; 0x28
 8002b3c:	b2da      	uxtb	r2, r3
 8002b3e:	8979      	ldrh	r1, [r7, #10]
 8002b40:	4b49      	ldr	r3, [pc, #292]	; (8002c68 <HAL_I2C_Master_Receive+0x1e4>)
 8002b42:	9300      	str	r3, [sp, #0]
 8002b44:	f04f 7300 	mov.w	r3, #33554432	; 0x2000000
 8002b48:	68f8      	ldr	r0, [r7, #12]
 8002b4a:	f000 faf1 	bl	8003130 <I2C_TransferConfig>
                         I2C_GENERATE_START_READ);
    }

    while (hi2c->XferCount > 0U)
 8002b4e:	e05c      	b.n	8002c0a <HAL_I2C_Master_Receive+0x186>
    {
      /* Wait until RXNE flag is set */
      if (I2C_WaitOnRXNEFlagUntilTimeout(hi2c, Timeout, tickstart) != HAL_OK)
 8002b50:	697a      	ldr	r2, [r7, #20]
 8002b52:	6a39      	ldr	r1, [r7, #32]
 8002b54:	68f8      	ldr	r0, [r7, #12]
 8002b56:	f000 f989 	bl	8002e6c <I2C_WaitOnRXNEFlagUntilTimeout>
 8002b5a:	4603      	mov	r3, r0
 8002b5c:	2b00      	cmp	r3, #0
 8002b5e:	d001      	beq.n	8002b64 <HAL_I2C_Master_Receive+0xe0>
      {
        return HAL_ERROR;
 8002b60:	2301      	movs	r3, #1
 8002b62:	e07c      	b.n	8002c5e <HAL_I2C_Master_Receive+0x1da>
      }

      /* Read data from RXDR */
      *hi2c->pBuffPtr = (uint8_t)hi2c->Instance->RXDR;
 8002b64:	68fb      	ldr	r3, [r7, #12]
 8002b66:	681b      	ldr	r3, [r3, #0]
 8002b68:	6a5a      	ldr	r2, [r3, #36]	; 0x24
 8002b6a:	68fb      	ldr	r3, [r7, #12]
 8002b6c:	6a5b      	ldr	r3, [r3, #36]	; 0x24
 8002b6e:	b2d2      	uxtb	r2, r2
 8002b70:	701a      	strb	r2, [r3, #0]

      /* Increment Buffer pointer */
      hi2c->pBuffPtr++;
 8002b72:	68fb      	ldr	r3, [r7, #12]
 8002b74:	6a5b      	ldr	r3, [r3, #36]	; 0x24
 8002b76:	1c5a      	adds	r2, r3, #1
 8002b78:	68fb      	ldr	r3, [r7, #12]
 8002b7a:	625a      	str	r2, [r3, #36]	; 0x24

      hi2c->XferSize--;
 8002b7c:	68fb      	ldr	r3, [r7, #12]
 8002b7e:	8d1b      	ldrh	r3, [r3, #40]	; 0x28
 8002b80:	3b01      	subs	r3, #1
 8002b82:	b29a      	uxth	r2, r3
 8002b84:	68fb      	ldr	r3, [r7, #12]
 8002b86:	851a      	strh	r2, [r3, #40]	; 0x28
      hi2c->XferCount--;
 8002b88:	68fb      	ldr	r3, [r7, #12]
 8002b8a:	8d5b      	ldrh	r3, [r3, #42]	; 0x2a
 8002b8c:	b29b      	uxth	r3, r3
 8002b8e:	3b01      	subs	r3, #1
 8002b90:	b29a      	uxth	r2, r3
 8002b92:	68fb      	ldr	r3, [r7, #12]
 8002b94:	855a      	strh	r2, [r3, #42]	; 0x2a

      if ((hi2c->XferCount != 0U) && (hi2c->XferSize == 0U))
 8002b96:	68fb      	ldr	r3, [r7, #12]
 8002b98:	8d5b      	ldrh	r3, [r3, #42]	; 0x2a
 8002b9a:	b29b      	uxth	r3, r3
 8002b9c:	2b00      	cmp	r3, #0
 8002b9e:	d034      	beq.n	8002c0a <HAL_I2C_Master_Receive+0x186>
 8002ba0:	68fb      	ldr	r3, [r7, #12]
 8002ba2:	8d1b      	ldrh	r3, [r3, #40]	; 0x28
 8002ba4:	2b00      	cmp	r3, #0
 8002ba6:	d130      	bne.n	8002c0a <HAL_I2C_Master_Receive+0x186>
      {
        /* Wait until TCR flag is set */
        if (I2C_WaitOnFlagUntilTimeout(hi2c, I2C_FLAG_TCR, RESET, Timeout, tickstart) != HAL_OK)
 8002ba8:	697b      	ldr	r3, [r7, #20]
 8002baa:	9300      	str	r3, [sp, #0]
 8002bac:	6a3b      	ldr	r3, [r7, #32]
 8002bae:	2200      	movs	r2, #0
 8002bb0:	2180      	movs	r1, #128	; 0x80
 8002bb2:	68f8      	ldr	r0, [r7, #12]
 8002bb4:	f000 f880 	bl	8002cb8 <I2C_WaitOnFlagUntilTimeout>
 8002bb8:	4603      	mov	r3, r0
 8002bba:	2b00      	cmp	r3, #0
 8002bbc:	d001      	beq.n	8002bc2 <HAL_I2C_Master_Receive+0x13e>
        {
          return HAL_ERROR;
 8002bbe:	2301      	movs	r3, #1
 8002bc0:	e04d      	b.n	8002c5e <HAL_I2C_Master_Receive+0x1da>
        }

        if (hi2c->XferCount > MAX_NBYTE_SIZE)
 8002bc2:	68fb      	ldr	r3, [r7, #12]
 8002bc4:	8d5b      	ldrh	r3, [r3, #42]	; 0x2a
 8002bc6:	b29b      	uxth	r3, r3
 8002bc8:	2bff      	cmp	r3, #255	; 0xff
 8002bca:	d90e      	bls.n	8002bea <HAL_I2C_Master_Receive+0x166>
        {
          hi2c->XferSize = MAX_NBYTE_SIZE;
 8002bcc:	68fb      	ldr	r3, [r7, #12]
 8002bce:	22ff      	movs	r2, #255	; 0xff
 8002bd0:	851a      	strh	r2, [r3, #40]	; 0x28
          I2C_TransferConfig(hi2c, DevAddress, (uint8_t)hi2c->XferSize, I2C_RELOAD_MODE,
 8002bd2:	68fb      	ldr	r3, [r7, #12]
 8002bd4:	8d1b      	ldrh	r3, [r3, #40]	; 0x28
 8002bd6:	b2da      	uxtb	r2, r3
 8002bd8:	8979      	ldrh	r1, [r7, #10]
 8002bda:	2300      	movs	r3, #0
 8002bdc:	9300      	str	r3, [sp, #0]
 8002bde:	f04f 7380 	mov.w	r3, #16777216	; 0x1000000
 8002be2:	68f8      	ldr	r0, [r7, #12]
 8002be4:	f000 faa4 	bl	8003130 <I2C_TransferConfig>
 8002be8:	e00f      	b.n	8002c0a <HAL_I2C_Master_Receive+0x186>
                             I2C_NO_STARTSTOP);
        }
        else
        {
          hi2c->XferSize = hi2c->XferCount;
 8002bea:	68fb      	ldr	r3, [r7, #12]
 8002bec:	8d5b      	ldrh	r3, [r3, #42]	; 0x2a
 8002bee:	b29a      	uxth	r2, r3
 8002bf0:	68fb      	ldr	r3, [r7, #12]
 8002bf2:	851a      	strh	r2, [r3, #40]	; 0x28
          I2C_TransferConfig(hi2c, DevAddress, (uint8_t)hi2c->XferSize, I2C_AUTOEND_MODE,
 8002bf4:	68fb      	ldr	r3, [r7, #12]
 8002bf6:	8d1b      	ldrh	r3, [r3, #40]	; 0x28
 8002bf8:	b2da      	uxtb	r2, r3
 8002bfa:	8979      	ldrh	r1, [r7, #10]
 8002bfc:	2300      	movs	r3, #0
 8002bfe:	9300      	str	r3, [sp, #0]
 8002c00:	f04f 7300 	mov.w	r3, #33554432	; 0x2000000
 8002c04:	68f8      	ldr	r0, [r7, #12]
 8002c06:	f000 fa93 	bl	8003130 <I2C_TransferConfig>
    while (hi2c->XferCount > 0U)
 8002c0a:	68fb      	ldr	r3, [r7, #12]
 8002c0c:	8d5b      	ldrh	r3, [r3, #42]	; 0x2a
 8002c0e:	b29b      	uxth	r3, r3
 8002c10:	2b00      	cmp	r3, #0
 8002c12:	d19d      	bne.n	8002b50 <HAL_I2C_Master_Receive+0xcc>
      }
    }

    /* No need to Check TC flag, with AUTOEND mode the stop is automatically generated */
    /* Wait until STOPF flag is set */
    if (I2C_WaitOnSTOPFlagUntilTimeout(hi2c, Timeout, tickstart) != HAL_OK)
 8002c14:	697a      	ldr	r2, [r7, #20]
 8002c16:	6a39      	ldr	r1, [r7, #32]
 8002c18:	68f8      	ldr	r0, [r7, #12]
 8002c1a:	f000 f8e3 	bl	8002de4 <I2C_WaitOnSTOPFlagUntilTimeout>
 8002c1e:	4603      	mov	r3, r0
 8002c20:	2b00      	cmp	r3, #0
 8002c22:	d001      	beq.n	8002c28 <HAL_I2C_Master_Receive+0x1a4>
    {
      return HAL_ERROR;
 8002c24:	2301      	movs	r3, #1
 8002c26:	e01a      	b.n	8002c5e <HAL_I2C_Master_Receive+0x1da>
    }

    /* Clear STOP Flag */
    __HAL_I2C_CLEAR_FLAG(hi2c, I2C_FLAG_STOPF);
 8002c28:	68fb      	ldr	r3, [r7, #12]
 8002c2a:	681b      	ldr	r3, [r3, #0]
 8002c2c:	2220      	movs	r2, #32
 8002c2e:	61da      	str	r2, [r3, #28]

    /* Clear Configuration Register 2 */
    I2C_RESET_CR2(hi2c);
 8002c30:	68fb      	ldr	r3, [r7, #12]
 8002c32:	681b      	ldr	r3, [r3, #0]
 8002c34:	6859      	ldr	r1, [r3, #4]
 8002c36:	68fb      	ldr	r3, [r7, #12]
 8002c38:	681a      	ldr	r2, [r3, #0]
 8002c3a:	4b0c      	ldr	r3, [pc, #48]	; (8002c6c <HAL_I2C_Master_Receive+0x1e8>)
 8002c3c:	400b      	ands	r3, r1
 8002c3e:	6053      	str	r3, [r2, #4]

    hi2c->State = HAL_I2C_STATE_READY;
 8002c40:	68fb      	ldr	r3, [r7, #12]
 8002c42:	2220      	movs	r2, #32
 8002c44:	f883 2041 	strb.w	r2, [r3, #65]	; 0x41
    hi2c->Mode  = HAL_I2C_MODE_NONE;
 8002c48:	68fb      	ldr	r3, [r7, #12]
 8002c4a:	2200      	movs	r2, #0
 8002c4c:	f883 2042 	strb.w	r2, [r3, #66]	; 0x42

    /* Process Unlocked */
    __HAL_UNLOCK(hi2c);
 8002c50:	68fb      	ldr	r3, [r7, #12]
 8002c52:	2200      	movs	r2, #0
 8002c54:	f883 2040 	strb.w	r2, [r3, #64]	; 0x40

    return HAL_OK;
 8002c58:	2300      	movs	r3, #0
 8002c5a:	e000      	b.n	8002c5e <HAL_I2C_Master_Receive+0x1da>
  }
  else
  {
    return HAL_BUSY;
 8002c5c:	2302      	movs	r3, #2
  }
}
 8002c5e:	4618      	mov	r0, r3
 8002c60:	3718      	adds	r7, #24
 8002c62:	46bd      	mov	sp, r7
 8002c64:	bd80      	pop	{r7, pc}
 8002c66:	bf00      	nop
 8002c68:	80002400 	.word	0x80002400
 8002c6c:	fe00e800 	.word	0xfe00e800

08002c70 <I2C_Flush_TXDR>:
  * @brief  I2C Tx data register flush process.
  * @param  hi2c I2C handle.
  * @retval None
  */
static void I2C_Flush_TXDR(I2C_HandleTypeDef *hi2c)
{
 8002c70:	b480      	push	{r7}
 8002c72:	b083      	sub	sp, #12
 8002c74:	af00      	add	r7, sp, #0
 8002c76:	6078      	str	r0, [r7, #4]
  /* If a pending TXIS flag is set */
  /* Write a dummy data in TXDR to clear it */
  if (__HAL_I2C_GET_FLAG(hi2c, I2C_FLAG_TXIS) != RESET)
 8002c78:	687b      	ldr	r3, [r7, #4]
 8002c7a:	681b      	ldr	r3, [r3, #0]
 8002c7c:	699b      	ldr	r3, [r3, #24]
 8002c7e:	f003 0302 	and.w	r3, r3, #2
 8002c82:	2b02      	cmp	r3, #2
 8002c84:	d103      	bne.n	8002c8e <I2C_Flush_TXDR+0x1e>
  {
    hi2c->Instance->TXDR = 0x00U;
 8002c86:	687b      	ldr	r3, [r7, #4]
 8002c88:	681b      	ldr	r3, [r3, #0]
 8002c8a:	2200      	movs	r2, #0
 8002c8c:	629a      	str	r2, [r3, #40]	; 0x28
  }

  /* Flush TX register if not empty */
  if (__HAL_I2C_GET_FLAG(hi2c, I2C_FLAG_TXE) == RESET)
 8002c8e:	687b      	ldr	r3, [r7, #4]
 8002c90:	681b      	ldr	r3, [r3, #0]
 8002c92:	699b      	ldr	r3, [r3, #24]
 8002c94:	f003 0301 	and.w	r3, r3, #1
 8002c98:	2b01      	cmp	r3, #1
 8002c9a:	d007      	beq.n	8002cac <I2C_Flush_TXDR+0x3c>
  {
    __HAL_I2C_CLEAR_FLAG(hi2c, I2C_FLAG_TXE);
 8002c9c:	687b      	ldr	r3, [r7, #4]
 8002c9e:	681b      	ldr	r3, [r3, #0]
 8002ca0:	699a      	ldr	r2, [r3, #24]
 8002ca2:	687b      	ldr	r3, [r7, #4]
 8002ca4:	681b      	ldr	r3, [r3, #0]
 8002ca6:	f042 0201 	orr.w	r2, r2, #1
 8002caa:	619a      	str	r2, [r3, #24]
  }
}
 8002cac:	bf00      	nop
 8002cae:	370c      	adds	r7, #12
 8002cb0:	46bd      	mov	sp, r7
 8002cb2:	f85d 7b04 	ldr.w	r7, [sp], #4
 8002cb6:	4770      	bx	lr

08002cb8 <I2C_WaitOnFlagUntilTimeout>:
  * @param  Tickstart Tick start value
  * @retval HAL status
  */
static HAL_StatusTypeDef I2C_WaitOnFlagUntilTimeout(I2C_HandleTypeDef *hi2c, uint32_t Flag, FlagStatus Status,
                                                    uint32_t Timeout, uint32_t Tickstart)
{
 8002cb8:	b580      	push	{r7, lr}
 8002cba:	b084      	sub	sp, #16
 8002cbc:	af00      	add	r7, sp, #0
 8002cbe:	60f8      	str	r0, [r7, #12]
 8002cc0:	60b9      	str	r1, [r7, #8]
 8002cc2:	603b      	str	r3, [r7, #0]
 8002cc4:	4613      	mov	r3, r2
 8002cc6:	71fb      	strb	r3, [r7, #7]
  while (__HAL_I2C_GET_FLAG(hi2c, Flag) == Status)
 8002cc8:	e031      	b.n	8002d2e <I2C_WaitOnFlagUntilTimeout+0x76>
  {
    /* Check for the Timeout */
    if (Timeout != HAL_MAX_DELAY)
 8002cca:	683b      	ldr	r3, [r7, #0]
 8002ccc:	f1b3 3fff 	cmp.w	r3, #4294967295
 8002cd0:	d02d      	beq.n	8002d2e <I2C_WaitOnFlagUntilTimeout+0x76>
    {
      if (((HAL_GetTick() - Tickstart) > Timeout) || (Timeout == 0U))
 8002cd2:	f7ff fa9b 	bl	800220c <HAL_GetTick>
 8002cd6:	4602      	mov	r2, r0
 8002cd8:	69bb      	ldr	r3, [r7, #24]
 8002cda:	1ad3      	subs	r3, r2, r3
 8002cdc:	683a      	ldr	r2, [r7, #0]
 8002cde:	429a      	cmp	r2, r3
 8002ce0:	d302      	bcc.n	8002ce8 <I2C_WaitOnFlagUntilTimeout+0x30>
 8002ce2:	683b      	ldr	r3, [r7, #0]
 8002ce4:	2b00      	cmp	r3, #0
 8002ce6:	d122      	bne.n	8002d2e <I2C_WaitOnFlagUntilTimeout+0x76>
      {
        if ((__HAL_I2C_GET_FLAG(hi2c, Flag) == Status))
 8002ce8:	68fb      	ldr	r3, [r7, #12]
 8002cea:	681b      	ldr	r3, [r3, #0]
 8002cec:	699a      	ldr	r2, [r3, #24]
 8002cee:	68bb      	ldr	r3, [r7, #8]
 8002cf0:	4013      	ands	r3, r2
 8002cf2:	68ba      	ldr	r2, [r7, #8]
 8002cf4:	429a      	cmp	r2, r3
 8002cf6:	bf0c      	ite	eq
 8002cf8:	2301      	moveq	r3, #1
 8002cfa:	2300      	movne	r3, #0
 8002cfc:	b2db      	uxtb	r3, r3
 8002cfe:	461a      	mov	r2, r3
 8002d00:	79fb      	ldrb	r3, [r7, #7]
 8002d02:	429a      	cmp	r2, r3
 8002d04:	d113      	bne.n	8002d2e <I2C_WaitOnFlagUntilTimeout+0x76>
        {
          hi2c->ErrorCode |= HAL_I2C_ERROR_TIMEOUT;
 8002d06:	68fb      	ldr	r3, [r7, #12]
 8002d08:	6c5b      	ldr	r3, [r3, #68]	; 0x44
 8002d0a:	f043 0220 	orr.w	r2, r3, #32
 8002d0e:	68fb      	ldr	r3, [r7, #12]
 8002d10:	645a      	str	r2, [r3, #68]	; 0x44
          hi2c->State = HAL_I2C_STATE_READY;
 8002d12:	68fb      	ldr	r3, [r7, #12]
 8002d14:	2220      	movs	r2, #32
 8002d16:	f883 2041 	strb.w	r2, [r3, #65]	; 0x41
          hi2c->Mode = HAL_I2C_MODE_NONE;
 8002d1a:	68fb      	ldr	r3, [r7, #12]
 8002d1c:	2200      	movs	r2, #0
 8002d1e:	f883 2042 	strb.w	r2, [r3, #66]	; 0x42

          /* Process Unlocked */
          __HAL_UNLOCK(hi2c);
 8002d22:	68fb      	ldr	r3, [r7, #12]
 8002d24:	2200      	movs	r2, #0
 8002d26:	f883 2040 	strb.w	r2, [r3, #64]	; 0x40
          return HAL_ERROR;
 8002d2a:	2301      	movs	r3, #1
 8002d2c:	e00f      	b.n	8002d4e <I2C_WaitOnFlagUntilTimeout+0x96>
  while (__HAL_I2C_GET_FLAG(hi2c, Flag) == Status)
 8002d2e:	68fb      	ldr	r3, [r7, #12]
 8002d30:	681b      	ldr	r3, [r3, #0]
 8002d32:	699a      	ldr	r2, [r3, #24]
 8002d34:	68bb      	ldr	r3, [r7, #8]
 8002d36:	4013      	ands	r3, r2
 8002d38:	68ba      	ldr	r2, [r7, #8]
 8002d3a:	429a      	cmp	r2, r3
 8002d3c:	bf0c      	ite	eq
 8002d3e:	2301      	moveq	r3, #1
 8002d40:	2300      	movne	r3, #0
 8002d42:	b2db      	uxtb	r3, r3
 8002d44:	461a      	mov	r2, r3
 8002d46:	79fb      	ldrb	r3, [r7, #7]
 8002d48:	429a      	cmp	r2, r3
 8002d4a:	d0be      	beq.n	8002cca <I2C_WaitOnFlagUntilTimeout+0x12>
        }
      }
    }
  }
  return HAL_OK;
 8002d4c:	2300      	movs	r3, #0
}
 8002d4e:	4618      	mov	r0, r3
 8002d50:	3710      	adds	r7, #16
 8002d52:	46bd      	mov	sp, r7
 8002d54:	bd80      	pop	{r7, pc}

08002d56 <I2C_WaitOnTXISFlagUntilTimeout>:
  * @param  Tickstart Tick start value
  * @retval HAL status
  */
static HAL_StatusTypeDef I2C_WaitOnTXISFlagUntilTimeout(I2C_HandleTypeDef *hi2c, uint32_t Timeout,
                                                        uint32_t Tickstart)
{
 8002d56:	b580      	push	{r7, lr}
 8002d58:	b084      	sub	sp, #16
 8002d5a:	af00      	add	r7, sp, #0
 8002d5c:	60f8      	str	r0, [r7, #12]
 8002d5e:	60b9      	str	r1, [r7, #8]
 8002d60:	607a      	str	r2, [r7, #4]
  while (__HAL_I2C_GET_FLAG(hi2c, I2C_FLAG_TXIS) == RESET)
 8002d62:	e033      	b.n	8002dcc <I2C_WaitOnTXISFlagUntilTimeout+0x76>
  {
    /* Check if an error is detected */
    if (I2C_IsErrorOccurred(hi2c, Timeout, Tickstart) != HAL_OK)
 8002d64:	687a      	ldr	r2, [r7, #4]
 8002d66:	68b9      	ldr	r1, [r7, #8]
 8002d68:	68f8      	ldr	r0, [r7, #12]
 8002d6a:	f000 f901 	bl	8002f70 <I2C_IsErrorOccurred>
 8002d6e:	4603      	mov	r3, r0
 8002d70:	2b00      	cmp	r3, #0
 8002d72:	d001      	beq.n	8002d78 <I2C_WaitOnTXISFlagUntilTimeout+0x22>
    {
      return HAL_ERROR;
 8002d74:	2301      	movs	r3, #1
 8002d76:	e031      	b.n	8002ddc <I2C_WaitOnTXISFlagUntilTimeout+0x86>
    }

    /* Check for the Timeout */
    if (Timeout != HAL_MAX_DELAY)
 8002d78:	68bb      	ldr	r3, [r7, #8]
 8002d7a:	f1b3 3fff 	cmp.w	r3, #4294967295
 8002d7e:	d025      	beq.n	8002dcc <I2C_WaitOnTXISFlagUntilTimeout+0x76>
    {
      if (((HAL_GetTick() - Tickstart) > Timeout) || (Timeout == 0U))
 8002d80:	f7ff fa44 	bl	800220c <HAL_GetTick>
 8002d84:	4602      	mov	r2, r0
 8002d86:	687b      	ldr	r3, [r7, #4]
 8002d88:	1ad3      	subs	r3, r2, r3
 8002d8a:	68ba      	ldr	r2, [r7, #8]
 8002d8c:	429a      	cmp	r2, r3
 8002d8e:	d302      	bcc.n	8002d96 <I2C_WaitOnTXISFlagUntilTimeout+0x40>
 8002d90:	68bb      	ldr	r3, [r7, #8]
 8002d92:	2b00      	cmp	r3, #0
 8002d94:	d11a      	bne.n	8002dcc <I2C_WaitOnTXISFlagUntilTimeout+0x76>
      {
        if ((__HAL_I2C_GET_FLAG(hi2c, I2C_FLAG_TXIS) == RESET))
 8002d96:	68fb      	ldr	r3, [r7, #12]
 8002d98:	681b      	ldr	r3, [r3, #0]
 8002d9a:	699b      	ldr	r3, [r3, #24]
 8002d9c:	f003 0302 	and.w	r3, r3, #2
 8002da0:	2b02      	cmp	r3, #2
 8002da2:	d013      	beq.n	8002dcc <I2C_WaitOnTXISFlagUntilTimeout+0x76>
        {
          hi2c->ErrorCode |= HAL_I2C_ERROR_TIMEOUT;
 8002da4:	68fb      	ldr	r3, [r7, #12]
 8002da6:	6c5b      	ldr	r3, [r3, #68]	; 0x44
 8002da8:	f043 0220 	orr.w	r2, r3, #32
 8002dac:	68fb      	ldr	r3, [r7, #12]
 8002dae:	645a      	str	r2, [r3, #68]	; 0x44
          hi2c->State = HAL_I2C_STATE_READY;
 8002db0:	68fb      	ldr	r3, [r7, #12]
 8002db2:	2220      	movs	r2, #32
 8002db4:	f883 2041 	strb.w	r2, [r3, #65]	; 0x41
          hi2c->Mode = HAL_I2C_MODE_NONE;
 8002db8:	68fb      	ldr	r3, [r7, #12]
 8002dba:	2200      	movs	r2, #0
 8002dbc:	f883 2042 	strb.w	r2, [r3, #66]	; 0x42

          /* Process Unlocked */
          __HAL_UNLOCK(hi2c);
 8002dc0:	68fb      	ldr	r3, [r7, #12]
 8002dc2:	2200      	movs	r2, #0
 8002dc4:	f883 2040 	strb.w	r2, [r3, #64]	; 0x40

          return HAL_ERROR;
 8002dc8:	2301      	movs	r3, #1
 8002dca:	e007      	b.n	8002ddc <I2C_WaitOnTXISFlagUntilTimeout+0x86>
  while (__HAL_I2C_GET_FLAG(hi2c, I2C_FLAG_TXIS) == RESET)
 8002dcc:	68fb      	ldr	r3, [r7, #12]
 8002dce:	681b      	ldr	r3, [r3, #0]
 8002dd0:	699b      	ldr	r3, [r3, #24]
 8002dd2:	f003 0302 	and.w	r3, r3, #2
 8002dd6:	2b02      	cmp	r3, #2
 8002dd8:	d1c4      	bne.n	8002d64 <I2C_WaitOnTXISFlagUntilTimeout+0xe>
        }
      }
    }
  }
  return HAL_OK;
 8002dda:	2300      	movs	r3, #0
}
 8002ddc:	4618      	mov	r0, r3
 8002dde:	3710      	adds	r7, #16
 8002de0:	46bd      	mov	sp, r7
 8002de2:	bd80      	pop	{r7, pc}

08002de4 <I2C_WaitOnSTOPFlagUntilTimeout>:
  * @param  Tickstart Tick start value
  * @retval HAL status
  */
static HAL_StatusTypeDef I2C_WaitOnSTOPFlagUntilTimeout(I2C_HandleTypeDef *hi2c, uint32_t Timeout,
                                                        uint32_t Tickstart)
{
 8002de4:	b580      	push	{r7, lr}
 8002de6:	b084      	sub	sp, #16
 8002de8:	af00      	add	r7, sp, #0
 8002dea:	60f8      	str	r0, [r7, #12]
 8002dec:	60b9      	str	r1, [r7, #8]
 8002dee:	607a      	str	r2, [r7, #4]
  while (__HAL_I2C_GET_FLAG(hi2c, I2C_FLAG_STOPF) == RESET)
 8002df0:	e02f      	b.n	8002e52 <I2C_WaitOnSTOPFlagUntilTimeout+0x6e>
  {
    /* Check if an error is detected */
    if (I2C_IsErrorOccurred(hi2c, Timeout, Tickstart) != HAL_OK)
 8002df2:	687a      	ldr	r2, [r7, #4]
 8002df4:	68b9      	ldr	r1, [r7, #8]
 8002df6:	68f8      	ldr	r0, [r7, #12]
 8002df8:	f000 f8ba 	bl	8002f70 <I2C_IsErrorOccurred>
 8002dfc:	4603      	mov	r3, r0
 8002dfe:	2b00      	cmp	r3, #0
 8002e00:	d001      	beq.n	8002e06 <I2C_WaitOnSTOPFlagUntilTimeout+0x22>
    {
      return HAL_ERROR;
 8002e02:	2301      	movs	r3, #1
 8002e04:	e02d      	b.n	8002e62 <I2C_WaitOnSTOPFlagUntilTimeout+0x7e>
    }

    /* Check for the Timeout */
    if (((HAL_GetTick() - Tickstart) > Timeout) || (Timeout == 0U))
 8002e06:	f7ff fa01 	bl	800220c <HAL_GetTick>
 8002e0a:	4602      	mov	r2, r0
 8002e0c:	687b      	ldr	r3, [r7, #4]
 8002e0e:	1ad3      	subs	r3, r2, r3
 8002e10:	68ba      	ldr	r2, [r7, #8]
 8002e12:	429a      	cmp	r2, r3
 8002e14:	d302      	bcc.n	8002e1c <I2C_WaitOnSTOPFlagUntilTimeout+0x38>
 8002e16:	68bb      	ldr	r3, [r7, #8]
 8002e18:	2b00      	cmp	r3, #0
 8002e1a:	d11a      	bne.n	8002e52 <I2C_WaitOnSTOPFlagUntilTimeout+0x6e>
    {
      if ((__HAL_I2C_GET_FLAG(hi2c, I2C_FLAG_STOPF) == RESET))
 8002e1c:	68fb      	ldr	r3, [r7, #12]
 8002e1e:	681b      	ldr	r3, [r3, #0]
 8002e20:	699b      	ldr	r3, [r3, #24]
 8002e22:	f003 0320 	and.w	r3, r3, #32
 8002e26:	2b20      	cmp	r3, #32
 8002e28:	d013      	beq.n	8002e52 <I2C_WaitOnSTOPFlagUntilTimeout+0x6e>
      {
        hi2c->ErrorCode |= HAL_I2C_ERROR_TIMEOUT;
 8002e2a:	68fb      	ldr	r3, [r7, #12]
 8002e2c:	6c5b      	ldr	r3, [r3, #68]	; 0x44
 8002e2e:	f043 0220 	orr.w	r2, r3, #32
 8002e32:	68fb      	ldr	r3, [r7, #12]
 8002e34:	645a      	str	r2, [r3, #68]	; 0x44
        hi2c->State = HAL_I2C_STATE_READY;
 8002e36:	68fb      	ldr	r3, [r7, #12]
 8002e38:	2220      	movs	r2, #32
 8002e3a:	f883 2041 	strb.w	r2, [r3, #65]	; 0x41
        hi2c->Mode = HAL_I2C_MODE_NONE;
 8002e3e:	68fb      	ldr	r3, [r7, #12]
 8002e40:	2200      	movs	r2, #0
 8002e42:	f883 2042 	strb.w	r2, [r3, #66]	; 0x42

        /* Process Unlocked */
        __HAL_UNLOCK(hi2c);
 8002e46:	68fb      	ldr	r3, [r7, #12]
 8002e48:	2200      	movs	r2, #0
 8002e4a:	f883 2040 	strb.w	r2, [r3, #64]	; 0x40

        return HAL_ERROR;
 8002e4e:	2301      	movs	r3, #1
 8002e50:	e007      	b.n	8002e62 <I2C_WaitOnSTOPFlagUntilTimeout+0x7e>
  while (__HAL_I2C_GET_FLAG(hi2c, I2C_FLAG_STOPF) == RESET)
 8002e52:	68fb      	ldr	r3, [r7, #12]
 8002e54:	681b      	ldr	r3, [r3, #0]
 8002e56:	699b      	ldr	r3, [r3, #24]
 8002e58:	f003 0320 	and.w	r3, r3, #32
 8002e5c:	2b20      	cmp	r3, #32
 8002e5e:	d1c8      	bne.n	8002df2 <I2C_WaitOnSTOPFlagUntilTimeout+0xe>
      }
    }
  }
  return HAL_OK;
 8002e60:	2300      	movs	r3, #0
}
 8002e62:	4618      	mov	r0, r3
 8002e64:	3710      	adds	r7, #16
 8002e66:	46bd      	mov	sp, r7
 8002e68:	bd80      	pop	{r7, pc}
	...

08002e6c <I2C_WaitOnRXNEFlagUntilTimeout>:
  * @param  Tickstart Tick start value
  * @retval HAL status
  */
static HAL_StatusTypeDef I2C_WaitOnRXNEFlagUntilTimeout(I2C_HandleTypeDef *hi2c, uint32_t Timeout,
                                                        uint32_t Tickstart)
{
 8002e6c:	b580      	push	{r7, lr}
 8002e6e:	b084      	sub	sp, #16
 8002e70:	af00      	add	r7, sp, #0
 8002e72:	60f8      	str	r0, [r7, #12]
 8002e74:	60b9      	str	r1, [r7, #8]
 8002e76:	607a      	str	r2, [r7, #4]
  while (__HAL_I2C_GET_FLAG(hi2c, I2C_FLAG_RXNE) == RESET)
 8002e78:	e06b      	b.n	8002f52 <I2C_WaitOnRXNEFlagUntilTimeout+0xe6>
  {
    /* Check if an error is detected */
    if (I2C_IsErrorOccurred(hi2c, Timeout, Tickstart) != HAL_OK)
 8002e7a:	687a      	ldr	r2, [r7, #4]
 8002e7c:	68b9      	ldr	r1, [r7, #8]
 8002e7e:	68f8      	ldr	r0, [r7, #12]
 8002e80:	f000 f876 	bl	8002f70 <I2C_IsErrorOccurred>
 8002e84:	4603      	mov	r3, r0
 8002e86:	2b00      	cmp	r3, #0
 8002e88:	d001      	beq.n	8002e8e <I2C_WaitOnRXNEFlagUntilTimeout+0x22>
    {
      return HAL_ERROR;
 8002e8a:	2301      	movs	r3, #1
 8002e8c:	e069      	b.n	8002f62 <I2C_WaitOnRXNEFlagUntilTimeout+0xf6>
    }

    /* Check if a STOPF is detected */
    if (__HAL_I2C_GET_FLAG(hi2c, I2C_FLAG_STOPF) == SET)
 8002e8e:	68fb      	ldr	r3, [r7, #12]
 8002e90:	681b      	ldr	r3, [r3, #0]
 8002e92:	699b      	ldr	r3, [r3, #24]
 8002e94:	f003 0320 	and.w	r3, r3, #32
 8002e98:	2b20      	cmp	r3, #32
 8002e9a:	d138      	bne.n	8002f0e <I2C_WaitOnRXNEFlagUntilTimeout+0xa2>
    {
      /* Check if an RXNE is pending */
      /* Store Last receive data if any */
      if ((__HAL_I2C_GET_FLAG(hi2c, I2C_FLAG_RXNE) == SET) && (hi2c->XferSize > 0U))
 8002e9c:	68fb      	ldr	r3, [r7, #12]
 8002e9e:	681b      	ldr	r3, [r3, #0]
 8002ea0:	699b      	ldr	r3, [r3, #24]
 8002ea2:	f003 0304 	and.w	r3, r3, #4
 8002ea6:	2b04      	cmp	r3, #4
 8002ea8:	d105      	bne.n	8002eb6 <I2C_WaitOnRXNEFlagUntilTimeout+0x4a>
 8002eaa:	68fb      	ldr	r3, [r7, #12]
 8002eac:	8d1b      	ldrh	r3, [r3, #40]	; 0x28
 8002eae:	2b00      	cmp	r3, #0
 8002eb0:	d001      	beq.n	8002eb6 <I2C_WaitOnRXNEFlagUntilTimeout+0x4a>
      {
        /* Return HAL_OK */
        /* The Reading of data from RXDR will be done in caller function */
        return HAL_OK;
 8002eb2:	2300      	movs	r3, #0
 8002eb4:	e055      	b.n	8002f62 <I2C_WaitOnRXNEFlagUntilTimeout+0xf6>
      }
      else
      {
        if (__HAL_I2C_GET_FLAG(hi2c, I2C_FLAG_AF) == SET)
 8002eb6:	68fb      	ldr	r3, [r7, #12]
 8002eb8:	681b      	ldr	r3, [r3, #0]
 8002eba:	699b      	ldr	r3, [r3, #24]
 8002ebc:	f003 0310 	and.w	r3, r3, #16
 8002ec0:	2b10      	cmp	r3, #16
 8002ec2:	d107      	bne.n	8002ed4 <I2C_WaitOnRXNEFlagUntilTimeout+0x68>
        {
          __HAL_I2C_CLEAR_FLAG(hi2c, I2C_FLAG_AF);
 8002ec4:	68fb      	ldr	r3, [r7, #12]
 8002ec6:	681b      	ldr	r3, [r3, #0]
 8002ec8:	2210      	movs	r2, #16
 8002eca:	61da      	str	r2, [r3, #28]
          hi2c->ErrorCode = HAL_I2C_ERROR_AF;
 8002ecc:	68fb      	ldr	r3, [r7, #12]
 8002ece:	2204      	movs	r2, #4
 8002ed0:	645a      	str	r2, [r3, #68]	; 0x44
 8002ed2:	e002      	b.n	8002eda <I2C_WaitOnRXNEFlagUntilTimeout+0x6e>
        }
        else
        {
          hi2c->ErrorCode = HAL_I2C_ERROR_NONE;
 8002ed4:	68fb      	ldr	r3, [r7, #12]
 8002ed6:	2200      	movs	r2, #0
 8002ed8:	645a      	str	r2, [r3, #68]	; 0x44
        }

        /* Clear STOP Flag */
        __HAL_I2C_CLEAR_FLAG(hi2c, I2C_FLAG_STOPF);
 8002eda:	68fb      	ldr	r3, [r7, #12]
 8002edc:	681b      	ldr	r3, [r3, #0]
 8002ede:	2220      	movs	r2, #32
 8002ee0:	61da      	str	r2, [r3, #28]

        /* Clear Configuration Register 2 */
        I2C_RESET_CR2(hi2c);
 8002ee2:	68fb      	ldr	r3, [r7, #12]
 8002ee4:	681b      	ldr	r3, [r3, #0]
 8002ee6:	6859      	ldr	r1, [r3, #4]
 8002ee8:	68fb      	ldr	r3, [r7, #12]
 8002eea:	681a      	ldr	r2, [r3, #0]
 8002eec:	4b1f      	ldr	r3, [pc, #124]	; (8002f6c <I2C_WaitOnRXNEFlagUntilTimeout+0x100>)
 8002eee:	400b      	ands	r3, r1
 8002ef0:	6053      	str	r3, [r2, #4]

        hi2c->State = HAL_I2C_STATE_READY;
 8002ef2:	68fb      	ldr	r3, [r7, #12]
 8002ef4:	2220      	movs	r2, #32
 8002ef6:	f883 2041 	strb.w	r2, [r3, #65]	; 0x41
        hi2c->Mode = HAL_I2C_MODE_NONE;
 8002efa:	68fb      	ldr	r3, [r7, #12]
 8002efc:	2200      	movs	r2, #0
 8002efe:	f883 2042 	strb.w	r2, [r3, #66]	; 0x42

        /* Process Unlocked */
        __HAL_UNLOCK(hi2c);
 8002f02:	68fb      	ldr	r3, [r7, #12]
 8002f04:	2200      	movs	r2, #0
 8002f06:	f883 2040 	strb.w	r2, [r3, #64]	; 0x40

        return HAL_ERROR;
 8002f0a:	2301      	movs	r3, #1
 8002f0c:	e029      	b.n	8002f62 <I2C_WaitOnRXNEFlagUntilTimeout+0xf6>
      }
    }

    /* Check for the Timeout */
    if (((HAL_GetTick() - Tickstart) > Timeout) || (Timeout == 0U))
 8002f0e:	f7ff f97d 	bl	800220c <HAL_GetTick>
 8002f12:	4602      	mov	r2, r0
 8002f14:	687b      	ldr	r3, [r7, #4]
 8002f16:	1ad3      	subs	r3, r2, r3
 8002f18:	68ba      	ldr	r2, [r7, #8]
 8002f1a:	429a      	cmp	r2, r3
 8002f1c:	d302      	bcc.n	8002f24 <I2C_WaitOnRXNEFlagUntilTimeout+0xb8>
 8002f1e:	68bb      	ldr	r3, [r7, #8]
 8002f20:	2b00      	cmp	r3, #0
 8002f22:	d116      	bne.n	8002f52 <I2C_WaitOnRXNEFlagUntilTimeout+0xe6>
    {
      if ((__HAL_I2C_GET_FLAG(hi2c, I2C_FLAG_RXNE) == RESET))
 8002f24:	68fb      	ldr	r3, [r7, #12]
 8002f26:	681b      	ldr	r3, [r3, #0]
 8002f28:	699b      	ldr	r3, [r3, #24]
 8002f2a:	f003 0304 	and.w	r3, r3, #4
 8002f2e:	2b04      	cmp	r3, #4
 8002f30:	d00f      	beq.n	8002f52 <I2C_WaitOnRXNEFlagUntilTimeout+0xe6>
      {
        hi2c->ErrorCode |= HAL_I2C_ERROR_TIMEOUT;
 8002f32:	68fb      	ldr	r3, [r7, #12]
 8002f34:	6c5b      	ldr	r3, [r3, #68]	; 0x44
 8002f36:	f043 0220 	orr.w	r2, r3, #32
 8002f3a:	68fb      	ldr	r3, [r7, #12]
 8002f3c:	645a      	str	r2, [r3, #68]	; 0x44
        hi2c->State = HAL_I2C_STATE_READY;
 8002f3e:	68fb      	ldr	r3, [r7, #12]
 8002f40:	2220      	movs	r2, #32
 8002f42:	f883 2041 	strb.w	r2, [r3, #65]	; 0x41

        /* Process Unlocked */
        __HAL_UNLOCK(hi2c);
 8002f46:	68fb      	ldr	r3, [r7, #12]
 8002f48:	2200      	movs	r2, #0
 8002f4a:	f883 2040 	strb.w	r2, [r3, #64]	; 0x40

        return HAL_ERROR;
 8002f4e:	2301      	movs	r3, #1
 8002f50:	e007      	b.n	8002f62 <I2C_WaitOnRXNEFlagUntilTimeout+0xf6>
  while (__HAL_I2C_GET_FLAG(hi2c, I2C_FLAG_RXNE) == RESET)
 8002f52:	68fb      	ldr	r3, [r7, #12]
 8002f54:	681b      	ldr	r3, [r3, #0]
 8002f56:	699b      	ldr	r3, [r3, #24]
 8002f58:	f003 0304 	and.w	r3, r3, #4
 8002f5c:	2b04      	cmp	r3, #4
 8002f5e:	d18c      	bne.n	8002e7a <I2C_WaitOnRXNEFlagUntilTimeout+0xe>
      }
    }
  }
  return HAL_OK;
 8002f60:	2300      	movs	r3, #0
}
 8002f62:	4618      	mov	r0, r3
 8002f64:	3710      	adds	r7, #16
 8002f66:	46bd      	mov	sp, r7
 8002f68:	bd80      	pop	{r7, pc}
 8002f6a:	bf00      	nop
 8002f6c:	fe00e800 	.word	0xfe00e800

08002f70 <I2C_IsErrorOccurred>:
  * @param  Timeout Timeout duration
  * @param  Tickstart Tick start value
  * @retval HAL status
  */
static HAL_StatusTypeDef I2C_IsErrorOccurred(I2C_HandleTypeDef *hi2c, uint32_t Timeout, uint32_t Tickstart)
{
 8002f70:	b580      	push	{r7, lr}
 8002f72:	b08a      	sub	sp, #40	; 0x28
 8002f74:	af00      	add	r7, sp, #0
 8002f76:	60f8      	str	r0, [r7, #12]
 8002f78:	60b9      	str	r1, [r7, #8]
 8002f7a:	607a      	str	r2, [r7, #4]
  HAL_StatusTypeDef status = HAL_OK;
 8002f7c:	2300      	movs	r3, #0
 8002f7e:	f887 3027 	strb.w	r3, [r7, #39]	; 0x27
  uint32_t itflag   = hi2c->Instance->ISR;
 8002f82:	68fb      	ldr	r3, [r7, #12]
 8002f84:	681b      	ldr	r3, [r3, #0]
 8002f86:	699b      	ldr	r3, [r3, #24]
 8002f88:	61bb      	str	r3, [r7, #24]
  uint32_t error_code = 0;
 8002f8a:	2300      	movs	r3, #0
 8002f8c:	623b      	str	r3, [r7, #32]
  uint32_t tickstart = Tickstart;
 8002f8e:	687b      	ldr	r3, [r7, #4]
 8002f90:	61fb      	str	r3, [r7, #28]
  uint32_t tmp1;
  HAL_I2C_ModeTypeDef tmp2;

  if (HAL_IS_BIT_SET(itflag, I2C_FLAG_AF))
 8002f92:	69bb      	ldr	r3, [r7, #24]
 8002f94:	f003 0310 	and.w	r3, r3, #16
 8002f98:	2b00      	cmp	r3, #0
 8002f9a:	d068      	beq.n	800306e <I2C_IsErrorOccurred+0xfe>
  {
    /* Clear NACKF Flag */
    __HAL_I2C_CLEAR_FLAG(hi2c, I2C_FLAG_AF);
 8002f9c:	68fb      	ldr	r3, [r7, #12]
 8002f9e:	681b      	ldr	r3, [r3, #0]
 8002fa0:	2210      	movs	r2, #16
 8002fa2:	61da      	str	r2, [r3, #28]

    /* Wait until STOP Flag is set or timeout occurred */
    /* AutoEnd should be initiate after AF */
    while ((__HAL_I2C_GET_FLAG(hi2c, I2C_FLAG_STOPF) == RESET) && (status == HAL_OK))
 8002fa4:	e049      	b.n	800303a <I2C_IsErrorOccurred+0xca>
    {
      /* Check for the Timeout */
      if (Timeout != HAL_MAX_DELAY)
 8002fa6:	68bb      	ldr	r3, [r7, #8]
 8002fa8:	f1b3 3fff 	cmp.w	r3, #4294967295
 8002fac:	d045      	beq.n	800303a <I2C_IsErrorOccurred+0xca>
      {
        if (((HAL_GetTick() - tickstart) > Timeout) || (Timeout == 0U))
 8002fae:	f7ff f92d 	bl	800220c <HAL_GetTick>
 8002fb2:	4602      	mov	r2, r0
 8002fb4:	69fb      	ldr	r3, [r7, #28]
 8002fb6:	1ad3      	subs	r3, r2, r3
 8002fb8:	68ba      	ldr	r2, [r7, #8]
 8002fba:	429a      	cmp	r2, r3
 8002fbc:	d302      	bcc.n	8002fc4 <I2C_IsErrorOccurred+0x54>
 8002fbe:	68bb      	ldr	r3, [r7, #8]
 8002fc0:	2b00      	cmp	r3, #0
 8002fc2:	d13a      	bne.n	800303a <I2C_IsErrorOccurred+0xca>
        {
          tmp1 = (uint32_t)(hi2c->Instance->CR2 & I2C_CR2_STOP);
 8002fc4:	68fb      	ldr	r3, [r7, #12]
 8002fc6:	681b      	ldr	r3, [r3, #0]
 8002fc8:	685b      	ldr	r3, [r3, #4]
 8002fca:	f403 4380 	and.w	r3, r3, #16384	; 0x4000
 8002fce:	617b      	str	r3, [r7, #20]
          tmp2 = hi2c->Mode;
 8002fd0:	68fb      	ldr	r3, [r7, #12]
 8002fd2:	f893 3042 	ldrb.w	r3, [r3, #66]	; 0x42
 8002fd6:	74fb      	strb	r3, [r7, #19]

          /* In case of I2C still busy, try to regenerate a STOP manually */
          if ((__HAL_I2C_GET_FLAG(hi2c, I2C_FLAG_BUSY) != RESET) && \
 8002fd8:	68fb      	ldr	r3, [r7, #12]
 8002fda:	681b      	ldr	r3, [r3, #0]
 8002fdc:	699b      	ldr	r3, [r3, #24]
 8002fde:	f403 4300 	and.w	r3, r3, #32768	; 0x8000
 8002fe2:	f5b3 4f00 	cmp.w	r3, #32768	; 0x8000
 8002fe6:	d121      	bne.n	800302c <I2C_IsErrorOccurred+0xbc>
 8002fe8:	697b      	ldr	r3, [r7, #20]
 8002fea:	f5b3 4f80 	cmp.w	r3, #16384	; 0x4000
 8002fee:	d01d      	beq.n	800302c <I2C_IsErrorOccurred+0xbc>
              (tmp1 != I2C_CR2_STOP) && \
 8002ff0:	7cfb      	ldrb	r3, [r7, #19]
 8002ff2:	2b20      	cmp	r3, #32
 8002ff4:	d01a      	beq.n	800302c <I2C_IsErrorOccurred+0xbc>
              (tmp2 != HAL_I2C_MODE_SLAVE))
          {
            /* Generate Stop */
            hi2c->Instance->CR2 |= I2C_CR2_STOP;
 8002ff6:	68fb      	ldr	r3, [r7, #12]
 8002ff8:	681b      	ldr	r3, [r3, #0]
 8002ffa:	685a      	ldr	r2, [r3, #4]
 8002ffc:	68fb      	ldr	r3, [r7, #12]
 8002ffe:	681b      	ldr	r3, [r3, #0]
 8003000:	f442 4280 	orr.w	r2, r2, #16384	; 0x4000
 8003004:	605a      	str	r2, [r3, #4]

            /* Update Tick with new reference */
            tickstart = HAL_GetTick();
 8003006:	f7ff f901 	bl	800220c <HAL_GetTick>
 800300a:	61f8      	str	r0, [r7, #28]
          }

          while (__HAL_I2C_GET_FLAG(hi2c, I2C_FLAG_STOPF) == RESET)
 800300c:	e00e      	b.n	800302c <I2C_IsErrorOccurred+0xbc>
          {
            /* Check for the Timeout */
            if ((HAL_GetTick() - tickstart) > I2C_TIMEOUT_STOPF)
 800300e:	f7ff f8fd 	bl	800220c <HAL_GetTick>
 8003012:	4602      	mov	r2, r0
 8003014:	69fb      	ldr	r3, [r7, #28]
 8003016:	1ad3      	subs	r3, r2, r3
 8003018:	2b19      	cmp	r3, #25
 800301a:	d907      	bls.n	800302c <I2C_IsErrorOccurred+0xbc>
            {
              error_code |= HAL_I2C_ERROR_TIMEOUT;
 800301c:	6a3b      	ldr	r3, [r7, #32]
 800301e:	f043 0320 	orr.w	r3, r3, #32
 8003022:	623b      	str	r3, [r7, #32]

              status = HAL_ERROR;
 8003024:	2301      	movs	r3, #1
 8003026:	f887 3027 	strb.w	r3, [r7, #39]	; 0x27

              break;
 800302a:	e006      	b.n	800303a <I2C_IsErrorOccurred+0xca>
          while (__HAL_I2C_GET_FLAG(hi2c, I2C_FLAG_STOPF) == RESET)
 800302c:	68fb      	ldr	r3, [r7, #12]
 800302e:	681b      	ldr	r3, [r3, #0]
 8003030:	699b      	ldr	r3, [r3, #24]
 8003032:	f003 0320 	and.w	r3, r3, #32
 8003036:	2b20      	cmp	r3, #32
 8003038:	d1e9      	bne.n	800300e <I2C_IsErrorOccurred+0x9e>
    while ((__HAL_I2C_GET_FLAG(hi2c, I2C_FLAG_STOPF) == RESET) && (status == HAL_OK))
 800303a:	68fb      	ldr	r3, [r7, #12]
 800303c:	681b      	ldr	r3, [r3, #0]
 800303e:	699b      	ldr	r3, [r3, #24]
 8003040:	f003 0320 	and.w	r3, r3, #32
 8003044:	2b20      	cmp	r3, #32
 8003046:	d003      	beq.n	8003050 <I2C_IsErrorOccurred+0xe0>
 8003048:	f897 3027 	ldrb.w	r3, [r7, #39]	; 0x27
 800304c:	2b00      	cmp	r3, #0
 800304e:	d0aa      	beq.n	8002fa6 <I2C_IsErrorOccurred+0x36>
        }
      }
    }

    /* In case STOP Flag is detected, clear it */
    if (status == HAL_OK)
 8003050:	f897 3027 	ldrb.w	r3, [r7, #39]	; 0x27
 8003054:	2b00      	cmp	r3, #0
 8003056:	d103      	bne.n	8003060 <I2C_IsErrorOccurred+0xf0>
    {
      /* Clear STOP Flag */
      __HAL_I2C_CLEAR_FLAG(hi2c, I2C_FLAG_STOPF);
 8003058:	68fb      	ldr	r3, [r7, #12]
 800305a:	681b      	ldr	r3, [r3, #0]
 800305c:	2220      	movs	r2, #32
 800305e:	61da      	str	r2, [r3, #28]
    }

    error_code |= HAL_I2C_ERROR_AF;
 8003060:	6a3b      	ldr	r3, [r7, #32]
 8003062:	f043 0304 	orr.w	r3, r3, #4
 8003066:	623b      	str	r3, [r7, #32]

    status = HAL_ERROR;
 8003068:	2301      	movs	r3, #1
 800306a:	f887 3027 	strb.w	r3, [r7, #39]	; 0x27
  }

  /* Refresh Content of Status register */
  itflag = hi2c->Instance->ISR;
 800306e:	68fb      	ldr	r3, [r7, #12]
 8003070:	681b      	ldr	r3, [r3, #0]
 8003072:	699b      	ldr	r3, [r3, #24]
 8003074:	61bb      	str	r3, [r7, #24]

  /* Then verify if an additional errors occurs */
  /* Check if a Bus error occurred */
  if (HAL_IS_BIT_SET(itflag, I2C_FLAG_BERR))
 8003076:	69bb      	ldr	r3, [r7, #24]
 8003078:	f403 7380 	and.w	r3, r3, #256	; 0x100
 800307c:	2b00      	cmp	r3, #0
 800307e:	d00b      	beq.n	8003098 <I2C_IsErrorOccurred+0x128>
  {
    error_code |= HAL_I2C_ERROR_BERR;
 8003080:	6a3b      	ldr	r3, [r7, #32]
 8003082:	f043 0301 	orr.w	r3, r3, #1
 8003086:	623b      	str	r3, [r7, #32]

    /* Clear BERR flag */
    __HAL_I2C_CLEAR_FLAG(hi2c, I2C_FLAG_BERR);
 8003088:	68fb      	ldr	r3, [r7, #12]
 800308a:	681b      	ldr	r3, [r3, #0]
 800308c:	f44f 7280 	mov.w	r2, #256	; 0x100
 8003090:	61da      	str	r2, [r3, #28]

    status = HAL_ERROR;
 8003092:	2301      	movs	r3, #1
 8003094:	f887 3027 	strb.w	r3, [r7, #39]	; 0x27
  }

  /* Check if an Over-Run/Under-Run error occurred */
  if (HAL_IS_BIT_SET(itflag, I2C_FLAG_OVR))
 8003098:	69bb      	ldr	r3, [r7, #24]
 800309a:	f403 6380 	and.w	r3, r3, #1024	; 0x400
 800309e:	2b00      	cmp	r3, #0
 80030a0:	d00b      	beq.n	80030ba <I2C_IsErrorOccurred+0x14a>
  {
    error_code |= HAL_I2C_ERROR_OVR;
 80030a2:	6a3b      	ldr	r3, [r7, #32]
 80030a4:	f043 0308 	orr.w	r3, r3, #8
 80030a8:	623b      	str	r3, [r7, #32]

    /* Clear OVR flag */
    __HAL_I2C_CLEAR_FLAG(hi2c, I2C_FLAG_OVR);
 80030aa:	68fb      	ldr	r3, [r7, #12]
 80030ac:	681b      	ldr	r3, [r3, #0]
 80030ae:	f44f 6280 	mov.w	r2, #1024	; 0x400
 80030b2:	61da      	str	r2, [r3, #28]

    status = HAL_ERROR;
 80030b4:	2301      	movs	r3, #1
 80030b6:	f887 3027 	strb.w	r3, [r7, #39]	; 0x27
  }

  /* Check if an Arbitration Loss error occurred */
  if (HAL_IS_BIT_SET(itflag, I2C_FLAG_ARLO))
 80030ba:	69bb      	ldr	r3, [r7, #24]
 80030bc:	f403 7300 	and.w	r3, r3, #512	; 0x200
 80030c0:	2b00      	cmp	r3, #0
 80030c2:	d00b      	beq.n	80030dc <I2C_IsErrorOccurred+0x16c>
  {
    error_code |= HAL_I2C_ERROR_ARLO;
 80030c4:	6a3b      	ldr	r3, [r7, #32]
 80030c6:	f043 0302 	orr.w	r3, r3, #2
 80030ca:	623b      	str	r3, [r7, #32]

    /* Clear ARLO flag */
    __HAL_I2C_CLEAR_FLAG(hi2c, I2C_FLAG_ARLO);
 80030cc:	68fb      	ldr	r3, [r7, #12]
 80030ce:	681b      	ldr	r3, [r3, #0]
 80030d0:	f44f 7200 	mov.w	r2, #512	; 0x200
 80030d4:	61da      	str	r2, [r3, #28]

    status = HAL_ERROR;
 80030d6:	2301      	movs	r3, #1
 80030d8:	f887 3027 	strb.w	r3, [r7, #39]	; 0x27
  }

  if (status != HAL_OK)
 80030dc:	f897 3027 	ldrb.w	r3, [r7, #39]	; 0x27
 80030e0:	2b00      	cmp	r3, #0
 80030e2:	d01c      	beq.n	800311e <I2C_IsErrorOccurred+0x1ae>
  {
    /* Flush TX register */
    I2C_Flush_TXDR(hi2c);
 80030e4:	68f8      	ldr	r0, [r7, #12]
 80030e6:	f7ff fdc3 	bl	8002c70 <I2C_Flush_TXDR>

    /* Clear Configuration Register 2 */
    I2C_RESET_CR2(hi2c);
 80030ea:	68fb      	ldr	r3, [r7, #12]
 80030ec:	681b      	ldr	r3, [r3, #0]
 80030ee:	6859      	ldr	r1, [r3, #4]
 80030f0:	68fb      	ldr	r3, [r7, #12]
 80030f2:	681a      	ldr	r2, [r3, #0]
 80030f4:	4b0d      	ldr	r3, [pc, #52]	; (800312c <I2C_IsErrorOccurred+0x1bc>)
 80030f6:	400b      	ands	r3, r1
 80030f8:	6053      	str	r3, [r2, #4]

    hi2c->ErrorCode |= error_code;
 80030fa:	68fb      	ldr	r3, [r7, #12]
 80030fc:	6c5a      	ldr	r2, [r3, #68]	; 0x44
 80030fe:	6a3b      	ldr	r3, [r7, #32]
 8003100:	431a      	orrs	r2, r3
 8003102:	68fb      	ldr	r3, [r7, #12]
 8003104:	645a      	str	r2, [r3, #68]	; 0x44
    hi2c->State = HAL_I2C_STATE_READY;
 8003106:	68fb      	ldr	r3, [r7, #12]
 8003108:	2220      	movs	r2, #32
 800310a:	f883 2041 	strb.w	r2, [r3, #65]	; 0x41
    hi2c->Mode = HAL_I2C_MODE_NONE;
 800310e:	68fb      	ldr	r3, [r7, #12]
 8003110:	2200      	movs	r2, #0
 8003112:	f883 2042 	strb.w	r2, [r3, #66]	; 0x42

    /* Process Unlocked */
    __HAL_UNLOCK(hi2c);
 8003116:	68fb      	ldr	r3, [r7, #12]
 8003118:	2200      	movs	r2, #0
 800311a:	f883 2040 	strb.w	r2, [r3, #64]	; 0x40
  }

  return status;
 800311e:	f897 3027 	ldrb.w	r3, [r7, #39]	; 0x27
}
 8003122:	4618      	mov	r0, r3
 8003124:	3728      	adds	r7, #40	; 0x28
 8003126:	46bd      	mov	sp, r7
 8003128:	bd80      	pop	{r7, pc}
 800312a:	bf00      	nop
 800312c:	fe00e800 	.word	0xfe00e800

08003130 <I2C_TransferConfig>:
  *     @arg @ref I2C_GENERATE_START_WRITE Generate Restart for write request.
  * @retval None
  */
static void I2C_TransferConfig(I2C_HandleTypeDef *hi2c, uint16_t DevAddress, uint8_t Size, uint32_t Mode,
                               uint32_t Request)
{
 8003130:	b480      	push	{r7}
 8003132:	b087      	sub	sp, #28
 8003134:	af00      	add	r7, sp, #0
 8003136:	60f8      	str	r0, [r7, #12]
 8003138:	607b      	str	r3, [r7, #4]
 800313a:	460b      	mov	r3, r1
 800313c:	817b      	strh	r3, [r7, #10]
 800313e:	4613      	mov	r3, r2
 8003140:	727b      	strb	r3, [r7, #9]
  assert_param(IS_I2C_ALL_INSTANCE(hi2c->Instance));
  assert_param(IS_TRANSFER_MODE(Mode));
  assert_param(IS_TRANSFER_REQUEST(Request));

  /* Declaration of tmp to prevent undefined behavior of volatile usage */
  uint32_t tmp = ((uint32_t)(((uint32_t)DevAddress & I2C_CR2_SADD) | \
 8003142:	897b      	ldrh	r3, [r7, #10]
 8003144:	f3c3 0209 	ubfx	r2, r3, #0, #10
                             (((uint32_t)Size << I2C_CR2_NBYTES_Pos) & I2C_CR2_NBYTES) | \
 8003148:	7a7b      	ldrb	r3, [r7, #9]
 800314a:	041b      	lsls	r3, r3, #16
 800314c:	f403 037f 	and.w	r3, r3, #16711680	; 0xff0000
  uint32_t tmp = ((uint32_t)(((uint32_t)DevAddress & I2C_CR2_SADD) | \
 8003150:	431a      	orrs	r2, r3
                             (((uint32_t)Size << I2C_CR2_NBYTES_Pos) & I2C_CR2_NBYTES) | \
 8003152:	687b      	ldr	r3, [r7, #4]
 8003154:	431a      	orrs	r2, r3
  uint32_t tmp = ((uint32_t)(((uint32_t)DevAddress & I2C_CR2_SADD) | \
 8003156:	6a3b      	ldr	r3, [r7, #32]
 8003158:	4313      	orrs	r3, r2
 800315a:	f023 4300 	bic.w	r3, r3, #2147483648	; 0x80000000
 800315e:	617b      	str	r3, [r7, #20]
                             (uint32_t)Mode | (uint32_t)Request) & (~0x80000000U));

  /* update CR2 register */
  MODIFY_REG(hi2c->Instance->CR2, \
 8003160:	68fb      	ldr	r3, [r7, #12]
 8003162:	681b      	ldr	r3, [r3, #0]
 8003164:	685a      	ldr	r2, [r3, #4]
 8003166:	6a3b      	ldr	r3, [r7, #32]
 8003168:	0d5b      	lsrs	r3, r3, #21
 800316a:	f403 6180 	and.w	r1, r3, #1024	; 0x400
 800316e:	4b08      	ldr	r3, [pc, #32]	; (8003190 <I2C_TransferConfig+0x60>)
 8003170:	430b      	orrs	r3, r1
 8003172:	43db      	mvns	r3, r3
 8003174:	ea02 0103 	and.w	r1, r2, r3
 8003178:	68fb      	ldr	r3, [r7, #12]
 800317a:	681b      	ldr	r3, [r3, #0]
 800317c:	697a      	ldr	r2, [r7, #20]
 800317e:	430a      	orrs	r2, r1
 8003180:	605a      	str	r2, [r3, #4]
             ((I2C_CR2_SADD | I2C_CR2_NBYTES | I2C_CR2_RELOAD | I2C_CR2_AUTOEND | \
               (I2C_CR2_RD_WRN & (uint32_t)(Request >> (31U - I2C_CR2_RD_WRN_Pos))) | \
               I2C_CR2_START | I2C_CR2_STOP)), tmp);
}
 8003182:	bf00      	nop
 8003184:	371c      	adds	r7, #28
 8003186:	46bd      	mov	sp, r7
 8003188:	f85d 7b04 	ldr.w	r7, [sp], #4
 800318c:	4770      	bx	lr
 800318e:	bf00      	nop
 8003190:	03ff63ff 	.word	0x03ff63ff

08003194 <HAL_I2CEx_ConfigAnalogFilter>:
  *                the configuration information for the specified I2Cx peripheral.
  * @param  AnalogFilter New state of the Analog filter.
  * @retval HAL status
  */
HAL_StatusTypeDef HAL_I2CEx_ConfigAnalogFilter(I2C_HandleTypeDef *hi2c, uint32_t AnalogFilter)
{
 8003194:	b480      	push	{r7}
 8003196:	b083      	sub	sp, #12
 8003198:	af00      	add	r7, sp, #0
 800319a:	6078      	str	r0, [r7, #4]
 800319c:	6039      	str	r1, [r7, #0]
  /* Check the parameters */
  assert_param(IS_I2C_ALL_INSTANCE(hi2c->Instance));
  assert_param(IS_I2C_ANALOG_FILTER(AnalogFilter));

  if (hi2c->State == HAL_I2C_STATE_READY)
 800319e:	687b      	ldr	r3, [r7, #4]
 80031a0:	f893 3041 	ldrb.w	r3, [r3, #65]	; 0x41
 80031a4:	b2db      	uxtb	r3, r3
 80031a6:	2b20      	cmp	r3, #32
 80031a8:	d138      	bne.n	800321c <HAL_I2CEx_ConfigAnalogFilter+0x88>
  {
    /* Process Locked */
    __HAL_LOCK(hi2c);
 80031aa:	687b      	ldr	r3, [r7, #4]
 80031ac:	f893 3040 	ldrb.w	r3, [r3, #64]	; 0x40
 80031b0:	2b01      	cmp	r3, #1
 80031b2:	d101      	bne.n	80031b8 <HAL_I2CEx_ConfigAnalogFilter+0x24>
 80031b4:	2302      	movs	r3, #2
 80031b6:	e032      	b.n	800321e <HAL_I2CEx_ConfigAnalogFilter+0x8a>
 80031b8:	687b      	ldr	r3, [r7, #4]
 80031ba:	2201      	movs	r2, #1
 80031bc:	f883 2040 	strb.w	r2, [r3, #64]	; 0x40

    hi2c->State = HAL_I2C_STATE_BUSY;
 80031c0:	687b      	ldr	r3, [r7, #4]
 80031c2:	2224      	movs	r2, #36	; 0x24
 80031c4:	f883 2041 	strb.w	r2, [r3, #65]	; 0x41

    /* Disable the selected I2C peripheral */
    __HAL_I2C_DISABLE(hi2c);
 80031c8:	687b      	ldr	r3, [r7, #4]
 80031ca:	681b      	ldr	r3, [r3, #0]
 80031cc:	681a      	ldr	r2, [r3, #0]
 80031ce:	687b      	ldr	r3, [r7, #4]
 80031d0:	681b      	ldr	r3, [r3, #0]
 80031d2:	f022 0201 	bic.w	r2, r2, #1
 80031d6:	601a      	str	r2, [r3, #0]

    /* Reset I2Cx ANOFF bit */
    hi2c->Instance->CR1 &= ~(I2C_CR1_ANFOFF);
 80031d8:	687b      	ldr	r3, [r7, #4]
 80031da:	681b      	ldr	r3, [r3, #0]
 80031dc:	681a      	ldr	r2, [r3, #0]
 80031de:	687b      	ldr	r3, [r7, #4]
 80031e0:	681b      	ldr	r3, [r3, #0]
 80031e2:	f422 5280 	bic.w	r2, r2, #4096	; 0x1000
 80031e6:	601a      	str	r2, [r3, #0]

    /* Set analog filter bit*/
    hi2c->Instance->CR1 |= AnalogFilter;
 80031e8:	687b      	ldr	r3, [r7, #4]
 80031ea:	681b      	ldr	r3, [r3, #0]
 80031ec:	6819      	ldr	r1, [r3, #0]
 80031ee:	687b      	ldr	r3, [r7, #4]
 80031f0:	681b      	ldr	r3, [r3, #0]
 80031f2:	683a      	ldr	r2, [r7, #0]
 80031f4:	430a      	orrs	r2, r1
 80031f6:	601a      	str	r2, [r3, #0]

    __HAL_I2C_ENABLE(hi2c);
 80031f8:	687b      	ldr	r3, [r7, #4]
 80031fa:	681b      	ldr	r3, [r3, #0]
 80031fc:	681a      	ldr	r2, [r3, #0]
 80031fe:	687b      	ldr	r3, [r7, #4]
 8003200:	681b      	ldr	r3, [r3, #0]
 8003202:	f042 0201 	orr.w	r2, r2, #1
 8003206:	601a      	str	r2, [r3, #0]

    hi2c->State = HAL_I2C_STATE_READY;
 8003208:	687b      	ldr	r3, [r7, #4]
 800320a:	2220      	movs	r2, #32
 800320c:	f883 2041 	strb.w	r2, [r3, #65]	; 0x41

    /* Process Unlocked */
    __HAL_UNLOCK(hi2c);
 8003210:	687b      	ldr	r3, [r7, #4]
 8003212:	2200      	movs	r2, #0
 8003214:	f883 2040 	strb.w	r2, [r3, #64]	; 0x40

    return HAL_OK;
 8003218:	2300      	movs	r3, #0
 800321a:	e000      	b.n	800321e <HAL_I2CEx_ConfigAnalogFilter+0x8a>
  }
  else
  {
    return HAL_BUSY;
 800321c:	2302      	movs	r3, #2
  }
}
 800321e:	4618      	mov	r0, r3
 8003220:	370c      	adds	r7, #12
 8003222:	46bd      	mov	sp, r7
 8003224:	f85d 7b04 	ldr.w	r7, [sp], #4
 8003228:	4770      	bx	lr

0800322a <HAL_I2CEx_ConfigDigitalFilter>:
  *                the configuration information for the specified I2Cx peripheral.
  * @param  DigitalFilter Coefficient of digital noise filter between Min_Data=0x00 and Max_Data=0x0F.
  * @retval HAL status
  */
HAL_StatusTypeDef HAL_I2CEx_ConfigDigitalFilter(I2C_HandleTypeDef *hi2c, uint32_t DigitalFilter)
{
 800322a:	b480      	push	{r7}
 800322c:	b085      	sub	sp, #20
 800322e:	af00      	add	r7, sp, #0
 8003230:	6078      	str	r0, [r7, #4]
 8003232:	6039      	str	r1, [r7, #0]

  /* Check the parameters */
  assert_param(IS_I2C_ALL_INSTANCE(hi2c->Instance));
  assert_param(IS_I2C_DIGITAL_FILTER(DigitalFilter));

  if (hi2c->State == HAL_I2C_STATE_READY)
 8003234:	687b      	ldr	r3, [r7, #4]
 8003236:	f893 3041 	ldrb.w	r3, [r3, #65]	; 0x41
 800323a:	b2db      	uxtb	r3, r3
 800323c:	2b20      	cmp	r3, #32
 800323e:	d139      	bne.n	80032b4 <HAL_I2CEx_ConfigDigitalFilter+0x8a>
  {
    /* Process Locked */
    __HAL_LOCK(hi2c);
 8003240:	687b      	ldr	r3, [r7, #4]
 8003242:	f893 3040 	ldrb.w	r3, [r3, #64]	; 0x40
 8003246:	2b01      	cmp	r3, #1
 8003248:	d101      	bne.n	800324e <HAL_I2CEx_ConfigDigitalFilter+0x24>
 800324a:	2302      	movs	r3, #2
 800324c:	e033      	b.n	80032b6 <HAL_I2CEx_ConfigDigitalFilter+0x8c>
 800324e:	687b      	ldr	r3, [r7, #4]
 8003250:	2201      	movs	r2, #1
 8003252:	f883 2040 	strb.w	r2, [r3, #64]	; 0x40

    hi2c->State = HAL_I2C_STATE_BUSY;
 8003256:	687b      	ldr	r3, [r7, #4]
 8003258:	2224      	movs	r2, #36	; 0x24
 800325a:	f883 2041 	strb.w	r2, [r3, #65]	; 0x41

    /* Disable the selected I2C peripheral */
    __HAL_I2C_DISABLE(hi2c);
 800325e:	687b      	ldr	r3, [r7, #4]
 8003260:	681b      	ldr	r3, [r3, #0]
 8003262:	681a      	ldr	r2, [r3, #0]
 8003264:	687b      	ldr	r3, [r7, #4]
 8003266:	681b      	ldr	r3, [r3, #0]
 8003268:	f022 0201 	bic.w	r2, r2, #1
 800326c:	601a      	str	r2, [r3, #0]

    /* Get the old register value */
    tmpreg = hi2c->Instance->CR1;
 800326e:	687b      	ldr	r3, [r7, #4]
 8003270:	681b      	ldr	r3, [r3, #0]
 8003272:	681b      	ldr	r3, [r3, #0]
 8003274:	60fb      	str	r3, [r7, #12]

    /* Reset I2Cx DNF bits [11:8] */
    tmpreg &= ~(I2C_CR1_DNF);
 8003276:	68fb      	ldr	r3, [r7, #12]
 8003278:	f423 6370 	bic.w	r3, r3, #3840	; 0xf00
 800327c:	60fb      	str	r3, [r7, #12]

    /* Set I2Cx DNF coefficient */
    tmpreg |= DigitalFilter << 8U;
 800327e:	683b      	ldr	r3, [r7, #0]
 8003280:	021b      	lsls	r3, r3, #8
 8003282:	68fa      	ldr	r2, [r7, #12]
 8003284:	4313      	orrs	r3, r2
 8003286:	60fb      	str	r3, [r7, #12]

    /* Store the new register value */
    hi2c->Instance->CR1 = tmpreg;
 8003288:	687b      	ldr	r3, [r7, #4]
 800328a:	681b      	ldr	r3, [r3, #0]
 800328c:	68fa      	ldr	r2, [r7, #12]
 800328e:	601a      	str	r2, [r3, #0]

    __HAL_I2C_ENABLE(hi2c);
 8003290:	687b      	ldr	r3, [r7, #4]
 8003292:	681b      	ldr	r3, [r3, #0]
 8003294:	681a      	ldr	r2, [r3, #0]
 8003296:	687b      	ldr	r3, [r7, #4]
 8003298:	681b      	ldr	r3, [r3, #0]
 800329a:	f042 0201 	orr.w	r2, r2, #1
 800329e:	601a      	str	r2, [r3, #0]

    hi2c->State = HAL_I2C_STATE_READY;
 80032a0:	687b      	ldr	r3, [r7, #4]
 80032a2:	2220      	movs	r2, #32
 80032a4:	f883 2041 	strb.w	r2, [r3, #65]	; 0x41

    /* Process Unlocked */
    __HAL_UNLOCK(hi2c);
 80032a8:	687b      	ldr	r3, [r7, #4]
 80032aa:	2200      	movs	r2, #0
 80032ac:	f883 2040 	strb.w	r2, [r3, #64]	; 0x40

    return HAL_OK;
 80032b0:	2300      	movs	r3, #0
 80032b2:	e000      	b.n	80032b6 <HAL_I2CEx_ConfigDigitalFilter+0x8c>
  }
  else
  {
    return HAL_BUSY;
 80032b4:	2302      	movs	r3, #2
  }
}
 80032b6:	4618      	mov	r0, r3
 80032b8:	3714      	adds	r7, #20
 80032ba:	46bd      	mov	sp, r7
 80032bc:	f85d 7b04 	ldr.w	r7, [sp], #4
 80032c0:	4770      	bx	lr
	...

080032c4 <HAL_RCC_OscConfig>:
  *         supported by this macro. User should request a transition to HSE Off
  *         first and then HSE On or HSE Bypass.
  * @retval HAL status
  */
HAL_StatusTypeDef HAL_RCC_OscConfig(RCC_OscInitTypeDef  *RCC_OscInitStruct)
{
 80032c4:	b580      	push	{r7, lr}
 80032c6:	f5ad 7d00 	sub.w	sp, sp, #512	; 0x200
 80032ca:	af00      	add	r7, sp, #0
 80032cc:	1d3b      	adds	r3, r7, #4
 80032ce:	6018      	str	r0, [r3, #0]
#if defined(RCC_CFGR_PLLSRC_HSI_PREDIV)
  uint32_t pll_config2;
#endif /* RCC_CFGR_PLLSRC_HSI_PREDIV */

  /* Check Null pointer */
  if(RCC_OscInitStruct == NULL)
 80032d0:	1d3b      	adds	r3, r7, #4
 80032d2:	681b      	ldr	r3, [r3, #0]
 80032d4:	2b00      	cmp	r3, #0
 80032d6:	d102      	bne.n	80032de <HAL_RCC_OscConfig+0x1a>
  {
    return HAL_ERROR;
 80032d8:	2301      	movs	r3, #1
 80032da:	f000 bef4 	b.w	80040c6 <HAL_RCC_OscConfig+0xe02>

  /* Check the parameters */
  assert_param(IS_RCC_OSCILLATORTYPE(RCC_OscInitStruct->OscillatorType));

  /*------------------------------- HSE Configuration ------------------------*/ 
  if(((RCC_OscInitStruct->OscillatorType) & RCC_OSCILLATORTYPE_HSE) == RCC_OSCILLATORTYPE_HSE)
 80032de:	1d3b      	adds	r3, r7, #4
 80032e0:	681b      	ldr	r3, [r3, #0]
 80032e2:	681b      	ldr	r3, [r3, #0]
 80032e4:	f003 0301 	and.w	r3, r3, #1
 80032e8:	2b00      	cmp	r3, #0
 80032ea:	f000 816a 	beq.w	80035c2 <HAL_RCC_OscConfig+0x2fe>
  {
    /* Check the parameters */
    assert_param(IS_RCC_HSE(RCC_OscInitStruct->HSEState));

    /* When the HSE is used as system clock or clock source for PLL in these cases it is not allowed to be disabled */
    if((__HAL_RCC_GET_SYSCLK_SOURCE() == RCC_SYSCLKSOURCE_STATUS_HSE) 
 80032ee:	4bb3      	ldr	r3, [pc, #716]	; (80035bc <HAL_RCC_OscConfig+0x2f8>)
 80032f0:	685b      	ldr	r3, [r3, #4]
 80032f2:	f003 030c 	and.w	r3, r3, #12
 80032f6:	2b04      	cmp	r3, #4
 80032f8:	d00c      	beq.n	8003314 <HAL_RCC_OscConfig+0x50>
       || ((__HAL_RCC_GET_SYSCLK_SOURCE() == RCC_SYSCLKSOURCE_STATUS_PLLCLK) && (__HAL_RCC_GET_PLL_OSCSOURCE() == RCC_PLLSOURCE_HSE)))
 80032fa:	4bb0      	ldr	r3, [pc, #704]	; (80035bc <HAL_RCC_OscConfig+0x2f8>)
 80032fc:	685b      	ldr	r3, [r3, #4]
 80032fe:	f003 030c 	and.w	r3, r3, #12
 8003302:	2b08      	cmp	r3, #8
 8003304:	d159      	bne.n	80033ba <HAL_RCC_OscConfig+0xf6>
 8003306:	4bad      	ldr	r3, [pc, #692]	; (80035bc <HAL_RCC_OscConfig+0x2f8>)
 8003308:	685b      	ldr	r3, [r3, #4]
 800330a:	f403 3380 	and.w	r3, r3, #65536	; 0x10000
 800330e:	f5b3 3f80 	cmp.w	r3, #65536	; 0x10000
 8003312:	d152      	bne.n	80033ba <HAL_RCC_OscConfig+0xf6>
 8003314:	f44f 3300 	mov.w	r3, #131072	; 0x20000
 8003318:	f8c7 31f0 	str.w	r3, [r7, #496]	; 0x1f0
  uint32_t result;

#if ((defined (__ARM_ARCH_7M__      ) && (__ARM_ARCH_7M__      == 1)) || \
     (defined (__ARM_ARCH_7EM__     ) && (__ARM_ARCH_7EM__     == 1)) || \
     (defined (__ARM_ARCH_8M_MAIN__ ) && (__ARM_ARCH_8M_MAIN__ == 1))    )
   __ASM volatile ("rbit %0, %1" : "=r" (result) : "r" (value) );
 800331c:	f8d7 31f0 	ldr.w	r3, [r7, #496]	; 0x1f0
 8003320:	fa93 f3a3 	rbit	r3, r3
 8003324:	f8c7 31ec 	str.w	r3, [r7, #492]	; 0x1ec
    result |= value & 1U;
    s--;
  }
  result <<= s;                        /* shift when v's highest bits are zero */
#endif
  return result;
 8003328:	f8d7 31ec 	ldr.w	r3, [r7, #492]	; 0x1ec
    {
      if((__HAL_RCC_GET_FLAG(RCC_FLAG_HSERDY) != RESET) && (RCC_OscInitStruct->HSEState == RCC_HSE_OFF))
 800332c:	fab3 f383 	clz	r3, r3
 8003330:	b2db      	uxtb	r3, r3
 8003332:	095b      	lsrs	r3, r3, #5
 8003334:	b2db      	uxtb	r3, r3
 8003336:	f043 0301 	orr.w	r3, r3, #1
 800333a:	b2db      	uxtb	r3, r3
 800333c:	2b01      	cmp	r3, #1
 800333e:	d102      	bne.n	8003346 <HAL_RCC_OscConfig+0x82>
 8003340:	4b9e      	ldr	r3, [pc, #632]	; (80035bc <HAL_RCC_OscConfig+0x2f8>)
 8003342:	681b      	ldr	r3, [r3, #0]
 8003344:	e015      	b.n	8003372 <HAL_RCC_OscConfig+0xae>
 8003346:	f44f 3300 	mov.w	r3, #131072	; 0x20000
 800334a:	f8c7 31e8 	str.w	r3, [r7, #488]	; 0x1e8
   __ASM volatile ("rbit %0, %1" : "=r" (result) : "r" (value) );
 800334e:	f8d7 31e8 	ldr.w	r3, [r7, #488]	; 0x1e8
 8003352:	fa93 f3a3 	rbit	r3, r3
 8003356:	f8c7 31e4 	str.w	r3, [r7, #484]	; 0x1e4
 800335a:	f44f 3300 	mov.w	r3, #131072	; 0x20000
 800335e:	f8c7 31e0 	str.w	r3, [r7, #480]	; 0x1e0
 8003362:	f8d7 31e0 	ldr.w	r3, [r7, #480]	; 0x1e0
 8003366:	fa93 f3a3 	rbit	r3, r3
 800336a:	f8c7 31dc 	str.w	r3, [r7, #476]	; 0x1dc
 800336e:	4b93      	ldr	r3, [pc, #588]	; (80035bc <HAL_RCC_OscConfig+0x2f8>)
 8003370:	6a5b      	ldr	r3, [r3, #36]	; 0x24
 8003372:	f44f 3200 	mov.w	r2, #131072	; 0x20000
 8003376:	f8c7 21d8 	str.w	r2, [r7, #472]	; 0x1d8
 800337a:	f8d7 21d8 	ldr.w	r2, [r7, #472]	; 0x1d8
 800337e:	fa92 f2a2 	rbit	r2, r2
 8003382:	f8c7 21d4 	str.w	r2, [r7, #468]	; 0x1d4
  return result;
 8003386:	f8d7 21d4 	ldr.w	r2, [r7, #468]	; 0x1d4
 800338a:	fab2 f282 	clz	r2, r2
 800338e:	b2d2      	uxtb	r2, r2
 8003390:	f042 0220 	orr.w	r2, r2, #32
 8003394:	b2d2      	uxtb	r2, r2
 8003396:	f002 021f 	and.w	r2, r2, #31
 800339a:	2101      	movs	r1, #1
 800339c:	fa01 f202 	lsl.w	r2, r1, r2
 80033a0:	4013      	ands	r3, r2
 80033a2:	2b00      	cmp	r3, #0
 80033a4:	f000 810c 	beq.w	80035c0 <HAL_RCC_OscConfig+0x2fc>
 80033a8:	1d3b      	adds	r3, r7, #4
 80033aa:	681b      	ldr	r3, [r3, #0]
 80033ac:	685b      	ldr	r3, [r3, #4]
 80033ae:	2b00      	cmp	r3, #0
 80033b0:	f040 8106 	bne.w	80035c0 <HAL_RCC_OscConfig+0x2fc>
      {
        return HAL_ERROR;
 80033b4:	2301      	movs	r3, #1
 80033b6:	f000 be86 	b.w	80040c6 <HAL_RCC_OscConfig+0xe02>
      }
    }
    else
    {
      /* Set the new HSE configuration ---------------------------------------*/
      __HAL_RCC_HSE_CONFIG(RCC_OscInitStruct->HSEState);
 80033ba:	1d3b      	adds	r3, r7, #4
 80033bc:	681b      	ldr	r3, [r3, #0]
 80033be:	685b      	ldr	r3, [r3, #4]
 80033c0:	f5b3 3f80 	cmp.w	r3, #65536	; 0x10000
 80033c4:	d106      	bne.n	80033d4 <HAL_RCC_OscConfig+0x110>
 80033c6:	4b7d      	ldr	r3, [pc, #500]	; (80035bc <HAL_RCC_OscConfig+0x2f8>)
 80033c8:	681b      	ldr	r3, [r3, #0]
 80033ca:	4a7c      	ldr	r2, [pc, #496]	; (80035bc <HAL_RCC_OscConfig+0x2f8>)
 80033cc:	f443 3380 	orr.w	r3, r3, #65536	; 0x10000
 80033d0:	6013      	str	r3, [r2, #0]
 80033d2:	e030      	b.n	8003436 <HAL_RCC_OscConfig+0x172>
 80033d4:	1d3b      	adds	r3, r7, #4
 80033d6:	681b      	ldr	r3, [r3, #0]
 80033d8:	685b      	ldr	r3, [r3, #4]
 80033da:	2b00      	cmp	r3, #0
 80033dc:	d10c      	bne.n	80033f8 <HAL_RCC_OscConfig+0x134>
 80033de:	4b77      	ldr	r3, [pc, #476]	; (80035bc <HAL_RCC_OscConfig+0x2f8>)
 80033e0:	681b      	ldr	r3, [r3, #0]
 80033e2:	4a76      	ldr	r2, [pc, #472]	; (80035bc <HAL_RCC_OscConfig+0x2f8>)
 80033e4:	f423 3380 	bic.w	r3, r3, #65536	; 0x10000
 80033e8:	6013      	str	r3, [r2, #0]
 80033ea:	4b74      	ldr	r3, [pc, #464]	; (80035bc <HAL_RCC_OscConfig+0x2f8>)
 80033ec:	681b      	ldr	r3, [r3, #0]
 80033ee:	4a73      	ldr	r2, [pc, #460]	; (80035bc <HAL_RCC_OscConfig+0x2f8>)
 80033f0:	f423 2380 	bic.w	r3, r3, #262144	; 0x40000
 80033f4:	6013      	str	r3, [r2, #0]
 80033f6:	e01e      	b.n	8003436 <HAL_RCC_OscConfig+0x172>
 80033f8:	1d3b      	adds	r3, r7, #4
 80033fa:	681b      	ldr	r3, [r3, #0]
 80033fc:	685b      	ldr	r3, [r3, #4]
 80033fe:	f5b3 2fa0 	cmp.w	r3, #327680	; 0x50000
 8003402:	d10c      	bne.n	800341e <HAL_RCC_OscConfig+0x15a>
 8003404:	4b6d      	ldr	r3, [pc, #436]	; (80035bc <HAL_RCC_OscConfig+0x2f8>)
 8003406:	681b      	ldr	r3, [r3, #0]
 8003408:	4a6c      	ldr	r2, [pc, #432]	; (80035bc <HAL_RCC_OscConfig+0x2f8>)
 800340a:	f443 2380 	orr.w	r3, r3, #262144	; 0x40000
 800340e:	6013      	str	r3, [r2, #0]
 8003410:	4b6a      	ldr	r3, [pc, #424]	; (80035bc <HAL_RCC_OscConfig+0x2f8>)
 8003412:	681b      	ldr	r3, [r3, #0]
 8003414:	4a69      	ldr	r2, [pc, #420]	; (80035bc <HAL_RCC_OscConfig+0x2f8>)
 8003416:	f443 3380 	orr.w	r3, r3, #65536	; 0x10000
 800341a:	6013      	str	r3, [r2, #0]
 800341c:	e00b      	b.n	8003436 <HAL_RCC_OscConfig+0x172>
 800341e:	4b67      	ldr	r3, [pc, #412]	; (80035bc <HAL_RCC_OscConfig+0x2f8>)
 8003420:	681b      	ldr	r3, [r3, #0]
 8003422:	4a66      	ldr	r2, [pc, #408]	; (80035bc <HAL_RCC_OscConfig+0x2f8>)
 8003424:	f423 3380 	bic.w	r3, r3, #65536	; 0x10000
 8003428:	6013      	str	r3, [r2, #0]
 800342a:	4b64      	ldr	r3, [pc, #400]	; (80035bc <HAL_RCC_OscConfig+0x2f8>)
 800342c:	681b      	ldr	r3, [r3, #0]
 800342e:	4a63      	ldr	r2, [pc, #396]	; (80035bc <HAL_RCC_OscConfig+0x2f8>)
 8003430:	f423 2380 	bic.w	r3, r3, #262144	; 0x40000
 8003434:	6013      	str	r3, [r2, #0]
      
#if defined(RCC_CFGR_PLLSRC_HSI_DIV2)
      /* Configure the HSE predivision factor --------------------------------*/
      __HAL_RCC_HSE_PREDIV_CONFIG(RCC_OscInitStruct->HSEPredivValue);
 8003436:	4b61      	ldr	r3, [pc, #388]	; (80035bc <HAL_RCC_OscConfig+0x2f8>)
 8003438:	6adb      	ldr	r3, [r3, #44]	; 0x2c
 800343a:	f023 020f 	bic.w	r2, r3, #15
 800343e:	1d3b      	adds	r3, r7, #4
 8003440:	681b      	ldr	r3, [r3, #0]
 8003442:	689b      	ldr	r3, [r3, #8]
 8003444:	495d      	ldr	r1, [pc, #372]	; (80035bc <HAL_RCC_OscConfig+0x2f8>)
 8003446:	4313      	orrs	r3, r2
 8003448:	62cb      	str	r3, [r1, #44]	; 0x2c
#endif /* RCC_CFGR_PLLSRC_HSI_DIV2 */

       /* Check the HSE State */
      if(RCC_OscInitStruct->HSEState != RCC_HSE_OFF)
 800344a:	1d3b      	adds	r3, r7, #4
 800344c:	681b      	ldr	r3, [r3, #0]
 800344e:	685b      	ldr	r3, [r3, #4]
 8003450:	2b00      	cmp	r3, #0
 8003452:	d059      	beq.n	8003508 <HAL_RCC_OscConfig+0x244>
      {
        /* Get Start Tick */
        tickstart = HAL_GetTick();
 8003454:	f7fe feda 	bl	800220c <HAL_GetTick>
 8003458:	f8c7 01f8 	str.w	r0, [r7, #504]	; 0x1f8
        
        /* Wait till HSE is ready */
        while(__HAL_RCC_GET_FLAG(RCC_FLAG_HSERDY) == RESET)
 800345c:	e00a      	b.n	8003474 <HAL_RCC_OscConfig+0x1b0>
        {
          if((HAL_GetTick() - tickstart ) > HSE_TIMEOUT_VALUE)
 800345e:	f7fe fed5 	bl	800220c <HAL_GetTick>
 8003462:	4602      	mov	r2, r0
 8003464:	f8d7 31f8 	ldr.w	r3, [r7, #504]	; 0x1f8
 8003468:	1ad3      	subs	r3, r2, r3
 800346a:	2b64      	cmp	r3, #100	; 0x64
 800346c:	d902      	bls.n	8003474 <HAL_RCC_OscConfig+0x1b0>
          {
            return HAL_TIMEOUT;
 800346e:	2303      	movs	r3, #3
 8003470:	f000 be29 	b.w	80040c6 <HAL_RCC_OscConfig+0xe02>
 8003474:	f44f 3300 	mov.w	r3, #131072	; 0x20000
 8003478:	f8c7 31d0 	str.w	r3, [r7, #464]	; 0x1d0
   __ASM volatile ("rbit %0, %1" : "=r" (result) : "r" (value) );
 800347c:	f8d7 31d0 	ldr.w	r3, [r7, #464]	; 0x1d0
 8003480:	fa93 f3a3 	rbit	r3, r3
 8003484:	f8c7 31cc 	str.w	r3, [r7, #460]	; 0x1cc
  return result;
 8003488:	f8d7 31cc 	ldr.w	r3, [r7, #460]	; 0x1cc
        while(__HAL_RCC_GET_FLAG(RCC_FLAG_HSERDY) == RESET)
 800348c:	fab3 f383 	clz	r3, r3
 8003490:	b2db      	uxtb	r3, r3
 8003492:	095b      	lsrs	r3, r3, #5
 8003494:	b2db      	uxtb	r3, r3
 8003496:	f043 0301 	orr.w	r3, r3, #1
 800349a:	b2db      	uxtb	r3, r3
 800349c:	2b01      	cmp	r3, #1
 800349e:	d102      	bne.n	80034a6 <HAL_RCC_OscConfig+0x1e2>
 80034a0:	4b46      	ldr	r3, [pc, #280]	; (80035bc <HAL_RCC_OscConfig+0x2f8>)
 80034a2:	681b      	ldr	r3, [r3, #0]
 80034a4:	e015      	b.n	80034d2 <HAL_RCC_OscConfig+0x20e>
 80034a6:	f44f 3300 	mov.w	r3, #131072	; 0x20000
 80034aa:	f8c7 31c8 	str.w	r3, [r7, #456]	; 0x1c8
   __ASM volatile ("rbit %0, %1" : "=r" (result) : "r" (value) );
 80034ae:	f8d7 31c8 	ldr.w	r3, [r7, #456]	; 0x1c8
 80034b2:	fa93 f3a3 	rbit	r3, r3
 80034b6:	f8c7 31c4 	str.w	r3, [r7, #452]	; 0x1c4
 80034ba:	f44f 3300 	mov.w	r3, #131072	; 0x20000
 80034be:	f8c7 31c0 	str.w	r3, [r7, #448]	; 0x1c0
 80034c2:	f8d7 31c0 	ldr.w	r3, [r7, #448]	; 0x1c0
 80034c6:	fa93 f3a3 	rbit	r3, r3
 80034ca:	f8c7 31bc 	str.w	r3, [r7, #444]	; 0x1bc
 80034ce:	4b3b      	ldr	r3, [pc, #236]	; (80035bc <HAL_RCC_OscConfig+0x2f8>)
 80034d0:	6a5b      	ldr	r3, [r3, #36]	; 0x24
 80034d2:	f44f 3200 	mov.w	r2, #131072	; 0x20000
 80034d6:	f8c7 21b8 	str.w	r2, [r7, #440]	; 0x1b8
 80034da:	f8d7 21b8 	ldr.w	r2, [r7, #440]	; 0x1b8
 80034de:	fa92 f2a2 	rbit	r2, r2
 80034e2:	f8c7 21b4 	str.w	r2, [r7, #436]	; 0x1b4
  return result;
 80034e6:	f8d7 21b4 	ldr.w	r2, [r7, #436]	; 0x1b4
 80034ea:	fab2 f282 	clz	r2, r2
 80034ee:	b2d2      	uxtb	r2, r2
 80034f0:	f042 0220 	orr.w	r2, r2, #32
 80034f4:	b2d2      	uxtb	r2, r2
 80034f6:	f002 021f 	and.w	r2, r2, #31
 80034fa:	2101      	movs	r1, #1
 80034fc:	fa01 f202 	lsl.w	r2, r1, r2
 8003500:	4013      	ands	r3, r2
 8003502:	2b00      	cmp	r3, #0
 8003504:	d0ab      	beq.n	800345e <HAL_RCC_OscConfig+0x19a>
 8003506:	e05c      	b.n	80035c2 <HAL_RCC_OscConfig+0x2fe>
        }
      }
      else
      {
        /* Get Start Tick */
        tickstart = HAL_GetTick();
 8003508:	f7fe fe80 	bl	800220c <HAL_GetTick>
 800350c:	f8c7 01f8 	str.w	r0, [r7, #504]	; 0x1f8
        
        /* Wait till HSE is disabled */
        while(__HAL_RCC_GET_FLAG(RCC_FLAG_HSERDY) != RESET)
 8003510:	e00a      	b.n	8003528 <HAL_RCC_OscConfig+0x264>
        {
           if((HAL_GetTick() - tickstart ) > HSE_TIMEOUT_VALUE)
 8003512:	f7fe fe7b 	bl	800220c <HAL_GetTick>
 8003516:	4602      	mov	r2, r0
 8003518:	f8d7 31f8 	ldr.w	r3, [r7, #504]	; 0x1f8
 800351c:	1ad3      	subs	r3, r2, r3
 800351e:	2b64      	cmp	r3, #100	; 0x64
 8003520:	d902      	bls.n	8003528 <HAL_RCC_OscConfig+0x264>
          {
            return HAL_TIMEOUT;
 8003522:	2303      	movs	r3, #3
 8003524:	f000 bdcf 	b.w	80040c6 <HAL_RCC_OscConfig+0xe02>
 8003528:	f44f 3300 	mov.w	r3, #131072	; 0x20000
 800352c:	f8c7 31b0 	str.w	r3, [r7, #432]	; 0x1b0
   __ASM volatile ("rbit %0, %1" : "=r" (result) : "r" (value) );
 8003530:	f8d7 31b0 	ldr.w	r3, [r7, #432]	; 0x1b0
 8003534:	fa93 f3a3 	rbit	r3, r3
 8003538:	f8c7 31ac 	str.w	r3, [r7, #428]	; 0x1ac
  return result;
 800353c:	f8d7 31ac 	ldr.w	r3, [r7, #428]	; 0x1ac
        while(__HAL_RCC_GET_FLAG(RCC_FLAG_HSERDY) != RESET)
 8003540:	fab3 f383 	clz	r3, r3
 8003544:	b2db      	uxtb	r3, r3
 8003546:	095b      	lsrs	r3, r3, #5
 8003548:	b2db      	uxtb	r3, r3
 800354a:	f043 0301 	orr.w	r3, r3, #1
 800354e:	b2db      	uxtb	r3, r3
 8003550:	2b01      	cmp	r3, #1
 8003552:	d102      	bne.n	800355a <HAL_RCC_OscConfig+0x296>
 8003554:	4b19      	ldr	r3, [pc, #100]	; (80035bc <HAL_RCC_OscConfig+0x2f8>)
 8003556:	681b      	ldr	r3, [r3, #0]
 8003558:	e015      	b.n	8003586 <HAL_RCC_OscConfig+0x2c2>
 800355a:	f44f 3300 	mov.w	r3, #131072	; 0x20000
 800355e:	f8c7 31a8 	str.w	r3, [r7, #424]	; 0x1a8
   __ASM volatile ("rbit %0, %1" : "=r" (result) : "r" (value) );
 8003562:	f8d7 31a8 	ldr.w	r3, [r7, #424]	; 0x1a8
 8003566:	fa93 f3a3 	rbit	r3, r3
 800356a:	f8c7 31a4 	str.w	r3, [r7, #420]	; 0x1a4
 800356e:	f44f 3300 	mov.w	r3, #131072	; 0x20000
 8003572:	f8c7 31a0 	str.w	r3, [r7, #416]	; 0x1a0
 8003576:	f8d7 31a0 	ldr.w	r3, [r7, #416]	; 0x1a0
 800357a:	fa93 f3a3 	rbit	r3, r3
 800357e:	f8c7 319c 	str.w	r3, [r7, #412]	; 0x19c
 8003582:	4b0e      	ldr	r3, [pc, #56]	; (80035bc <HAL_RCC_OscConfig+0x2f8>)
 8003584:	6a5b      	ldr	r3, [r3, #36]	; 0x24
 8003586:	f44f 3200 	mov.w	r2, #131072	; 0x20000
 800358a:	f8c7 2198 	str.w	r2, [r7, #408]	; 0x198
 800358e:	f8d7 2198 	ldr.w	r2, [r7, #408]	; 0x198
 8003592:	fa92 f2a2 	rbit	r2, r2
 8003596:	f8c7 2194 	str.w	r2, [r7, #404]	; 0x194
  return result;
 800359a:	f8d7 2194 	ldr.w	r2, [r7, #404]	; 0x194
 800359e:	fab2 f282 	clz	r2, r2
 80035a2:	b2d2      	uxtb	r2, r2
 80035a4:	f042 0220 	orr.w	r2, r2, #32
 80035a8:	b2d2      	uxtb	r2, r2
 80035aa:	f002 021f 	and.w	r2, r2, #31
 80035ae:	2101      	movs	r1, #1
 80035b0:	fa01 f202 	lsl.w	r2, r1, r2
 80035b4:	4013      	ands	r3, r2
 80035b6:	2b00      	cmp	r3, #0
 80035b8:	d1ab      	bne.n	8003512 <HAL_RCC_OscConfig+0x24e>
 80035ba:	e002      	b.n	80035c2 <HAL_RCC_OscConfig+0x2fe>
 80035bc:	40021000 	.word	0x40021000
      if((__HAL_RCC_GET_FLAG(RCC_FLAG_HSERDY) != RESET) && (RCC_OscInitStruct->HSEState == RCC_HSE_OFF))
 80035c0:	bf00      	nop
        }
      }
    }
  }
  /*----------------------------- HSI Configuration --------------------------*/ 
  if(((RCC_OscInitStruct->OscillatorType) & RCC_OSCILLATORTYPE_HSI) == RCC_OSCILLATORTYPE_HSI)
 80035c2:	1d3b      	adds	r3, r7, #4
 80035c4:	681b      	ldr	r3, [r3, #0]
 80035c6:	681b      	ldr	r3, [r3, #0]
 80035c8:	f003 0302 	and.w	r3, r3, #2
 80035cc:	2b00      	cmp	r3, #0
 80035ce:	f000 816f 	beq.w	80038b0 <HAL_RCC_OscConfig+0x5ec>
    /* Check the parameters */
    assert_param(IS_RCC_HSI(RCC_OscInitStruct->HSIState));
    assert_param(IS_RCC_CALIBRATION_VALUE(RCC_OscInitStruct->HSICalibrationValue));
    
    /* Check if HSI is used as system clock or as PLL source when PLL is selected as system clock */ 
    if((__HAL_RCC_GET_SYSCLK_SOURCE() == RCC_SYSCLKSOURCE_STATUS_HSI) 
 80035d2:	4bd0      	ldr	r3, [pc, #832]	; (8003914 <HAL_RCC_OscConfig+0x650>)
 80035d4:	685b      	ldr	r3, [r3, #4]
 80035d6:	f003 030c 	and.w	r3, r3, #12
 80035da:	2b00      	cmp	r3, #0
 80035dc:	d00b      	beq.n	80035f6 <HAL_RCC_OscConfig+0x332>
       || ((__HAL_RCC_GET_SYSCLK_SOURCE() == RCC_SYSCLKSOURCE_STATUS_PLLCLK) && (__HAL_RCC_GET_PLL_OSCSOURCE() == RCC_PLLSOURCE_HSI)))
 80035de:	4bcd      	ldr	r3, [pc, #820]	; (8003914 <HAL_RCC_OscConfig+0x650>)
 80035e0:	685b      	ldr	r3, [r3, #4]
 80035e2:	f003 030c 	and.w	r3, r3, #12
 80035e6:	2b08      	cmp	r3, #8
 80035e8:	d16c      	bne.n	80036c4 <HAL_RCC_OscConfig+0x400>
 80035ea:	4bca      	ldr	r3, [pc, #808]	; (8003914 <HAL_RCC_OscConfig+0x650>)
 80035ec:	685b      	ldr	r3, [r3, #4]
 80035ee:	f403 3380 	and.w	r3, r3, #65536	; 0x10000
 80035f2:	2b00      	cmp	r3, #0
 80035f4:	d166      	bne.n	80036c4 <HAL_RCC_OscConfig+0x400>
 80035f6:	2302      	movs	r3, #2
 80035f8:	f8c7 3190 	str.w	r3, [r7, #400]	; 0x190
   __ASM volatile ("rbit %0, %1" : "=r" (result) : "r" (value) );
 80035fc:	f8d7 3190 	ldr.w	r3, [r7, #400]	; 0x190
 8003600:	fa93 f3a3 	rbit	r3, r3
 8003604:	f8c7 318c 	str.w	r3, [r7, #396]	; 0x18c
  return result;
 8003608:	f8d7 318c 	ldr.w	r3, [r7, #396]	; 0x18c
    {
      /* When HSI is used as system clock it will not disabled */
      if((__HAL_RCC_GET_FLAG(RCC_FLAG_HSIRDY) != RESET) && (RCC_OscInitStruct->HSIState != RCC_HSI_ON))
 800360c:	fab3 f383 	clz	r3, r3
 8003610:	b2db      	uxtb	r3, r3
 8003612:	095b      	lsrs	r3, r3, #5
 8003614:	b2db      	uxtb	r3, r3
 8003616:	f043 0301 	orr.w	r3, r3, #1
 800361a:	b2db      	uxtb	r3, r3
 800361c:	2b01      	cmp	r3, #1
 800361e:	d102      	bne.n	8003626 <HAL_RCC_OscConfig+0x362>
 8003620:	4bbc      	ldr	r3, [pc, #752]	; (8003914 <HAL_RCC_OscConfig+0x650>)
 8003622:	681b      	ldr	r3, [r3, #0]
 8003624:	e013      	b.n	800364e <HAL_RCC_OscConfig+0x38a>
 8003626:	2302      	movs	r3, #2
 8003628:	f8c7 3188 	str.w	r3, [r7, #392]	; 0x188
   __ASM volatile ("rbit %0, %1" : "=r" (result) : "r" (value) );
 800362c:	f8d7 3188 	ldr.w	r3, [r7, #392]	; 0x188
 8003630:	fa93 f3a3 	rbit	r3, r3
 8003634:	f8c7 3184 	str.w	r3, [r7, #388]	; 0x184
 8003638:	2302      	movs	r3, #2
 800363a:	f8c7 3180 	str.w	r3, [r7, #384]	; 0x180
 800363e:	f8d7 3180 	ldr.w	r3, [r7, #384]	; 0x180
 8003642:	fa93 f3a3 	rbit	r3, r3
 8003646:	f8c7 317c 	str.w	r3, [r7, #380]	; 0x17c
 800364a:	4bb2      	ldr	r3, [pc, #712]	; (8003914 <HAL_RCC_OscConfig+0x650>)
 800364c:	6a5b      	ldr	r3, [r3, #36]	; 0x24
 800364e:	2202      	movs	r2, #2
 8003650:	f8c7 2178 	str.w	r2, [r7, #376]	; 0x178
 8003654:	f8d7 2178 	ldr.w	r2, [r7, #376]	; 0x178
 8003658:	fa92 f2a2 	rbit	r2, r2
 800365c:	f8c7 2174 	str.w	r2, [r7, #372]	; 0x174
  return result;
 8003660:	f8d7 2174 	ldr.w	r2, [r7, #372]	; 0x174
 8003664:	fab2 f282 	clz	r2, r2
 8003668:	b2d2      	uxtb	r2, r2
 800366a:	f042 0220 	orr.w	r2, r2, #32
 800366e:	b2d2      	uxtb	r2, r2
 8003670:	f002 021f 	and.w	r2, r2, #31
 8003674:	2101      	movs	r1, #1
 8003676:	fa01 f202 	lsl.w	r2, r1, r2
 800367a:	4013      	ands	r3, r2
 800367c:	2b00      	cmp	r3, #0
 800367e:	d007      	beq.n	8003690 <HAL_RCC_OscConfig+0x3cc>
 8003680:	1d3b      	adds	r3, r7, #4
 8003682:	681b      	ldr	r3, [r3, #0]
 8003684:	691b      	ldr	r3, [r3, #16]
 8003686:	2b01      	cmp	r3, #1
 8003688:	d002      	beq.n	8003690 <HAL_RCC_OscConfig+0x3cc>
      {
        return HAL_ERROR;
 800368a:	2301      	movs	r3, #1
 800368c:	f000 bd1b 	b.w	80040c6 <HAL_RCC_OscConfig+0xe02>
      }
      /* Otherwise, just the calibration is allowed */
      else
      {
        /* Adjusts the Internal High Speed oscillator (HSI) calibration value.*/
        __HAL_RCC_HSI_CALIBRATIONVALUE_ADJUST(RCC_OscInitStruct->HSICalibrationValue);
 8003690:	4ba0      	ldr	r3, [pc, #640]	; (8003914 <HAL_RCC_OscConfig+0x650>)
 8003692:	681b      	ldr	r3, [r3, #0]
 8003694:	f023 02f8 	bic.w	r2, r3, #248	; 0xf8
 8003698:	1d3b      	adds	r3, r7, #4
 800369a:	681b      	ldr	r3, [r3, #0]
 800369c:	695b      	ldr	r3, [r3, #20]
 800369e:	21f8      	movs	r1, #248	; 0xf8
 80036a0:	f8c7 1170 	str.w	r1, [r7, #368]	; 0x170
   __ASM volatile ("rbit %0, %1" : "=r" (result) : "r" (value) );
 80036a4:	f8d7 1170 	ldr.w	r1, [r7, #368]	; 0x170
 80036a8:	fa91 f1a1 	rbit	r1, r1
 80036ac:	f8c7 116c 	str.w	r1, [r7, #364]	; 0x16c
  return result;
 80036b0:	f8d7 116c 	ldr.w	r1, [r7, #364]	; 0x16c
 80036b4:	fab1 f181 	clz	r1, r1
 80036b8:	b2c9      	uxtb	r1, r1
 80036ba:	408b      	lsls	r3, r1
 80036bc:	4995      	ldr	r1, [pc, #596]	; (8003914 <HAL_RCC_OscConfig+0x650>)
 80036be:	4313      	orrs	r3, r2
 80036c0:	600b      	str	r3, [r1, #0]
      if((__HAL_RCC_GET_FLAG(RCC_FLAG_HSIRDY) != RESET) && (RCC_OscInitStruct->HSIState != RCC_HSI_ON))
 80036c2:	e0f5      	b.n	80038b0 <HAL_RCC_OscConfig+0x5ec>
      }
    }
    else
    {
      /* Check the HSI State */
      if(RCC_OscInitStruct->HSIState != RCC_HSI_OFF)
 80036c4:	1d3b      	adds	r3, r7, #4
 80036c6:	681b      	ldr	r3, [r3, #0]
 80036c8:	691b      	ldr	r3, [r3, #16]
 80036ca:	2b00      	cmp	r3, #0
 80036cc:	f000 8085 	beq.w	80037da <HAL_RCC_OscConfig+0x516>
 80036d0:	2301      	movs	r3, #1
 80036d2:	f8c7 3168 	str.w	r3, [r7, #360]	; 0x168
   __ASM volatile ("rbit %0, %1" : "=r" (result) : "r" (value) );
 80036d6:	f8d7 3168 	ldr.w	r3, [r7, #360]	; 0x168
 80036da:	fa93 f3a3 	rbit	r3, r3
 80036de:	f8c7 3164 	str.w	r3, [r7, #356]	; 0x164
  return result;
 80036e2:	f8d7 3164 	ldr.w	r3, [r7, #356]	; 0x164
      {
       /* Enable the Internal High Speed oscillator (HSI). */
        __HAL_RCC_HSI_ENABLE();
 80036e6:	fab3 f383 	clz	r3, r3
 80036ea:	b2db      	uxtb	r3, r3
 80036ec:	f103 5384 	add.w	r3, r3, #276824064	; 0x10800000
 80036f0:	f503 1384 	add.w	r3, r3, #1081344	; 0x108000
 80036f4:	009b      	lsls	r3, r3, #2
 80036f6:	461a      	mov	r2, r3
 80036f8:	2301      	movs	r3, #1
 80036fa:	6013      	str	r3, [r2, #0]
        
        /* Get Start Tick */
        tickstart = HAL_GetTick();
 80036fc:	f7fe fd86 	bl	800220c <HAL_GetTick>
 8003700:	f8c7 01f8 	str.w	r0, [r7, #504]	; 0x1f8
        
        /* Wait till HSI is ready */
        while(__HAL_RCC_GET_FLAG(RCC_FLAG_HSIRDY) == RESET)
 8003704:	e00a      	b.n	800371c <HAL_RCC_OscConfig+0x458>
        {
          if((HAL_GetTick() - tickstart ) > HSI_TIMEOUT_VALUE)
 8003706:	f7fe fd81 	bl	800220c <HAL_GetTick>
 800370a:	4602      	mov	r2, r0
 800370c:	f8d7 31f8 	ldr.w	r3, [r7, #504]	; 0x1f8
 8003710:	1ad3      	subs	r3, r2, r3
 8003712:	2b02      	cmp	r3, #2
 8003714:	d902      	bls.n	800371c <HAL_RCC_OscConfig+0x458>
          {
            return HAL_TIMEOUT;
 8003716:	2303      	movs	r3, #3
 8003718:	f000 bcd5 	b.w	80040c6 <HAL_RCC_OscConfig+0xe02>
 800371c:	2302      	movs	r3, #2
 800371e:	f8c7 3160 	str.w	r3, [r7, #352]	; 0x160
   __ASM volatile ("rbit %0, %1" : "=r" (result) : "r" (value) );
 8003722:	f8d7 3160 	ldr.w	r3, [r7, #352]	; 0x160
 8003726:	fa93 f3a3 	rbit	r3, r3
 800372a:	f8c7 315c 	str.w	r3, [r7, #348]	; 0x15c
  return result;
 800372e:	f8d7 315c 	ldr.w	r3, [r7, #348]	; 0x15c
        while(__HAL_RCC_GET_FLAG(RCC_FLAG_HSIRDY) == RESET)
 8003732:	fab3 f383 	clz	r3, r3
 8003736:	b2db      	uxtb	r3, r3
 8003738:	095b      	lsrs	r3, r3, #5
 800373a:	b2db      	uxtb	r3, r3
 800373c:	f043 0301 	orr.w	r3, r3, #1
 8003740:	b2db      	uxtb	r3, r3
 8003742:	2b01      	cmp	r3, #1
 8003744:	d102      	bne.n	800374c <HAL_RCC_OscConfig+0x488>
 8003746:	4b73      	ldr	r3, [pc, #460]	; (8003914 <HAL_RCC_OscConfig+0x650>)
 8003748:	681b      	ldr	r3, [r3, #0]
 800374a:	e013      	b.n	8003774 <HAL_RCC_OscConfig+0x4b0>
 800374c:	2302      	movs	r3, #2
 800374e:	f8c7 3158 	str.w	r3, [r7, #344]	; 0x158
   __ASM volatile ("rbit %0, %1" : "=r" (result) : "r" (value) );
 8003752:	f8d7 3158 	ldr.w	r3, [r7, #344]	; 0x158
 8003756:	fa93 f3a3 	rbit	r3, r3
 800375a:	f8c7 3154 	str.w	r3, [r7, #340]	; 0x154
 800375e:	2302      	movs	r3, #2
 8003760:	f8c7 3150 	str.w	r3, [r7, #336]	; 0x150
 8003764:	f8d7 3150 	ldr.w	r3, [r7, #336]	; 0x150
 8003768:	fa93 f3a3 	rbit	r3, r3
 800376c:	f8c7 314c 	str.w	r3, [r7, #332]	; 0x14c
 8003770:	4b68      	ldr	r3, [pc, #416]	; (8003914 <HAL_RCC_OscConfig+0x650>)
 8003772:	6a5b      	ldr	r3, [r3, #36]	; 0x24
 8003774:	2202      	movs	r2, #2
 8003776:	f8c7 2148 	str.w	r2, [r7, #328]	; 0x148
 800377a:	f8d7 2148 	ldr.w	r2, [r7, #328]	; 0x148
 800377e:	fa92 f2a2 	rbit	r2, r2
 8003782:	f8c7 2144 	str.w	r2, [r7, #324]	; 0x144
  return result;
 8003786:	f8d7 2144 	ldr.w	r2, [r7, #324]	; 0x144
 800378a:	fab2 f282 	clz	r2, r2
 800378e:	b2d2      	uxtb	r2, r2
 8003790:	f042 0220 	orr.w	r2, r2, #32
 8003794:	b2d2      	uxtb	r2, r2
 8003796:	f002 021f 	and.w	r2, r2, #31
 800379a:	2101      	movs	r1, #1
 800379c:	fa01 f202 	lsl.w	r2, r1, r2
 80037a0:	4013      	ands	r3, r2
 80037a2:	2b00      	cmp	r3, #0
 80037a4:	d0af      	beq.n	8003706 <HAL_RCC_OscConfig+0x442>
          }
        }
                
        /* Adjusts the Internal High Speed oscillator (HSI) calibration value.*/
        __HAL_RCC_HSI_CALIBRATIONVALUE_ADJUST(RCC_OscInitStruct->HSICalibrationValue);
 80037a6:	4b5b      	ldr	r3, [pc, #364]	; (8003914 <HAL_RCC_OscConfig+0x650>)
 80037a8:	681b      	ldr	r3, [r3, #0]
 80037aa:	f023 02f8 	bic.w	r2, r3, #248	; 0xf8
 80037ae:	1d3b      	adds	r3, r7, #4
 80037b0:	681b      	ldr	r3, [r3, #0]
 80037b2:	695b      	ldr	r3, [r3, #20]
 80037b4:	21f8      	movs	r1, #248	; 0xf8
 80037b6:	f8c7 1140 	str.w	r1, [r7, #320]	; 0x140
   __ASM volatile ("rbit %0, %1" : "=r" (result) : "r" (value) );
 80037ba:	f8d7 1140 	ldr.w	r1, [r7, #320]	; 0x140
 80037be:	fa91 f1a1 	rbit	r1, r1
 80037c2:	f8c7 113c 	str.w	r1, [r7, #316]	; 0x13c
  return result;
 80037c6:	f8d7 113c 	ldr.w	r1, [r7, #316]	; 0x13c
 80037ca:	fab1 f181 	clz	r1, r1
 80037ce:	b2c9      	uxtb	r1, r1
 80037d0:	408b      	lsls	r3, r1
 80037d2:	4950      	ldr	r1, [pc, #320]	; (8003914 <HAL_RCC_OscConfig+0x650>)
 80037d4:	4313      	orrs	r3, r2
 80037d6:	600b      	str	r3, [r1, #0]
 80037d8:	e06a      	b.n	80038b0 <HAL_RCC_OscConfig+0x5ec>
 80037da:	2301      	movs	r3, #1
 80037dc:	f8c7 3138 	str.w	r3, [r7, #312]	; 0x138
   __ASM volatile ("rbit %0, %1" : "=r" (result) : "r" (value) );
 80037e0:	f8d7 3138 	ldr.w	r3, [r7, #312]	; 0x138
 80037e4:	fa93 f3a3 	rbit	r3, r3
 80037e8:	f8c7 3134 	str.w	r3, [r7, #308]	; 0x134
  return result;
 80037ec:	f8d7 3134 	ldr.w	r3, [r7, #308]	; 0x134
      }
      else
      {
        /* Disable the Internal High Speed oscillator (HSI). */
        __HAL_RCC_HSI_DISABLE();
 80037f0:	fab3 f383 	clz	r3, r3
 80037f4:	b2db      	uxtb	r3, r3
 80037f6:	f103 5384 	add.w	r3, r3, #276824064	; 0x10800000
 80037fa:	f503 1384 	add.w	r3, r3, #1081344	; 0x108000
 80037fe:	009b      	lsls	r3, r3, #2
 8003800:	461a      	mov	r2, r3
 8003802:	2300      	movs	r3, #0
 8003804:	6013      	str	r3, [r2, #0]
        
        /* Get Start Tick */
        tickstart = HAL_GetTick();
 8003806:	f7fe fd01 	bl	800220c <HAL_GetTick>
 800380a:	f8c7 01f8 	str.w	r0, [r7, #504]	; 0x1f8
        
        /* Wait till HSI is disabled */
        while(__HAL_RCC_GET_FLAG(RCC_FLAG_HSIRDY) != RESET)
 800380e:	e00a      	b.n	8003826 <HAL_RCC_OscConfig+0x562>
        {
          if((HAL_GetTick() - tickstart ) > HSI_TIMEOUT_VALUE)
 8003810:	f7fe fcfc 	bl	800220c <HAL_GetTick>
 8003814:	4602      	mov	r2, r0
 8003816:	f8d7 31f8 	ldr.w	r3, [r7, #504]	; 0x1f8
 800381a:	1ad3      	subs	r3, r2, r3
 800381c:	2b02      	cmp	r3, #2
 800381e:	d902      	bls.n	8003826 <HAL_RCC_OscConfig+0x562>
          {
            return HAL_TIMEOUT;
 8003820:	2303      	movs	r3, #3
 8003822:	f000 bc50 	b.w	80040c6 <HAL_RCC_OscConfig+0xe02>
 8003826:	2302      	movs	r3, #2
 8003828:	f8c7 3130 	str.w	r3, [r7, #304]	; 0x130
   __ASM volatile ("rbit %0, %1" : "=r" (result) : "r" (value) );
 800382c:	f8d7 3130 	ldr.w	r3, [r7, #304]	; 0x130
 8003830:	fa93 f3a3 	rbit	r3, r3
 8003834:	f8c7 312c 	str.w	r3, [r7, #300]	; 0x12c
  return result;
 8003838:	f8d7 312c 	ldr.w	r3, [r7, #300]	; 0x12c
        while(__HAL_RCC_GET_FLAG(RCC_FLAG_HSIRDY) != RESET)
 800383c:	fab3 f383 	clz	r3, r3
 8003840:	b2db      	uxtb	r3, r3
 8003842:	095b      	lsrs	r3, r3, #5
 8003844:	b2db      	uxtb	r3, r3
 8003846:	f043 0301 	orr.w	r3, r3, #1
 800384a:	b2db      	uxtb	r3, r3
 800384c:	2b01      	cmp	r3, #1
 800384e:	d102      	bne.n	8003856 <HAL_RCC_OscConfig+0x592>
 8003850:	4b30      	ldr	r3, [pc, #192]	; (8003914 <HAL_RCC_OscConfig+0x650>)
 8003852:	681b      	ldr	r3, [r3, #0]
 8003854:	e013      	b.n	800387e <HAL_RCC_OscConfig+0x5ba>
 8003856:	2302      	movs	r3, #2
 8003858:	f8c7 3128 	str.w	r3, [r7, #296]	; 0x128
   __ASM volatile ("rbit %0, %1" : "=r" (result) : "r" (value) );
 800385c:	f8d7 3128 	ldr.w	r3, [r7, #296]	; 0x128
 8003860:	fa93 f3a3 	rbit	r3, r3
 8003864:	f8c7 3124 	str.w	r3, [r7, #292]	; 0x124
 8003868:	2302      	movs	r3, #2
 800386a:	f8c7 3120 	str.w	r3, [r7, #288]	; 0x120
 800386e:	f8d7 3120 	ldr.w	r3, [r7, #288]	; 0x120
 8003872:	fa93 f3a3 	rbit	r3, r3
 8003876:	f8c7 311c 	str.w	r3, [r7, #284]	; 0x11c
 800387a:	4b26      	ldr	r3, [pc, #152]	; (8003914 <HAL_RCC_OscConfig+0x650>)
 800387c:	6a5b      	ldr	r3, [r3, #36]	; 0x24
 800387e:	2202      	movs	r2, #2
 8003880:	f8c7 2118 	str.w	r2, [r7, #280]	; 0x118
 8003884:	f8d7 2118 	ldr.w	r2, [r7, #280]	; 0x118
 8003888:	fa92 f2a2 	rbit	r2, r2
 800388c:	f8c7 2114 	str.w	r2, [r7, #276]	; 0x114
  return result;
 8003890:	f8d7 2114 	ldr.w	r2, [r7, #276]	; 0x114
 8003894:	fab2 f282 	clz	r2, r2
 8003898:	b2d2      	uxtb	r2, r2
 800389a:	f042 0220 	orr.w	r2, r2, #32
 800389e:	b2d2      	uxtb	r2, r2
 80038a0:	f002 021f 	and.w	r2, r2, #31
 80038a4:	2101      	movs	r1, #1
 80038a6:	fa01 f202 	lsl.w	r2, r1, r2
 80038aa:	4013      	ands	r3, r2
 80038ac:	2b00      	cmp	r3, #0
 80038ae:	d1af      	bne.n	8003810 <HAL_RCC_OscConfig+0x54c>
        }
      }
    }
  }
  /*------------------------------ LSI Configuration -------------------------*/ 
  if(((RCC_OscInitStruct->OscillatorType) & RCC_OSCILLATORTYPE_LSI) == RCC_OSCILLATORTYPE_LSI)
 80038b0:	1d3b      	adds	r3, r7, #4
 80038b2:	681b      	ldr	r3, [r3, #0]
 80038b4:	681b      	ldr	r3, [r3, #0]
 80038b6:	f003 0308 	and.w	r3, r3, #8
 80038ba:	2b00      	cmp	r3, #0
 80038bc:	f000 80da 	beq.w	8003a74 <HAL_RCC_OscConfig+0x7b0>
  {
    /* Check the parameters */
    assert_param(IS_RCC_LSI(RCC_OscInitStruct->LSIState));
    
    /* Check the LSI State */
    if(RCC_OscInitStruct->LSIState != RCC_LSI_OFF)
 80038c0:	1d3b      	adds	r3, r7, #4
 80038c2:	681b      	ldr	r3, [r3, #0]
 80038c4:	699b      	ldr	r3, [r3, #24]
 80038c6:	2b00      	cmp	r3, #0
 80038c8:	d069      	beq.n	800399e <HAL_RCC_OscConfig+0x6da>
 80038ca:	2301      	movs	r3, #1
 80038cc:	f8c7 3110 	str.w	r3, [r7, #272]	; 0x110
   __ASM volatile ("rbit %0, %1" : "=r" (result) : "r" (value) );
 80038d0:	f8d7 3110 	ldr.w	r3, [r7, #272]	; 0x110
 80038d4:	fa93 f3a3 	rbit	r3, r3
 80038d8:	f8c7 310c 	str.w	r3, [r7, #268]	; 0x10c
  return result;
 80038dc:	f8d7 310c 	ldr.w	r3, [r7, #268]	; 0x10c
    {
      /* Enable the Internal Low Speed oscillator (LSI). */
      __HAL_RCC_LSI_ENABLE();
 80038e0:	fab3 f383 	clz	r3, r3
 80038e4:	b2db      	uxtb	r3, r3
 80038e6:	461a      	mov	r2, r3
 80038e8:	4b0b      	ldr	r3, [pc, #44]	; (8003918 <HAL_RCC_OscConfig+0x654>)
 80038ea:	4413      	add	r3, r2
 80038ec:	009b      	lsls	r3, r3, #2
 80038ee:	461a      	mov	r2, r3
 80038f0:	2301      	movs	r3, #1
 80038f2:	6013      	str	r3, [r2, #0]
      
      /* Get Start Tick */
      tickstart = HAL_GetTick();
 80038f4:	f7fe fc8a 	bl	800220c <HAL_GetTick>
 80038f8:	f8c7 01f8 	str.w	r0, [r7, #504]	; 0x1f8
      
      /* Wait till LSI is ready */  
      while(__HAL_RCC_GET_FLAG(RCC_FLAG_LSIRDY) == RESET)
 80038fc:	e00e      	b.n	800391c <HAL_RCC_OscConfig+0x658>
      {
        if((HAL_GetTick() - tickstart ) > LSI_TIMEOUT_VALUE)
 80038fe:	f7fe fc85 	bl	800220c <HAL_GetTick>
 8003902:	4602      	mov	r2, r0
 8003904:	f8d7 31f8 	ldr.w	r3, [r7, #504]	; 0x1f8
 8003908:	1ad3      	subs	r3, r2, r3
 800390a:	2b02      	cmp	r3, #2
 800390c:	d906      	bls.n	800391c <HAL_RCC_OscConfig+0x658>
        {
          return HAL_TIMEOUT;
 800390e:	2303      	movs	r3, #3
 8003910:	e3d9      	b.n	80040c6 <HAL_RCC_OscConfig+0xe02>
 8003912:	bf00      	nop
 8003914:	40021000 	.word	0x40021000
 8003918:	10908120 	.word	0x10908120
 800391c:	2302      	movs	r3, #2
 800391e:	f8c7 3108 	str.w	r3, [r7, #264]	; 0x108
   __ASM volatile ("rbit %0, %1" : "=r" (result) : "r" (value) );
 8003922:	f8d7 3108 	ldr.w	r3, [r7, #264]	; 0x108
 8003926:	fa93 f3a3 	rbit	r3, r3
 800392a:	f8c7 3104 	str.w	r3, [r7, #260]	; 0x104
 800392e:	f507 7380 	add.w	r3, r7, #256	; 0x100
 8003932:	2202      	movs	r2, #2
 8003934:	601a      	str	r2, [r3, #0]
 8003936:	f507 7380 	add.w	r3, r7, #256	; 0x100
 800393a:	681b      	ldr	r3, [r3, #0]
 800393c:	fa93 f2a3 	rbit	r2, r3
 8003940:	f107 03fc 	add.w	r3, r7, #252	; 0xfc
 8003944:	601a      	str	r2, [r3, #0]
 8003946:	f107 03f8 	add.w	r3, r7, #248	; 0xf8
 800394a:	2202      	movs	r2, #2
 800394c:	601a      	str	r2, [r3, #0]
 800394e:	f107 03f8 	add.w	r3, r7, #248	; 0xf8
 8003952:	681b      	ldr	r3, [r3, #0]
 8003954:	fa93 f2a3 	rbit	r2, r3
 8003958:	f107 03f4 	add.w	r3, r7, #244	; 0xf4
 800395c:	601a      	str	r2, [r3, #0]
      while(__HAL_RCC_GET_FLAG(RCC_FLAG_LSIRDY) == RESET)
 800395e:	4ba5      	ldr	r3, [pc, #660]	; (8003bf4 <HAL_RCC_OscConfig+0x930>)
 8003960:	6a5a      	ldr	r2, [r3, #36]	; 0x24
 8003962:	f107 03f0 	add.w	r3, r7, #240	; 0xf0
 8003966:	2102      	movs	r1, #2
 8003968:	6019      	str	r1, [r3, #0]
 800396a:	f107 03f0 	add.w	r3, r7, #240	; 0xf0
 800396e:	681b      	ldr	r3, [r3, #0]
 8003970:	fa93 f1a3 	rbit	r1, r3
 8003974:	f107 03ec 	add.w	r3, r7, #236	; 0xec
 8003978:	6019      	str	r1, [r3, #0]
  return result;
 800397a:	f107 03ec 	add.w	r3, r7, #236	; 0xec
 800397e:	681b      	ldr	r3, [r3, #0]
 8003980:	fab3 f383 	clz	r3, r3
 8003984:	b2db      	uxtb	r3, r3
 8003986:	f043 0360 	orr.w	r3, r3, #96	; 0x60
 800398a:	b2db      	uxtb	r3, r3
 800398c:	f003 031f 	and.w	r3, r3, #31
 8003990:	2101      	movs	r1, #1
 8003992:	fa01 f303 	lsl.w	r3, r1, r3
 8003996:	4013      	ands	r3, r2
 8003998:	2b00      	cmp	r3, #0
 800399a:	d0b0      	beq.n	80038fe <HAL_RCC_OscConfig+0x63a>
 800399c:	e06a      	b.n	8003a74 <HAL_RCC_OscConfig+0x7b0>
 800399e:	f107 03e8 	add.w	r3, r7, #232	; 0xe8
 80039a2:	2201      	movs	r2, #1
 80039a4:	601a      	str	r2, [r3, #0]
   __ASM volatile ("rbit %0, %1" : "=r" (result) : "r" (value) );
 80039a6:	f107 03e8 	add.w	r3, r7, #232	; 0xe8
 80039aa:	681b      	ldr	r3, [r3, #0]
 80039ac:	fa93 f2a3 	rbit	r2, r3
 80039b0:	f107 03e4 	add.w	r3, r7, #228	; 0xe4
 80039b4:	601a      	str	r2, [r3, #0]
  return result;
 80039b6:	f107 03e4 	add.w	r3, r7, #228	; 0xe4
 80039ba:	681b      	ldr	r3, [r3, #0]
      }
    }
    else
    {
      /* Disable the Internal Low Speed oscillator (LSI). */
      __HAL_RCC_LSI_DISABLE();
 80039bc:	fab3 f383 	clz	r3, r3
 80039c0:	b2db      	uxtb	r3, r3
 80039c2:	461a      	mov	r2, r3
 80039c4:	4b8c      	ldr	r3, [pc, #560]	; (8003bf8 <HAL_RCC_OscConfig+0x934>)
 80039c6:	4413      	add	r3, r2
 80039c8:	009b      	lsls	r3, r3, #2
 80039ca:	461a      	mov	r2, r3
 80039cc:	2300      	movs	r3, #0
 80039ce:	6013      	str	r3, [r2, #0]
      
      /* Get Start Tick */
      tickstart = HAL_GetTick();
 80039d0:	f7fe fc1c 	bl	800220c <HAL_GetTick>
 80039d4:	f8c7 01f8 	str.w	r0, [r7, #504]	; 0x1f8
      
      /* Wait till LSI is disabled */  
      while(__HAL_RCC_GET_FLAG(RCC_FLAG_LSIRDY) != RESET)
 80039d8:	e009      	b.n	80039ee <HAL_RCC_OscConfig+0x72a>
      {
        if((HAL_GetTick() - tickstart ) > LSI_TIMEOUT_VALUE)
 80039da:	f7fe fc17 	bl	800220c <HAL_GetTick>
 80039de:	4602      	mov	r2, r0
 80039e0:	f8d7 31f8 	ldr.w	r3, [r7, #504]	; 0x1f8
 80039e4:	1ad3      	subs	r3, r2, r3
 80039e6:	2b02      	cmp	r3, #2
 80039e8:	d901      	bls.n	80039ee <HAL_RCC_OscConfig+0x72a>
        {
          return HAL_TIMEOUT;
 80039ea:	2303      	movs	r3, #3
 80039ec:	e36b      	b.n	80040c6 <HAL_RCC_OscConfig+0xe02>
 80039ee:	f107 03e0 	add.w	r3, r7, #224	; 0xe0
 80039f2:	2202      	movs	r2, #2
 80039f4:	601a      	str	r2, [r3, #0]
   __ASM volatile ("rbit %0, %1" : "=r" (result) : "r" (value) );
 80039f6:	f107 03e0 	add.w	r3, r7, #224	; 0xe0
 80039fa:	681b      	ldr	r3, [r3, #0]
 80039fc:	fa93 f2a3 	rbit	r2, r3
 8003a00:	f107 03dc 	add.w	r3, r7, #220	; 0xdc
 8003a04:	601a      	str	r2, [r3, #0]
 8003a06:	f107 03d8 	add.w	r3, r7, #216	; 0xd8
 8003a0a:	2202      	movs	r2, #2
 8003a0c:	601a      	str	r2, [r3, #0]
 8003a0e:	f107 03d8 	add.w	r3, r7, #216	; 0xd8
 8003a12:	681b      	ldr	r3, [r3, #0]
 8003a14:	fa93 f2a3 	rbit	r2, r3
 8003a18:	f107 03d4 	add.w	r3, r7, #212	; 0xd4
 8003a1c:	601a      	str	r2, [r3, #0]
 8003a1e:	f107 03d0 	add.w	r3, r7, #208	; 0xd0
 8003a22:	2202      	movs	r2, #2
 8003a24:	601a      	str	r2, [r3, #0]
 8003a26:	f107 03d0 	add.w	r3, r7, #208	; 0xd0
 8003a2a:	681b      	ldr	r3, [r3, #0]
 8003a2c:	fa93 f2a3 	rbit	r2, r3
 8003a30:	f107 03cc 	add.w	r3, r7, #204	; 0xcc
 8003a34:	601a      	str	r2, [r3, #0]
      while(__HAL_RCC_GET_FLAG(RCC_FLAG_LSIRDY) != RESET)
 8003a36:	4b6f      	ldr	r3, [pc, #444]	; (8003bf4 <HAL_RCC_OscConfig+0x930>)
 8003a38:	6a5a      	ldr	r2, [r3, #36]	; 0x24
 8003a3a:	f107 03c8 	add.w	r3, r7, #200	; 0xc8
 8003a3e:	2102      	movs	r1, #2
 8003a40:	6019      	str	r1, [r3, #0]
 8003a42:	f107 03c8 	add.w	r3, r7, #200	; 0xc8
 8003a46:	681b      	ldr	r3, [r3, #0]
 8003a48:	fa93 f1a3 	rbit	r1, r3
 8003a4c:	f107 03c4 	add.w	r3, r7, #196	; 0xc4
 8003a50:	6019      	str	r1, [r3, #0]
  return result;
 8003a52:	f107 03c4 	add.w	r3, r7, #196	; 0xc4
 8003a56:	681b      	ldr	r3, [r3, #0]
 8003a58:	fab3 f383 	clz	r3, r3
 8003a5c:	b2db      	uxtb	r3, r3
 8003a5e:	f043 0360 	orr.w	r3, r3, #96	; 0x60
 8003a62:	b2db      	uxtb	r3, r3
 8003a64:	f003 031f 	and.w	r3, r3, #31
 8003a68:	2101      	movs	r1, #1
 8003a6a:	fa01 f303 	lsl.w	r3, r1, r3
 8003a6e:	4013      	ands	r3, r2
 8003a70:	2b00      	cmp	r3, #0
 8003a72:	d1b2      	bne.n	80039da <HAL_RCC_OscConfig+0x716>
        }
      }
    }
  }
  /*------------------------------ LSE Configuration -------------------------*/ 
  if(((RCC_OscInitStruct->OscillatorType) & RCC_OSCILLATORTYPE_LSE) == RCC_OSCILLATORTYPE_LSE)
 8003a74:	1d3b      	adds	r3, r7, #4
 8003a76:	681b      	ldr	r3, [r3, #0]
 8003a78:	681b      	ldr	r3, [r3, #0]
 8003a7a:	f003 0304 	and.w	r3, r3, #4
 8003a7e:	2b00      	cmp	r3, #0
 8003a80:	f000 8158 	beq.w	8003d34 <HAL_RCC_OscConfig+0xa70>
  {
    FlagStatus       pwrclkchanged = RESET;
 8003a84:	2300      	movs	r3, #0
 8003a86:	f887 31ff 	strb.w	r3, [r7, #511]	; 0x1ff
    /* Check the parameters */
    assert_param(IS_RCC_LSE(RCC_OscInitStruct->LSEState));

    /* Update LSE configuration in Backup Domain control register    */
    /* Requires to enable write access to Backup Domain of necessary */
    if(__HAL_RCC_PWR_IS_CLK_DISABLED())
 8003a8a:	4b5a      	ldr	r3, [pc, #360]	; (8003bf4 <HAL_RCC_OscConfig+0x930>)
 8003a8c:	69db      	ldr	r3, [r3, #28]
 8003a8e:	f003 5380 	and.w	r3, r3, #268435456	; 0x10000000
 8003a92:	2b00      	cmp	r3, #0
 8003a94:	d112      	bne.n	8003abc <HAL_RCC_OscConfig+0x7f8>
    {
      __HAL_RCC_PWR_CLK_ENABLE();
 8003a96:	4b57      	ldr	r3, [pc, #348]	; (8003bf4 <HAL_RCC_OscConfig+0x930>)
 8003a98:	69db      	ldr	r3, [r3, #28]
 8003a9a:	4a56      	ldr	r2, [pc, #344]	; (8003bf4 <HAL_RCC_OscConfig+0x930>)
 8003a9c:	f043 5380 	orr.w	r3, r3, #268435456	; 0x10000000
 8003aa0:	61d3      	str	r3, [r2, #28]
 8003aa2:	4b54      	ldr	r3, [pc, #336]	; (8003bf4 <HAL_RCC_OscConfig+0x930>)
 8003aa4:	69db      	ldr	r3, [r3, #28]
 8003aa6:	f003 5280 	and.w	r2, r3, #268435456	; 0x10000000
 8003aaa:	f107 0308 	add.w	r3, r7, #8
 8003aae:	601a      	str	r2, [r3, #0]
 8003ab0:	f107 0308 	add.w	r3, r7, #8
 8003ab4:	681b      	ldr	r3, [r3, #0]
      pwrclkchanged = SET;
 8003ab6:	2301      	movs	r3, #1
 8003ab8:	f887 31ff 	strb.w	r3, [r7, #511]	; 0x1ff
    }
    
    if(HAL_IS_BIT_CLR(PWR->CR, PWR_CR_DBP))
 8003abc:	4b4f      	ldr	r3, [pc, #316]	; (8003bfc <HAL_RCC_OscConfig+0x938>)
 8003abe:	681b      	ldr	r3, [r3, #0]
 8003ac0:	f403 7380 	and.w	r3, r3, #256	; 0x100
 8003ac4:	2b00      	cmp	r3, #0
 8003ac6:	d11a      	bne.n	8003afe <HAL_RCC_OscConfig+0x83a>
    {
      /* Enable write access to Backup domain */
      SET_BIT(PWR->CR, PWR_CR_DBP);
 8003ac8:	4b4c      	ldr	r3, [pc, #304]	; (8003bfc <HAL_RCC_OscConfig+0x938>)
 8003aca:	681b      	ldr	r3, [r3, #0]
 8003acc:	4a4b      	ldr	r2, [pc, #300]	; (8003bfc <HAL_RCC_OscConfig+0x938>)
 8003ace:	f443 7380 	orr.w	r3, r3, #256	; 0x100
 8003ad2:	6013      	str	r3, [r2, #0]
      
      /* Wait for Backup domain Write protection disable */
      tickstart = HAL_GetTick();
 8003ad4:	f7fe fb9a 	bl	800220c <HAL_GetTick>
 8003ad8:	f8c7 01f8 	str.w	r0, [r7, #504]	; 0x1f8

      while(HAL_IS_BIT_CLR(PWR->CR, PWR_CR_DBP))
 8003adc:	e009      	b.n	8003af2 <HAL_RCC_OscConfig+0x82e>
      {
        if((HAL_GetTick() - tickstart) > RCC_DBP_TIMEOUT_VALUE)
 8003ade:	f7fe fb95 	bl	800220c <HAL_GetTick>
 8003ae2:	4602      	mov	r2, r0
 8003ae4:	f8d7 31f8 	ldr.w	r3, [r7, #504]	; 0x1f8
 8003ae8:	1ad3      	subs	r3, r2, r3
 8003aea:	2b64      	cmp	r3, #100	; 0x64
 8003aec:	d901      	bls.n	8003af2 <HAL_RCC_OscConfig+0x82e>
        {
          return HAL_TIMEOUT;
 8003aee:	2303      	movs	r3, #3
 8003af0:	e2e9      	b.n	80040c6 <HAL_RCC_OscConfig+0xe02>
      while(HAL_IS_BIT_CLR(PWR->CR, PWR_CR_DBP))
 8003af2:	4b42      	ldr	r3, [pc, #264]	; (8003bfc <HAL_RCC_OscConfig+0x938>)
 8003af4:	681b      	ldr	r3, [r3, #0]
 8003af6:	f403 7380 	and.w	r3, r3, #256	; 0x100
 8003afa:	2b00      	cmp	r3, #0
 8003afc:	d0ef      	beq.n	8003ade <HAL_RCC_OscConfig+0x81a>
        }
      }
    }

    /* Set the new LSE configuration -----------------------------------------*/
    __HAL_RCC_LSE_CONFIG(RCC_OscInitStruct->LSEState);
 8003afe:	1d3b      	adds	r3, r7, #4
 8003b00:	681b      	ldr	r3, [r3, #0]
 8003b02:	68db      	ldr	r3, [r3, #12]
 8003b04:	2b01      	cmp	r3, #1
 8003b06:	d106      	bne.n	8003b16 <HAL_RCC_OscConfig+0x852>
 8003b08:	4b3a      	ldr	r3, [pc, #232]	; (8003bf4 <HAL_RCC_OscConfig+0x930>)
 8003b0a:	6a1b      	ldr	r3, [r3, #32]
 8003b0c:	4a39      	ldr	r2, [pc, #228]	; (8003bf4 <HAL_RCC_OscConfig+0x930>)
 8003b0e:	f043 0301 	orr.w	r3, r3, #1
 8003b12:	6213      	str	r3, [r2, #32]
 8003b14:	e02f      	b.n	8003b76 <HAL_RCC_OscConfig+0x8b2>
 8003b16:	1d3b      	adds	r3, r7, #4
 8003b18:	681b      	ldr	r3, [r3, #0]
 8003b1a:	68db      	ldr	r3, [r3, #12]
 8003b1c:	2b00      	cmp	r3, #0
 8003b1e:	d10c      	bne.n	8003b3a <HAL_RCC_OscConfig+0x876>
 8003b20:	4b34      	ldr	r3, [pc, #208]	; (8003bf4 <HAL_RCC_OscConfig+0x930>)
 8003b22:	6a1b      	ldr	r3, [r3, #32]
 8003b24:	4a33      	ldr	r2, [pc, #204]	; (8003bf4 <HAL_RCC_OscConfig+0x930>)
 8003b26:	f023 0301 	bic.w	r3, r3, #1
 8003b2a:	6213      	str	r3, [r2, #32]
 8003b2c:	4b31      	ldr	r3, [pc, #196]	; (8003bf4 <HAL_RCC_OscConfig+0x930>)
 8003b2e:	6a1b      	ldr	r3, [r3, #32]
 8003b30:	4a30      	ldr	r2, [pc, #192]	; (8003bf4 <HAL_RCC_OscConfig+0x930>)
 8003b32:	f023 0304 	bic.w	r3, r3, #4
 8003b36:	6213      	str	r3, [r2, #32]
 8003b38:	e01d      	b.n	8003b76 <HAL_RCC_OscConfig+0x8b2>
 8003b3a:	1d3b      	adds	r3, r7, #4
 8003b3c:	681b      	ldr	r3, [r3, #0]
 8003b3e:	68db      	ldr	r3, [r3, #12]
 8003b40:	2b05      	cmp	r3, #5
 8003b42:	d10c      	bne.n	8003b5e <HAL_RCC_OscConfig+0x89a>
 8003b44:	4b2b      	ldr	r3, [pc, #172]	; (8003bf4 <HAL_RCC_OscConfig+0x930>)
 8003b46:	6a1b      	ldr	r3, [r3, #32]
 8003b48:	4a2a      	ldr	r2, [pc, #168]	; (8003bf4 <HAL_RCC_OscConfig+0x930>)
 8003b4a:	f043 0304 	orr.w	r3, r3, #4
 8003b4e:	6213      	str	r3, [r2, #32]
 8003b50:	4b28      	ldr	r3, [pc, #160]	; (8003bf4 <HAL_RCC_OscConfig+0x930>)
 8003b52:	6a1b      	ldr	r3, [r3, #32]
 8003b54:	4a27      	ldr	r2, [pc, #156]	; (8003bf4 <HAL_RCC_OscConfig+0x930>)
 8003b56:	f043 0301 	orr.w	r3, r3, #1
 8003b5a:	6213      	str	r3, [r2, #32]
 8003b5c:	e00b      	b.n	8003b76 <HAL_RCC_OscConfig+0x8b2>
 8003b5e:	4b25      	ldr	r3, [pc, #148]	; (8003bf4 <HAL_RCC_OscConfig+0x930>)
 8003b60:	6a1b      	ldr	r3, [r3, #32]
 8003b62:	4a24      	ldr	r2, [pc, #144]	; (8003bf4 <HAL_RCC_OscConfig+0x930>)
 8003b64:	f023 0301 	bic.w	r3, r3, #1
 8003b68:	6213      	str	r3, [r2, #32]
 8003b6a:	4b22      	ldr	r3, [pc, #136]	; (8003bf4 <HAL_RCC_OscConfig+0x930>)
 8003b6c:	6a1b      	ldr	r3, [r3, #32]
 8003b6e:	4a21      	ldr	r2, [pc, #132]	; (8003bf4 <HAL_RCC_OscConfig+0x930>)
 8003b70:	f023 0304 	bic.w	r3, r3, #4
 8003b74:	6213      	str	r3, [r2, #32]
    /* Check the LSE State */
    if(RCC_OscInitStruct->LSEState != RCC_LSE_OFF)
 8003b76:	1d3b      	adds	r3, r7, #4
 8003b78:	681b      	ldr	r3, [r3, #0]
 8003b7a:	68db      	ldr	r3, [r3, #12]
 8003b7c:	2b00      	cmp	r3, #0
 8003b7e:	d06b      	beq.n	8003c58 <HAL_RCC_OscConfig+0x994>
    {
      /* Get Start Tick */
      tickstart = HAL_GetTick();
 8003b80:	f7fe fb44 	bl	800220c <HAL_GetTick>
 8003b84:	f8c7 01f8 	str.w	r0, [r7, #504]	; 0x1f8
      
      /* Wait till LSE is ready */  
      while(__HAL_RCC_GET_FLAG(RCC_FLAG_LSERDY) == RESET)
 8003b88:	e00b      	b.n	8003ba2 <HAL_RCC_OscConfig+0x8de>
      {
        if((HAL_GetTick() - tickstart ) > RCC_LSE_TIMEOUT_VALUE)
 8003b8a:	f7fe fb3f 	bl	800220c <HAL_GetTick>
 8003b8e:	4602      	mov	r2, r0
 8003b90:	f8d7 31f8 	ldr.w	r3, [r7, #504]	; 0x1f8
 8003b94:	1ad3      	subs	r3, r2, r3
 8003b96:	f241 3288 	movw	r2, #5000	; 0x1388
 8003b9a:	4293      	cmp	r3, r2
 8003b9c:	d901      	bls.n	8003ba2 <HAL_RCC_OscConfig+0x8de>
        {
          return HAL_TIMEOUT;
 8003b9e:	2303      	movs	r3, #3
 8003ba0:	e291      	b.n	80040c6 <HAL_RCC_OscConfig+0xe02>
 8003ba2:	f107 03c0 	add.w	r3, r7, #192	; 0xc0
 8003ba6:	2202      	movs	r2, #2
 8003ba8:	601a      	str	r2, [r3, #0]
   __ASM volatile ("rbit %0, %1" : "=r" (result) : "r" (value) );
 8003baa:	f107 03c0 	add.w	r3, r7, #192	; 0xc0
 8003bae:	681b      	ldr	r3, [r3, #0]
 8003bb0:	fa93 f2a3 	rbit	r2, r3
 8003bb4:	f107 03bc 	add.w	r3, r7, #188	; 0xbc
 8003bb8:	601a      	str	r2, [r3, #0]
 8003bba:	f107 03b8 	add.w	r3, r7, #184	; 0xb8
 8003bbe:	2202      	movs	r2, #2
 8003bc0:	601a      	str	r2, [r3, #0]
 8003bc2:	f107 03b8 	add.w	r3, r7, #184	; 0xb8
 8003bc6:	681b      	ldr	r3, [r3, #0]
 8003bc8:	fa93 f2a3 	rbit	r2, r3
 8003bcc:	f107 03b4 	add.w	r3, r7, #180	; 0xb4
 8003bd0:	601a      	str	r2, [r3, #0]
  return result;
 8003bd2:	f107 03b4 	add.w	r3, r7, #180	; 0xb4
 8003bd6:	681b      	ldr	r3, [r3, #0]
      while(__HAL_RCC_GET_FLAG(RCC_FLAG_LSERDY) == RESET)
 8003bd8:	fab3 f383 	clz	r3, r3
 8003bdc:	b2db      	uxtb	r3, r3
 8003bde:	095b      	lsrs	r3, r3, #5
 8003be0:	b2db      	uxtb	r3, r3
 8003be2:	f043 0302 	orr.w	r3, r3, #2
 8003be6:	b2db      	uxtb	r3, r3
 8003be8:	2b02      	cmp	r3, #2
 8003bea:	d109      	bne.n	8003c00 <HAL_RCC_OscConfig+0x93c>
 8003bec:	4b01      	ldr	r3, [pc, #4]	; (8003bf4 <HAL_RCC_OscConfig+0x930>)
 8003bee:	6a1b      	ldr	r3, [r3, #32]
 8003bf0:	e014      	b.n	8003c1c <HAL_RCC_OscConfig+0x958>
 8003bf2:	bf00      	nop
 8003bf4:	40021000 	.word	0x40021000
 8003bf8:	10908120 	.word	0x10908120
 8003bfc:	40007000 	.word	0x40007000
 8003c00:	f107 03b0 	add.w	r3, r7, #176	; 0xb0
 8003c04:	2202      	movs	r2, #2
 8003c06:	601a      	str	r2, [r3, #0]
   __ASM volatile ("rbit %0, %1" : "=r" (result) : "r" (value) );
 8003c08:	f107 03b0 	add.w	r3, r7, #176	; 0xb0
 8003c0c:	681b      	ldr	r3, [r3, #0]
 8003c0e:	fa93 f2a3 	rbit	r2, r3
 8003c12:	f107 03ac 	add.w	r3, r7, #172	; 0xac
 8003c16:	601a      	str	r2, [r3, #0]
 8003c18:	4bbb      	ldr	r3, [pc, #748]	; (8003f08 <HAL_RCC_OscConfig+0xc44>)
 8003c1a:	6a5b      	ldr	r3, [r3, #36]	; 0x24
 8003c1c:	f107 02a8 	add.w	r2, r7, #168	; 0xa8
 8003c20:	2102      	movs	r1, #2
 8003c22:	6011      	str	r1, [r2, #0]
 8003c24:	f107 02a8 	add.w	r2, r7, #168	; 0xa8
 8003c28:	6812      	ldr	r2, [r2, #0]
 8003c2a:	fa92 f1a2 	rbit	r1, r2
 8003c2e:	f107 02a4 	add.w	r2, r7, #164	; 0xa4
 8003c32:	6011      	str	r1, [r2, #0]
  return result;
 8003c34:	f107 02a4 	add.w	r2, r7, #164	; 0xa4
 8003c38:	6812      	ldr	r2, [r2, #0]
 8003c3a:	fab2 f282 	clz	r2, r2
 8003c3e:	b2d2      	uxtb	r2, r2
 8003c40:	f042 0240 	orr.w	r2, r2, #64	; 0x40
 8003c44:	b2d2      	uxtb	r2, r2
 8003c46:	f002 021f 	and.w	r2, r2, #31
 8003c4a:	2101      	movs	r1, #1
 8003c4c:	fa01 f202 	lsl.w	r2, r1, r2
 8003c50:	4013      	ands	r3, r2
 8003c52:	2b00      	cmp	r3, #0
 8003c54:	d099      	beq.n	8003b8a <HAL_RCC_OscConfig+0x8c6>
 8003c56:	e063      	b.n	8003d20 <HAL_RCC_OscConfig+0xa5c>
      }
    }
    else
    {
      /* Get Start Tick */
      tickstart = HAL_GetTick();
 8003c58:	f7fe fad8 	bl	800220c <HAL_GetTick>
 8003c5c:	f8c7 01f8 	str.w	r0, [r7, #504]	; 0x1f8
      
      /* Wait till LSE is disabled */  
      while(__HAL_RCC_GET_FLAG(RCC_FLAG_LSERDY) != RESET)
 8003c60:	e00b      	b.n	8003c7a <HAL_RCC_OscConfig+0x9b6>
      {
        if((HAL_GetTick() - tickstart ) > RCC_LSE_TIMEOUT_VALUE)
 8003c62:	f7fe fad3 	bl	800220c <HAL_GetTick>
 8003c66:	4602      	mov	r2, r0
 8003c68:	f8d7 31f8 	ldr.w	r3, [r7, #504]	; 0x1f8
 8003c6c:	1ad3      	subs	r3, r2, r3
 8003c6e:	f241 3288 	movw	r2, #5000	; 0x1388
 8003c72:	4293      	cmp	r3, r2
 8003c74:	d901      	bls.n	8003c7a <HAL_RCC_OscConfig+0x9b6>
        {
          return HAL_TIMEOUT;
 8003c76:	2303      	movs	r3, #3
 8003c78:	e225      	b.n	80040c6 <HAL_RCC_OscConfig+0xe02>
 8003c7a:	f107 03a0 	add.w	r3, r7, #160	; 0xa0
 8003c7e:	2202      	movs	r2, #2
 8003c80:	601a      	str	r2, [r3, #0]
   __ASM volatile ("rbit %0, %1" : "=r" (result) : "r" (value) );
 8003c82:	f107 03a0 	add.w	r3, r7, #160	; 0xa0
 8003c86:	681b      	ldr	r3, [r3, #0]
 8003c88:	fa93 f2a3 	rbit	r2, r3
 8003c8c:	f107 039c 	add.w	r3, r7, #156	; 0x9c
 8003c90:	601a      	str	r2, [r3, #0]
 8003c92:	f107 0398 	add.w	r3, r7, #152	; 0x98
 8003c96:	2202      	movs	r2, #2
 8003c98:	601a      	str	r2, [r3, #0]
 8003c9a:	f107 0398 	add.w	r3, r7, #152	; 0x98
 8003c9e:	681b      	ldr	r3, [r3, #0]
 8003ca0:	fa93 f2a3 	rbit	r2, r3
 8003ca4:	f107 0394 	add.w	r3, r7, #148	; 0x94
 8003ca8:	601a      	str	r2, [r3, #0]
  return result;
 8003caa:	f107 0394 	add.w	r3, r7, #148	; 0x94
 8003cae:	681b      	ldr	r3, [r3, #0]
      while(__HAL_RCC_GET_FLAG(RCC_FLAG_LSERDY) != RESET)
 8003cb0:	fab3 f383 	clz	r3, r3
 8003cb4:	b2db      	uxtb	r3, r3
 8003cb6:	095b      	lsrs	r3, r3, #5
 8003cb8:	b2db      	uxtb	r3, r3
 8003cba:	f043 0302 	orr.w	r3, r3, #2
 8003cbe:	b2db      	uxtb	r3, r3
 8003cc0:	2b02      	cmp	r3, #2
 8003cc2:	d102      	bne.n	8003cca <HAL_RCC_OscConfig+0xa06>
 8003cc4:	4b90      	ldr	r3, [pc, #576]	; (8003f08 <HAL_RCC_OscConfig+0xc44>)
 8003cc6:	6a1b      	ldr	r3, [r3, #32]
 8003cc8:	e00d      	b.n	8003ce6 <HAL_RCC_OscConfig+0xa22>
 8003cca:	f107 0390 	add.w	r3, r7, #144	; 0x90
 8003cce:	2202      	movs	r2, #2
 8003cd0:	601a      	str	r2, [r3, #0]
   __ASM volatile ("rbit %0, %1" : "=r" (result) : "r" (value) );
 8003cd2:	f107 0390 	add.w	r3, r7, #144	; 0x90
 8003cd6:	681b      	ldr	r3, [r3, #0]
 8003cd8:	fa93 f2a3 	rbit	r2, r3
 8003cdc:	f107 038c 	add.w	r3, r7, #140	; 0x8c
 8003ce0:	601a      	str	r2, [r3, #0]
 8003ce2:	4b89      	ldr	r3, [pc, #548]	; (8003f08 <HAL_RCC_OscConfig+0xc44>)
 8003ce4:	6a5b      	ldr	r3, [r3, #36]	; 0x24
 8003ce6:	f107 0288 	add.w	r2, r7, #136	; 0x88
 8003cea:	2102      	movs	r1, #2
 8003cec:	6011      	str	r1, [r2, #0]
 8003cee:	f107 0288 	add.w	r2, r7, #136	; 0x88
 8003cf2:	6812      	ldr	r2, [r2, #0]
 8003cf4:	fa92 f1a2 	rbit	r1, r2
 8003cf8:	f107 0284 	add.w	r2, r7, #132	; 0x84
 8003cfc:	6011      	str	r1, [r2, #0]
  return result;
 8003cfe:	f107 0284 	add.w	r2, r7, #132	; 0x84
 8003d02:	6812      	ldr	r2, [r2, #0]
 8003d04:	fab2 f282 	clz	r2, r2
 8003d08:	b2d2      	uxtb	r2, r2
 8003d0a:	f042 0240 	orr.w	r2, r2, #64	; 0x40
 8003d0e:	b2d2      	uxtb	r2, r2
 8003d10:	f002 021f 	and.w	r2, r2, #31
 8003d14:	2101      	movs	r1, #1
 8003d16:	fa01 f202 	lsl.w	r2, r1, r2
 8003d1a:	4013      	ands	r3, r2
 8003d1c:	2b00      	cmp	r3, #0
 8003d1e:	d1a0      	bne.n	8003c62 <HAL_RCC_OscConfig+0x99e>
        }
      }
    }

    /* Require to disable power clock if necessary */
    if(pwrclkchanged == SET)
 8003d20:	f897 31ff 	ldrb.w	r3, [r7, #511]	; 0x1ff
 8003d24:	2b01      	cmp	r3, #1
 8003d26:	d105      	bne.n	8003d34 <HAL_RCC_OscConfig+0xa70>
    {
      __HAL_RCC_PWR_CLK_DISABLE();
 8003d28:	4b77      	ldr	r3, [pc, #476]	; (8003f08 <HAL_RCC_OscConfig+0xc44>)
 8003d2a:	69db      	ldr	r3, [r3, #28]
 8003d2c:	4a76      	ldr	r2, [pc, #472]	; (8003f08 <HAL_RCC_OscConfig+0xc44>)
 8003d2e:	f023 5380 	bic.w	r3, r3, #268435456	; 0x10000000
 8003d32:	61d3      	str	r3, [r2, #28]
  }

  /*-------------------------------- PLL Configuration -----------------------*/
  /* Check the parameters */
  assert_param(IS_RCC_PLL(RCC_OscInitStruct->PLL.PLLState));
  if ((RCC_OscInitStruct->PLL.PLLState) != RCC_PLL_NONE)
 8003d34:	1d3b      	adds	r3, r7, #4
 8003d36:	681b      	ldr	r3, [r3, #0]
 8003d38:	69db      	ldr	r3, [r3, #28]
 8003d3a:	2b00      	cmp	r3, #0
 8003d3c:	f000 81c2 	beq.w	80040c4 <HAL_RCC_OscConfig+0xe00>
  {
    /* Check if the PLL is used as system clock or not */
    if(__HAL_RCC_GET_SYSCLK_SOURCE() != RCC_SYSCLKSOURCE_STATUS_PLLCLK)
 8003d40:	4b71      	ldr	r3, [pc, #452]	; (8003f08 <HAL_RCC_OscConfig+0xc44>)
 8003d42:	685b      	ldr	r3, [r3, #4]
 8003d44:	f003 030c 	and.w	r3, r3, #12
 8003d48:	2b08      	cmp	r3, #8
 8003d4a:	f000 819c 	beq.w	8004086 <HAL_RCC_OscConfig+0xdc2>
    { 
      if((RCC_OscInitStruct->PLL.PLLState) == RCC_PLL_ON)
 8003d4e:	1d3b      	adds	r3, r7, #4
 8003d50:	681b      	ldr	r3, [r3, #0]
 8003d52:	69db      	ldr	r3, [r3, #28]
 8003d54:	2b02      	cmp	r3, #2
 8003d56:	f040 8114 	bne.w	8003f82 <HAL_RCC_OscConfig+0xcbe>
 8003d5a:	f107 0380 	add.w	r3, r7, #128	; 0x80
 8003d5e:	f04f 7280 	mov.w	r2, #16777216	; 0x1000000
 8003d62:	601a      	str	r2, [r3, #0]
   __ASM volatile ("rbit %0, %1" : "=r" (result) : "r" (value) );
 8003d64:	f107 0380 	add.w	r3, r7, #128	; 0x80
 8003d68:	681b      	ldr	r3, [r3, #0]
 8003d6a:	fa93 f2a3 	rbit	r2, r3
 8003d6e:	f107 037c 	add.w	r3, r7, #124	; 0x7c
 8003d72:	601a      	str	r2, [r3, #0]
  return result;
 8003d74:	f107 037c 	add.w	r3, r7, #124	; 0x7c
 8003d78:	681b      	ldr	r3, [r3, #0]
#if   defined(RCC_CFGR_PLLSRC_HSI_PREDIV)
        assert_param(IS_RCC_PREDIV(RCC_OscInitStruct->PLL.PREDIV));
#endif
  
        /* Disable the main PLL. */
        __HAL_RCC_PLL_DISABLE();
 8003d7a:	fab3 f383 	clz	r3, r3
 8003d7e:	b2db      	uxtb	r3, r3
 8003d80:	f103 5384 	add.w	r3, r3, #276824064	; 0x10800000
 8003d84:	f503 1384 	add.w	r3, r3, #1081344	; 0x108000
 8003d88:	009b      	lsls	r3, r3, #2
 8003d8a:	461a      	mov	r2, r3
 8003d8c:	2300      	movs	r3, #0
 8003d8e:	6013      	str	r3, [r2, #0]
        
        /* Get Start Tick */
        tickstart = HAL_GetTick();
 8003d90:	f7fe fa3c 	bl	800220c <HAL_GetTick>
 8003d94:	f8c7 01f8 	str.w	r0, [r7, #504]	; 0x1f8
        
        /* Wait till PLL is disabled */
        while(__HAL_RCC_GET_FLAG(RCC_FLAG_PLLRDY)  != RESET)
 8003d98:	e009      	b.n	8003dae <HAL_RCC_OscConfig+0xaea>
        {
          if((HAL_GetTick() - tickstart ) > PLL_TIMEOUT_VALUE)
 8003d9a:	f7fe fa37 	bl	800220c <HAL_GetTick>
 8003d9e:	4602      	mov	r2, r0
 8003da0:	f8d7 31f8 	ldr.w	r3, [r7, #504]	; 0x1f8
 8003da4:	1ad3      	subs	r3, r2, r3
 8003da6:	2b02      	cmp	r3, #2
 8003da8:	d901      	bls.n	8003dae <HAL_RCC_OscConfig+0xaea>
          {
            return HAL_TIMEOUT;
 8003daa:	2303      	movs	r3, #3
 8003dac:	e18b      	b.n	80040c6 <HAL_RCC_OscConfig+0xe02>
 8003dae:	f107 0378 	add.w	r3, r7, #120	; 0x78
 8003db2:	f04f 7200 	mov.w	r2, #33554432	; 0x2000000
 8003db6:	601a      	str	r2, [r3, #0]
   __ASM volatile ("rbit %0, %1" : "=r" (result) : "r" (value) );
 8003db8:	f107 0378 	add.w	r3, r7, #120	; 0x78
 8003dbc:	681b      	ldr	r3, [r3, #0]
 8003dbe:	fa93 f2a3 	rbit	r2, r3
 8003dc2:	f107 0374 	add.w	r3, r7, #116	; 0x74
 8003dc6:	601a      	str	r2, [r3, #0]
  return result;
 8003dc8:	f107 0374 	add.w	r3, r7, #116	; 0x74
 8003dcc:	681b      	ldr	r3, [r3, #0]
        while(__HAL_RCC_GET_FLAG(RCC_FLAG_PLLRDY)  != RESET)
 8003dce:	fab3 f383 	clz	r3, r3
 8003dd2:	b2db      	uxtb	r3, r3
 8003dd4:	095b      	lsrs	r3, r3, #5
 8003dd6:	b2db      	uxtb	r3, r3
 8003dd8:	f043 0301 	orr.w	r3, r3, #1
 8003ddc:	b2db      	uxtb	r3, r3
 8003dde:	2b01      	cmp	r3, #1
 8003de0:	d102      	bne.n	8003de8 <HAL_RCC_OscConfig+0xb24>
 8003de2:	4b49      	ldr	r3, [pc, #292]	; (8003f08 <HAL_RCC_OscConfig+0xc44>)
 8003de4:	681b      	ldr	r3, [r3, #0]
 8003de6:	e01b      	b.n	8003e20 <HAL_RCC_OscConfig+0xb5c>
 8003de8:	f107 0370 	add.w	r3, r7, #112	; 0x70
 8003dec:	f04f 7200 	mov.w	r2, #33554432	; 0x2000000
 8003df0:	601a      	str	r2, [r3, #0]
   __ASM volatile ("rbit %0, %1" : "=r" (result) : "r" (value) );
 8003df2:	f107 0370 	add.w	r3, r7, #112	; 0x70
 8003df6:	681b      	ldr	r3, [r3, #0]
 8003df8:	fa93 f2a3 	rbit	r2, r3
 8003dfc:	f107 036c 	add.w	r3, r7, #108	; 0x6c
 8003e00:	601a      	str	r2, [r3, #0]
 8003e02:	f107 0368 	add.w	r3, r7, #104	; 0x68
 8003e06:	f04f 7200 	mov.w	r2, #33554432	; 0x2000000
 8003e0a:	601a      	str	r2, [r3, #0]
 8003e0c:	f107 0368 	add.w	r3, r7, #104	; 0x68
 8003e10:	681b      	ldr	r3, [r3, #0]
 8003e12:	fa93 f2a3 	rbit	r2, r3
 8003e16:	f107 0364 	add.w	r3, r7, #100	; 0x64
 8003e1a:	601a      	str	r2, [r3, #0]
 8003e1c:	4b3a      	ldr	r3, [pc, #232]	; (8003f08 <HAL_RCC_OscConfig+0xc44>)
 8003e1e:	6a5b      	ldr	r3, [r3, #36]	; 0x24
 8003e20:	f107 0260 	add.w	r2, r7, #96	; 0x60
 8003e24:	f04f 7100 	mov.w	r1, #33554432	; 0x2000000
 8003e28:	6011      	str	r1, [r2, #0]
 8003e2a:	f107 0260 	add.w	r2, r7, #96	; 0x60
 8003e2e:	6812      	ldr	r2, [r2, #0]
 8003e30:	fa92 f1a2 	rbit	r1, r2
 8003e34:	f107 025c 	add.w	r2, r7, #92	; 0x5c
 8003e38:	6011      	str	r1, [r2, #0]
  return result;
 8003e3a:	f107 025c 	add.w	r2, r7, #92	; 0x5c
 8003e3e:	6812      	ldr	r2, [r2, #0]
 8003e40:	fab2 f282 	clz	r2, r2
 8003e44:	b2d2      	uxtb	r2, r2
 8003e46:	f042 0220 	orr.w	r2, r2, #32
 8003e4a:	b2d2      	uxtb	r2, r2
 8003e4c:	f002 021f 	and.w	r2, r2, #31
 8003e50:	2101      	movs	r1, #1
 8003e52:	fa01 f202 	lsl.w	r2, r1, r2
 8003e56:	4013      	ands	r3, r2
 8003e58:	2b00      	cmp	r3, #0
 8003e5a:	d19e      	bne.n	8003d9a <HAL_RCC_OscConfig+0xad6>
        __HAL_RCC_PLL_CONFIG(RCC_OscInitStruct->PLL.PLLSource,
                             RCC_OscInitStruct->PLL.PREDIV,
                             RCC_OscInitStruct->PLL.PLLMUL);
#else
      /* Configure the main PLL clock source and multiplication factor. */
      __HAL_RCC_PLL_CONFIG(RCC_OscInitStruct->PLL.PLLSource,
 8003e5c:	4b2a      	ldr	r3, [pc, #168]	; (8003f08 <HAL_RCC_OscConfig+0xc44>)
 8003e5e:	685b      	ldr	r3, [r3, #4]
 8003e60:	f423 1274 	bic.w	r2, r3, #3997696	; 0x3d0000
 8003e64:	1d3b      	adds	r3, r7, #4
 8003e66:	681b      	ldr	r3, [r3, #0]
 8003e68:	6a59      	ldr	r1, [r3, #36]	; 0x24
 8003e6a:	1d3b      	adds	r3, r7, #4
 8003e6c:	681b      	ldr	r3, [r3, #0]
 8003e6e:	6a1b      	ldr	r3, [r3, #32]
 8003e70:	430b      	orrs	r3, r1
 8003e72:	4925      	ldr	r1, [pc, #148]	; (8003f08 <HAL_RCC_OscConfig+0xc44>)
 8003e74:	4313      	orrs	r3, r2
 8003e76:	604b      	str	r3, [r1, #4]
 8003e78:	f107 0358 	add.w	r3, r7, #88	; 0x58
 8003e7c:	f04f 7280 	mov.w	r2, #16777216	; 0x1000000
 8003e80:	601a      	str	r2, [r3, #0]
   __ASM volatile ("rbit %0, %1" : "=r" (result) : "r" (value) );
 8003e82:	f107 0358 	add.w	r3, r7, #88	; 0x58
 8003e86:	681b      	ldr	r3, [r3, #0]
 8003e88:	fa93 f2a3 	rbit	r2, r3
 8003e8c:	f107 0354 	add.w	r3, r7, #84	; 0x54
 8003e90:	601a      	str	r2, [r3, #0]
  return result;
 8003e92:	f107 0354 	add.w	r3, r7, #84	; 0x54
 8003e96:	681b      	ldr	r3, [r3, #0]
                           RCC_OscInitStruct->PLL.PLLMUL);
#endif /* RCC_CFGR_PLLSRC_HSI_PREDIV */
        /* Enable the main PLL. */
        __HAL_RCC_PLL_ENABLE();
 8003e98:	fab3 f383 	clz	r3, r3
 8003e9c:	b2db      	uxtb	r3, r3
 8003e9e:	f103 5384 	add.w	r3, r3, #276824064	; 0x10800000
 8003ea2:	f503 1384 	add.w	r3, r3, #1081344	; 0x108000
 8003ea6:	009b      	lsls	r3, r3, #2
 8003ea8:	461a      	mov	r2, r3
 8003eaa:	2301      	movs	r3, #1
 8003eac:	6013      	str	r3, [r2, #0]
        
        /* Get Start Tick */
        tickstart = HAL_GetTick();
 8003eae:	f7fe f9ad 	bl	800220c <HAL_GetTick>
 8003eb2:	f8c7 01f8 	str.w	r0, [r7, #504]	; 0x1f8
        
        /* Wait till PLL is ready */
        while(__HAL_RCC_GET_FLAG(RCC_FLAG_PLLRDY)  == RESET)
 8003eb6:	e009      	b.n	8003ecc <HAL_RCC_OscConfig+0xc08>
        {
          if((HAL_GetTick() - tickstart ) > PLL_TIMEOUT_VALUE)
 8003eb8:	f7fe f9a8 	bl	800220c <HAL_GetTick>
 8003ebc:	4602      	mov	r2, r0
 8003ebe:	f8d7 31f8 	ldr.w	r3, [r7, #504]	; 0x1f8
 8003ec2:	1ad3      	subs	r3, r2, r3
 8003ec4:	2b02      	cmp	r3, #2
 8003ec6:	d901      	bls.n	8003ecc <HAL_RCC_OscConfig+0xc08>
          {
            return HAL_TIMEOUT;
 8003ec8:	2303      	movs	r3, #3
 8003eca:	e0fc      	b.n	80040c6 <HAL_RCC_OscConfig+0xe02>
 8003ecc:	f107 0350 	add.w	r3, r7, #80	; 0x50
 8003ed0:	f04f 7200 	mov.w	r2, #33554432	; 0x2000000
 8003ed4:	601a      	str	r2, [r3, #0]
   __ASM volatile ("rbit %0, %1" : "=r" (result) : "r" (value) );
 8003ed6:	f107 0350 	add.w	r3, r7, #80	; 0x50
 8003eda:	681b      	ldr	r3, [r3, #0]
 8003edc:	fa93 f2a3 	rbit	r2, r3
 8003ee0:	f107 034c 	add.w	r3, r7, #76	; 0x4c
 8003ee4:	601a      	str	r2, [r3, #0]
  return result;
 8003ee6:	f107 034c 	add.w	r3, r7, #76	; 0x4c
 8003eea:	681b      	ldr	r3, [r3, #0]
        while(__HAL_RCC_GET_FLAG(RCC_FLAG_PLLRDY)  == RESET)
 8003eec:	fab3 f383 	clz	r3, r3
 8003ef0:	b2db      	uxtb	r3, r3
 8003ef2:	095b      	lsrs	r3, r3, #5
 8003ef4:	b2db      	uxtb	r3, r3
 8003ef6:	f043 0301 	orr.w	r3, r3, #1
 8003efa:	b2db      	uxtb	r3, r3
 8003efc:	2b01      	cmp	r3, #1
 8003efe:	d105      	bne.n	8003f0c <HAL_RCC_OscConfig+0xc48>
 8003f00:	4b01      	ldr	r3, [pc, #4]	; (8003f08 <HAL_RCC_OscConfig+0xc44>)
 8003f02:	681b      	ldr	r3, [r3, #0]
 8003f04:	e01e      	b.n	8003f44 <HAL_RCC_OscConfig+0xc80>
 8003f06:	bf00      	nop
 8003f08:	40021000 	.word	0x40021000
 8003f0c:	f107 0348 	add.w	r3, r7, #72	; 0x48
 8003f10:	f04f 7200 	mov.w	r2, #33554432	; 0x2000000
 8003f14:	601a      	str	r2, [r3, #0]
   __ASM volatile ("rbit %0, %1" : "=r" (result) : "r" (value) );
 8003f16:	f107 0348 	add.w	r3, r7, #72	; 0x48
 8003f1a:	681b      	ldr	r3, [r3, #0]
 8003f1c:	fa93 f2a3 	rbit	r2, r3
 8003f20:	f107 0344 	add.w	r3, r7, #68	; 0x44
 8003f24:	601a      	str	r2, [r3, #0]
 8003f26:	f107 0340 	add.w	r3, r7, #64	; 0x40
 8003f2a:	f04f 7200 	mov.w	r2, #33554432	; 0x2000000
 8003f2e:	601a      	str	r2, [r3, #0]
 8003f30:	f107 0340 	add.w	r3, r7, #64	; 0x40
 8003f34:	681b      	ldr	r3, [r3, #0]
 8003f36:	fa93 f2a3 	rbit	r2, r3
 8003f3a:	f107 033c 	add.w	r3, r7, #60	; 0x3c
 8003f3e:	601a      	str	r2, [r3, #0]
 8003f40:	4b63      	ldr	r3, [pc, #396]	; (80040d0 <HAL_RCC_OscConfig+0xe0c>)
 8003f42:	6a5b      	ldr	r3, [r3, #36]	; 0x24
 8003f44:	f107 0238 	add.w	r2, r7, #56	; 0x38
 8003f48:	f04f 7100 	mov.w	r1, #33554432	; 0x2000000
 8003f4c:	6011      	str	r1, [r2, #0]
 8003f4e:	f107 0238 	add.w	r2, r7, #56	; 0x38
 8003f52:	6812      	ldr	r2, [r2, #0]
 8003f54:	fa92 f1a2 	rbit	r1, r2
 8003f58:	f107 0234 	add.w	r2, r7, #52	; 0x34
 8003f5c:	6011      	str	r1, [r2, #0]
  return result;
 8003f5e:	f107 0234 	add.w	r2, r7, #52	; 0x34
 8003f62:	6812      	ldr	r2, [r2, #0]
 8003f64:	fab2 f282 	clz	r2, r2
 8003f68:	b2d2      	uxtb	r2, r2
 8003f6a:	f042 0220 	orr.w	r2, r2, #32
 8003f6e:	b2d2      	uxtb	r2, r2
 8003f70:	f002 021f 	and.w	r2, r2, #31
 8003f74:	2101      	movs	r1, #1
 8003f76:	fa01 f202 	lsl.w	r2, r1, r2
 8003f7a:	4013      	ands	r3, r2
 8003f7c:	2b00      	cmp	r3, #0
 8003f7e:	d09b      	beq.n	8003eb8 <HAL_RCC_OscConfig+0xbf4>
 8003f80:	e0a0      	b.n	80040c4 <HAL_RCC_OscConfig+0xe00>
 8003f82:	f107 0330 	add.w	r3, r7, #48	; 0x30
 8003f86:	f04f 7280 	mov.w	r2, #16777216	; 0x1000000
 8003f8a:	601a      	str	r2, [r3, #0]
   __ASM volatile ("rbit %0, %1" : "=r" (result) : "r" (value) );
 8003f8c:	f107 0330 	add.w	r3, r7, #48	; 0x30
 8003f90:	681b      	ldr	r3, [r3, #0]
 8003f92:	fa93 f2a3 	rbit	r2, r3
 8003f96:	f107 032c 	add.w	r3, r7, #44	; 0x2c
 8003f9a:	601a      	str	r2, [r3, #0]
  return result;
 8003f9c:	f107 032c 	add.w	r3, r7, #44	; 0x2c
 8003fa0:	681b      	ldr	r3, [r3, #0]
        }
      }
      else
      {
        /* Disable the main PLL. */
        __HAL_RCC_PLL_DISABLE();
 8003fa2:	fab3 f383 	clz	r3, r3
 8003fa6:	b2db      	uxtb	r3, r3
 8003fa8:	f103 5384 	add.w	r3, r3, #276824064	; 0x10800000
 8003fac:	f503 1384 	add.w	r3, r3, #1081344	; 0x108000
 8003fb0:	009b      	lsls	r3, r3, #2
 8003fb2:	461a      	mov	r2, r3
 8003fb4:	2300      	movs	r3, #0
 8003fb6:	6013      	str	r3, [r2, #0]
 
        /* Get Start Tick */
        tickstart = HAL_GetTick();
 8003fb8:	f7fe f928 	bl	800220c <HAL_GetTick>
 8003fbc:	f8c7 01f8 	str.w	r0, [r7, #504]	; 0x1f8
        
        /* Wait till PLL is disabled */  
        while(__HAL_RCC_GET_FLAG(RCC_FLAG_PLLRDY)  != RESET)
 8003fc0:	e009      	b.n	8003fd6 <HAL_RCC_OscConfig+0xd12>
        {
          if((HAL_GetTick() - tickstart ) > PLL_TIMEOUT_VALUE)
 8003fc2:	f7fe f923 	bl	800220c <HAL_GetTick>
 8003fc6:	4602      	mov	r2, r0
 8003fc8:	f8d7 31f8 	ldr.w	r3, [r7, #504]	; 0x1f8
 8003fcc:	1ad3      	subs	r3, r2, r3
 8003fce:	2b02      	cmp	r3, #2
 8003fd0:	d901      	bls.n	8003fd6 <HAL_RCC_OscConfig+0xd12>
          {
            return HAL_TIMEOUT;
 8003fd2:	2303      	movs	r3, #3
 8003fd4:	e077      	b.n	80040c6 <HAL_RCC_OscConfig+0xe02>
 8003fd6:	f107 0328 	add.w	r3, r7, #40	; 0x28
 8003fda:	f04f 7200 	mov.w	r2, #33554432	; 0x2000000
 8003fde:	601a      	str	r2, [r3, #0]
   __ASM volatile ("rbit %0, %1" : "=r" (result) : "r" (value) );
 8003fe0:	f107 0328 	add.w	r3, r7, #40	; 0x28
 8003fe4:	681b      	ldr	r3, [r3, #0]
 8003fe6:	fa93 f2a3 	rbit	r2, r3
 8003fea:	f107 0324 	add.w	r3, r7, #36	; 0x24
 8003fee:	601a      	str	r2, [r3, #0]
  return result;
 8003ff0:	f107 0324 	add.w	r3, r7, #36	; 0x24
 8003ff4:	681b      	ldr	r3, [r3, #0]
        while(__HAL_RCC_GET_FLAG(RCC_FLAG_PLLRDY)  != RESET)
 8003ff6:	fab3 f383 	clz	r3, r3
 8003ffa:	b2db      	uxtb	r3, r3
 8003ffc:	095b      	lsrs	r3, r3, #5
 8003ffe:	b2db      	uxtb	r3, r3
 8004000:	f043 0301 	orr.w	r3, r3, #1
 8004004:	b2db      	uxtb	r3, r3
 8004006:	2b01      	cmp	r3, #1
 8004008:	d102      	bne.n	8004010 <HAL_RCC_OscConfig+0xd4c>
 800400a:	4b31      	ldr	r3, [pc, #196]	; (80040d0 <HAL_RCC_OscConfig+0xe0c>)
 800400c:	681b      	ldr	r3, [r3, #0]
 800400e:	e01b      	b.n	8004048 <HAL_RCC_OscConfig+0xd84>
 8004010:	f107 0320 	add.w	r3, r7, #32
 8004014:	f04f 7200 	mov.w	r2, #33554432	; 0x2000000
 8004018:	601a      	str	r2, [r3, #0]
   __ASM volatile ("rbit %0, %1" : "=r" (result) : "r" (value) );
 800401a:	f107 0320 	add.w	r3, r7, #32
 800401e:	681b      	ldr	r3, [r3, #0]
 8004020:	fa93 f2a3 	rbit	r2, r3
 8004024:	f107 031c 	add.w	r3, r7, #28
 8004028:	601a      	str	r2, [r3, #0]
 800402a:	f107 0318 	add.w	r3, r7, #24
 800402e:	f04f 7200 	mov.w	r2, #33554432	; 0x2000000
 8004032:	601a      	str	r2, [r3, #0]
 8004034:	f107 0318 	add.w	r3, r7, #24
 8004038:	681b      	ldr	r3, [r3, #0]
 800403a:	fa93 f2a3 	rbit	r2, r3
 800403e:	f107 0314 	add.w	r3, r7, #20
 8004042:	601a      	str	r2, [r3, #0]
 8004044:	4b22      	ldr	r3, [pc, #136]	; (80040d0 <HAL_RCC_OscConfig+0xe0c>)
 8004046:	6a5b      	ldr	r3, [r3, #36]	; 0x24
 8004048:	f107 0210 	add.w	r2, r7, #16
 800404c:	f04f 7100 	mov.w	r1, #33554432	; 0x2000000
 8004050:	6011      	str	r1, [r2, #0]
 8004052:	f107 0210 	add.w	r2, r7, #16
 8004056:	6812      	ldr	r2, [r2, #0]
 8004058:	fa92 f1a2 	rbit	r1, r2
 800405c:	f107 020c 	add.w	r2, r7, #12
 8004060:	6011      	str	r1, [r2, #0]
  return result;
 8004062:	f107 020c 	add.w	r2, r7, #12
 8004066:	6812      	ldr	r2, [r2, #0]
 8004068:	fab2 f282 	clz	r2, r2
 800406c:	b2d2      	uxtb	r2, r2
 800406e:	f042 0220 	orr.w	r2, r2, #32
 8004072:	b2d2      	uxtb	r2, r2
 8004074:	f002 021f 	and.w	r2, r2, #31
 8004078:	2101      	movs	r1, #1
 800407a:	fa01 f202 	lsl.w	r2, r1, r2
 800407e:	4013      	ands	r3, r2
 8004080:	2b00      	cmp	r3, #0
 8004082:	d19e      	bne.n	8003fc2 <HAL_RCC_OscConfig+0xcfe>
 8004084:	e01e      	b.n	80040c4 <HAL_RCC_OscConfig+0xe00>
      }
    }
    else
    {
      /* Check if there is a request to disable the PLL used as System clock source */
      if((RCC_OscInitStruct->PLL.PLLState) == RCC_PLL_OFF)
 8004086:	1d3b      	adds	r3, r7, #4
 8004088:	681b      	ldr	r3, [r3, #0]
 800408a:	69db      	ldr	r3, [r3, #28]
 800408c:	2b01      	cmp	r3, #1
 800408e:	d101      	bne.n	8004094 <HAL_RCC_OscConfig+0xdd0>
      {
        return HAL_ERROR;
 8004090:	2301      	movs	r3, #1
 8004092:	e018      	b.n	80040c6 <HAL_RCC_OscConfig+0xe02>
      }
      else
      {
        /* Do not return HAL_ERROR if request repeats the current configuration */
        pll_config = RCC->CFGR;
 8004094:	4b0e      	ldr	r3, [pc, #56]	; (80040d0 <HAL_RCC_OscConfig+0xe0c>)
 8004096:	685b      	ldr	r3, [r3, #4]
 8004098:	f8c7 31f4 	str.w	r3, [r7, #500]	; 0x1f4
        pll_config2 = RCC->CFGR2;
        if((READ_BIT(pll_config, RCC_CFGR_PLLSRC)   != RCC_OscInitStruct->PLL.PLLSource) ||      
           (READ_BIT(pll_config, RCC_CFGR_PLLMUL)   != RCC_OscInitStruct->PLL.PLLMUL)    ||      
           (READ_BIT(pll_config2, RCC_CFGR2_PREDIV)  != RCC_OscInitStruct->PLL.PREDIV))     
#else
        if((READ_BIT(pll_config, RCC_CFGR_PLLSRC)   != RCC_OscInitStruct->PLL.PLLSource) ||      
 800409c:	f8d7 31f4 	ldr.w	r3, [r7, #500]	; 0x1f4
 80040a0:	f403 3280 	and.w	r2, r3, #65536	; 0x10000
 80040a4:	1d3b      	adds	r3, r7, #4
 80040a6:	681b      	ldr	r3, [r3, #0]
 80040a8:	6a1b      	ldr	r3, [r3, #32]
 80040aa:	429a      	cmp	r2, r3
 80040ac:	d108      	bne.n	80040c0 <HAL_RCC_OscConfig+0xdfc>
           (READ_BIT(pll_config, RCC_CFGR_PLLMUL)   != RCC_OscInitStruct->PLL.PLLMUL))
 80040ae:	f8d7 31f4 	ldr.w	r3, [r7, #500]	; 0x1f4
 80040b2:	f403 1270 	and.w	r2, r3, #3932160	; 0x3c0000
 80040b6:	1d3b      	adds	r3, r7, #4
 80040b8:	681b      	ldr	r3, [r3, #0]
 80040ba:	6a5b      	ldr	r3, [r3, #36]	; 0x24
        if((READ_BIT(pll_config, RCC_CFGR_PLLSRC)   != RCC_OscInitStruct->PLL.PLLSource) ||      
 80040bc:	429a      	cmp	r2, r3
 80040be:	d001      	beq.n	80040c4 <HAL_RCC_OscConfig+0xe00>
#endif
        {
          return HAL_ERROR;
 80040c0:	2301      	movs	r3, #1
 80040c2:	e000      	b.n	80040c6 <HAL_RCC_OscConfig+0xe02>
        }
      }
    }
  }

  return HAL_OK;
 80040c4:	2300      	movs	r3, #0
}
 80040c6:	4618      	mov	r0, r3
 80040c8:	f507 7700 	add.w	r7, r7, #512	; 0x200
 80040cc:	46bd      	mov	sp, r7
 80040ce:	bd80      	pop	{r7, pc}
 80040d0:	40021000 	.word	0x40021000

080040d4 <HAL_RCC_ClockConfig>:
  *         You can use @ref HAL_RCC_GetClockConfig() function to know which clock is
  *         currently used as system clock source.
  * @retval HAL status
  */
HAL_StatusTypeDef HAL_RCC_ClockConfig(RCC_ClkInitTypeDef  *RCC_ClkInitStruct, uint32_t FLatency)
{
 80040d4:	b580      	push	{r7, lr}
 80040d6:	b09e      	sub	sp, #120	; 0x78
 80040d8:	af00      	add	r7, sp, #0
 80040da:	6078      	str	r0, [r7, #4]
 80040dc:	6039      	str	r1, [r7, #0]
  uint32_t tickstart = 0U;
 80040de:	2300      	movs	r3, #0
 80040e0:	677b      	str	r3, [r7, #116]	; 0x74

  /* Check Null pointer */
  if(RCC_ClkInitStruct == NULL)
 80040e2:	687b      	ldr	r3, [r7, #4]
 80040e4:	2b00      	cmp	r3, #0
 80040e6:	d101      	bne.n	80040ec <HAL_RCC_ClockConfig+0x18>
  {
    return HAL_ERROR;
 80040e8:	2301      	movs	r3, #1
 80040ea:	e162      	b.n	80043b2 <HAL_RCC_ClockConfig+0x2de>
  /* To correctly read data from FLASH memory, the number of wait states (LATENCY) 
  must be correctly programmed according to the frequency of the CPU clock 
    (HCLK) of the device. */

  /* Increasing the number of wait states because of higher CPU frequency */
  if(FLatency > __HAL_FLASH_GET_LATENCY())
 80040ec:	4b90      	ldr	r3, [pc, #576]	; (8004330 <HAL_RCC_ClockConfig+0x25c>)
 80040ee:	681b      	ldr	r3, [r3, #0]
 80040f0:	f003 0307 	and.w	r3, r3, #7
 80040f4:	683a      	ldr	r2, [r7, #0]
 80040f6:	429a      	cmp	r2, r3
 80040f8:	d910      	bls.n	800411c <HAL_RCC_ClockConfig+0x48>
  {    
    /* Program the new number of wait states to the LATENCY bits in the FLASH_ACR register */
    __HAL_FLASH_SET_LATENCY(FLatency);
 80040fa:	4b8d      	ldr	r3, [pc, #564]	; (8004330 <HAL_RCC_ClockConfig+0x25c>)
 80040fc:	681b      	ldr	r3, [r3, #0]
 80040fe:	f023 0207 	bic.w	r2, r3, #7
 8004102:	498b      	ldr	r1, [pc, #556]	; (8004330 <HAL_RCC_ClockConfig+0x25c>)
 8004104:	683b      	ldr	r3, [r7, #0]
 8004106:	4313      	orrs	r3, r2
 8004108:	600b      	str	r3, [r1, #0]
    
    /* Check that the new number of wait states is taken into account to access the Flash
    memory by reading the FLASH_ACR register */
    if(__HAL_FLASH_GET_LATENCY() != FLatency)
 800410a:	4b89      	ldr	r3, [pc, #548]	; (8004330 <HAL_RCC_ClockConfig+0x25c>)
 800410c:	681b      	ldr	r3, [r3, #0]
 800410e:	f003 0307 	and.w	r3, r3, #7
 8004112:	683a      	ldr	r2, [r7, #0]
 8004114:	429a      	cmp	r2, r3
 8004116:	d001      	beq.n	800411c <HAL_RCC_ClockConfig+0x48>
    {
      return HAL_ERROR;
 8004118:	2301      	movs	r3, #1
 800411a:	e14a      	b.n	80043b2 <HAL_RCC_ClockConfig+0x2de>
    }
  }

  /*-------------------------- HCLK Configuration --------------------------*/
  if(((RCC_ClkInitStruct->ClockType) & RCC_CLOCKTYPE_HCLK) == RCC_CLOCKTYPE_HCLK)
 800411c:	687b      	ldr	r3, [r7, #4]
 800411e:	681b      	ldr	r3, [r3, #0]
 8004120:	f003 0302 	and.w	r3, r3, #2
 8004124:	2b00      	cmp	r3, #0
 8004126:	d008      	beq.n	800413a <HAL_RCC_ClockConfig+0x66>
  {
    assert_param(IS_RCC_HCLK(RCC_ClkInitStruct->AHBCLKDivider));
    MODIFY_REG(RCC->CFGR, RCC_CFGR_HPRE, RCC_ClkInitStruct->AHBCLKDivider);
 8004128:	4b82      	ldr	r3, [pc, #520]	; (8004334 <HAL_RCC_ClockConfig+0x260>)
 800412a:	685b      	ldr	r3, [r3, #4]
 800412c:	f023 02f0 	bic.w	r2, r3, #240	; 0xf0
 8004130:	687b      	ldr	r3, [r7, #4]
 8004132:	689b      	ldr	r3, [r3, #8]
 8004134:	497f      	ldr	r1, [pc, #508]	; (8004334 <HAL_RCC_ClockConfig+0x260>)
 8004136:	4313      	orrs	r3, r2
 8004138:	604b      	str	r3, [r1, #4]
  }

  /*------------------------- SYSCLK Configuration ---------------------------*/ 
  if(((RCC_ClkInitStruct->ClockType) & RCC_CLOCKTYPE_SYSCLK) == RCC_CLOCKTYPE_SYSCLK)
 800413a:	687b      	ldr	r3, [r7, #4]
 800413c:	681b      	ldr	r3, [r3, #0]
 800413e:	f003 0301 	and.w	r3, r3, #1
 8004142:	2b00      	cmp	r3, #0
 8004144:	f000 80dc 	beq.w	8004300 <HAL_RCC_ClockConfig+0x22c>
  {    
    assert_param(IS_RCC_SYSCLKSOURCE(RCC_ClkInitStruct->SYSCLKSource));
    
    /* HSE is selected as System Clock Source */
    if(RCC_ClkInitStruct->SYSCLKSource == RCC_SYSCLKSOURCE_HSE)
 8004148:	687b      	ldr	r3, [r7, #4]
 800414a:	685b      	ldr	r3, [r3, #4]
 800414c:	2b01      	cmp	r3, #1
 800414e:	d13c      	bne.n	80041ca <HAL_RCC_ClockConfig+0xf6>
 8004150:	f44f 3300 	mov.w	r3, #131072	; 0x20000
 8004154:	673b      	str	r3, [r7, #112]	; 0x70
   __ASM volatile ("rbit %0, %1" : "=r" (result) : "r" (value) );
 8004156:	6f3b      	ldr	r3, [r7, #112]	; 0x70
 8004158:	fa93 f3a3 	rbit	r3, r3
 800415c:	66fb      	str	r3, [r7, #108]	; 0x6c
  return result;
 800415e:	6efb      	ldr	r3, [r7, #108]	; 0x6c
    {
      /* Check the HSE ready flag */  
      if(__HAL_RCC_GET_FLAG(RCC_FLAG_HSERDY) == RESET)
 8004160:	fab3 f383 	clz	r3, r3
 8004164:	b2db      	uxtb	r3, r3
 8004166:	095b      	lsrs	r3, r3, #5
 8004168:	b2db      	uxtb	r3, r3
 800416a:	f043 0301 	orr.w	r3, r3, #1
 800416e:	b2db      	uxtb	r3, r3
 8004170:	2b01      	cmp	r3, #1
 8004172:	d102      	bne.n	800417a <HAL_RCC_ClockConfig+0xa6>
 8004174:	4b6f      	ldr	r3, [pc, #444]	; (8004334 <HAL_RCC_ClockConfig+0x260>)
 8004176:	681b      	ldr	r3, [r3, #0]
 8004178:	e00f      	b.n	800419a <HAL_RCC_ClockConfig+0xc6>
 800417a:	f44f 3300 	mov.w	r3, #131072	; 0x20000
 800417e:	66bb      	str	r3, [r7, #104]	; 0x68
   __ASM volatile ("rbit %0, %1" : "=r" (result) : "r" (value) );
 8004180:	6ebb      	ldr	r3, [r7, #104]	; 0x68
 8004182:	fa93 f3a3 	rbit	r3, r3
 8004186:	667b      	str	r3, [r7, #100]	; 0x64
 8004188:	f44f 3300 	mov.w	r3, #131072	; 0x20000
 800418c:	663b      	str	r3, [r7, #96]	; 0x60
 800418e:	6e3b      	ldr	r3, [r7, #96]	; 0x60
 8004190:	fa93 f3a3 	rbit	r3, r3
 8004194:	65fb      	str	r3, [r7, #92]	; 0x5c
 8004196:	4b67      	ldr	r3, [pc, #412]	; (8004334 <HAL_RCC_ClockConfig+0x260>)
 8004198:	6a5b      	ldr	r3, [r3, #36]	; 0x24
 800419a:	f44f 3200 	mov.w	r2, #131072	; 0x20000
 800419e:	65ba      	str	r2, [r7, #88]	; 0x58
 80041a0:	6dba      	ldr	r2, [r7, #88]	; 0x58
 80041a2:	fa92 f2a2 	rbit	r2, r2
 80041a6:	657a      	str	r2, [r7, #84]	; 0x54
  return result;
 80041a8:	6d7a      	ldr	r2, [r7, #84]	; 0x54
 80041aa:	fab2 f282 	clz	r2, r2
 80041ae:	b2d2      	uxtb	r2, r2
 80041b0:	f042 0220 	orr.w	r2, r2, #32
 80041b4:	b2d2      	uxtb	r2, r2
 80041b6:	f002 021f 	and.w	r2, r2, #31
 80041ba:	2101      	movs	r1, #1
 80041bc:	fa01 f202 	lsl.w	r2, r1, r2
 80041c0:	4013      	ands	r3, r2
 80041c2:	2b00      	cmp	r3, #0
 80041c4:	d17b      	bne.n	80042be <HAL_RCC_ClockConfig+0x1ea>
      {
        return HAL_ERROR;
 80041c6:	2301      	movs	r3, #1
 80041c8:	e0f3      	b.n	80043b2 <HAL_RCC_ClockConfig+0x2de>
      }
    }
    /* PLL is selected as System Clock Source */
    else if(RCC_ClkInitStruct->SYSCLKSource == RCC_SYSCLKSOURCE_PLLCLK)
 80041ca:	687b      	ldr	r3, [r7, #4]
 80041cc:	685b      	ldr	r3, [r3, #4]
 80041ce:	2b02      	cmp	r3, #2
 80041d0:	d13c      	bne.n	800424c <HAL_RCC_ClockConfig+0x178>
 80041d2:	f04f 7300 	mov.w	r3, #33554432	; 0x2000000
 80041d6:	653b      	str	r3, [r7, #80]	; 0x50
   __ASM volatile ("rbit %0, %1" : "=r" (result) : "r" (value) );
 80041d8:	6d3b      	ldr	r3, [r7, #80]	; 0x50
 80041da:	fa93 f3a3 	rbit	r3, r3
 80041de:	64fb      	str	r3, [r7, #76]	; 0x4c
  return result;
 80041e0:	6cfb      	ldr	r3, [r7, #76]	; 0x4c
    {
      /* Check the PLL ready flag */  
      if(__HAL_RCC_GET_FLAG(RCC_FLAG_PLLRDY) == RESET)
 80041e2:	fab3 f383 	clz	r3, r3
 80041e6:	b2db      	uxtb	r3, r3
 80041e8:	095b      	lsrs	r3, r3, #5
 80041ea:	b2db      	uxtb	r3, r3
 80041ec:	f043 0301 	orr.w	r3, r3, #1
 80041f0:	b2db      	uxtb	r3, r3
 80041f2:	2b01      	cmp	r3, #1
 80041f4:	d102      	bne.n	80041fc <HAL_RCC_ClockConfig+0x128>
 80041f6:	4b4f      	ldr	r3, [pc, #316]	; (8004334 <HAL_RCC_ClockConfig+0x260>)
 80041f8:	681b      	ldr	r3, [r3, #0]
 80041fa:	e00f      	b.n	800421c <HAL_RCC_ClockConfig+0x148>
 80041fc:	f04f 7300 	mov.w	r3, #33554432	; 0x2000000
 8004200:	64bb      	str	r3, [r7, #72]	; 0x48
   __ASM volatile ("rbit %0, %1" : "=r" (result) : "r" (value) );
 8004202:	6cbb      	ldr	r3, [r7, #72]	; 0x48
 8004204:	fa93 f3a3 	rbit	r3, r3
 8004208:	647b      	str	r3, [r7, #68]	; 0x44
 800420a:	f04f 7300 	mov.w	r3, #33554432	; 0x2000000
 800420e:	643b      	str	r3, [r7, #64]	; 0x40
 8004210:	6c3b      	ldr	r3, [r7, #64]	; 0x40
 8004212:	fa93 f3a3 	rbit	r3, r3
 8004216:	63fb      	str	r3, [r7, #60]	; 0x3c
 8004218:	4b46      	ldr	r3, [pc, #280]	; (8004334 <HAL_RCC_ClockConfig+0x260>)
 800421a:	6a5b      	ldr	r3, [r3, #36]	; 0x24
 800421c:	f04f 7200 	mov.w	r2, #33554432	; 0x2000000
 8004220:	63ba      	str	r2, [r7, #56]	; 0x38
 8004222:	6bba      	ldr	r2, [r7, #56]	; 0x38
 8004224:	fa92 f2a2 	rbit	r2, r2
 8004228:	637a      	str	r2, [r7, #52]	; 0x34
  return result;
 800422a:	6b7a      	ldr	r2, [r7, #52]	; 0x34
 800422c:	fab2 f282 	clz	r2, r2
 8004230:	b2d2      	uxtb	r2, r2
 8004232:	f042 0220 	orr.w	r2, r2, #32
 8004236:	b2d2      	uxtb	r2, r2
 8004238:	f002 021f 	and.w	r2, r2, #31
 800423c:	2101      	movs	r1, #1
 800423e:	fa01 f202 	lsl.w	r2, r1, r2
 8004242:	4013      	ands	r3, r2
 8004244:	2b00      	cmp	r3, #0
 8004246:	d13a      	bne.n	80042be <HAL_RCC_ClockConfig+0x1ea>
      {
        return HAL_ERROR;
 8004248:	2301      	movs	r3, #1
 800424a:	e0b2      	b.n	80043b2 <HAL_RCC_ClockConfig+0x2de>
 800424c:	2302      	movs	r3, #2
 800424e:	633b      	str	r3, [r7, #48]	; 0x30
   __ASM volatile ("rbit %0, %1" : "=r" (result) : "r" (value) );
 8004250:	6b3b      	ldr	r3, [r7, #48]	; 0x30
 8004252:	fa93 f3a3 	rbit	r3, r3
 8004256:	62fb      	str	r3, [r7, #44]	; 0x2c
  return result;
 8004258:	6afb      	ldr	r3, [r7, #44]	; 0x2c
    }
    /* HSI is selected as System Clock Source */
    else
    {
      /* Check the HSI ready flag */  
      if(__HAL_RCC_GET_FLAG(RCC_FLAG_HSIRDY) == RESET)
 800425a:	fab3 f383 	clz	r3, r3
 800425e:	b2db      	uxtb	r3, r3
 8004260:	095b      	lsrs	r3, r3, #5
 8004262:	b2db      	uxtb	r3, r3
 8004264:	f043 0301 	orr.w	r3, r3, #1
 8004268:	b2db      	uxtb	r3, r3
 800426a:	2b01      	cmp	r3, #1
 800426c:	d102      	bne.n	8004274 <HAL_RCC_ClockConfig+0x1a0>
 800426e:	4b31      	ldr	r3, [pc, #196]	; (8004334 <HAL_RCC_ClockConfig+0x260>)
 8004270:	681b      	ldr	r3, [r3, #0]
 8004272:	e00d      	b.n	8004290 <HAL_RCC_ClockConfig+0x1bc>
 8004274:	2302      	movs	r3, #2
 8004276:	62bb      	str	r3, [r7, #40]	; 0x28
   __ASM volatile ("rbit %0, %1" : "=r" (result) : "r" (value) );
 8004278:	6abb      	ldr	r3, [r7, #40]	; 0x28
 800427a:	fa93 f3a3 	rbit	r3, r3
 800427e:	627b      	str	r3, [r7, #36]	; 0x24
 8004280:	2302      	movs	r3, #2
 8004282:	623b      	str	r3, [r7, #32]
 8004284:	6a3b      	ldr	r3, [r7, #32]
 8004286:	fa93 f3a3 	rbit	r3, r3
 800428a:	61fb      	str	r3, [r7, #28]
 800428c:	4b29      	ldr	r3, [pc, #164]	; (8004334 <HAL_RCC_ClockConfig+0x260>)
 800428e:	6a5b      	ldr	r3, [r3, #36]	; 0x24
 8004290:	2202      	movs	r2, #2
 8004292:	61ba      	str	r2, [r7, #24]
 8004294:	69ba      	ldr	r2, [r7, #24]
 8004296:	fa92 f2a2 	rbit	r2, r2
 800429a:	617a      	str	r2, [r7, #20]
  return result;
 800429c:	697a      	ldr	r2, [r7, #20]
 800429e:	fab2 f282 	clz	r2, r2
 80042a2:	b2d2      	uxtb	r2, r2
 80042a4:	f042 0220 	orr.w	r2, r2, #32
 80042a8:	b2d2      	uxtb	r2, r2
 80042aa:	f002 021f 	and.w	r2, r2, #31
 80042ae:	2101      	movs	r1, #1
 80042b0:	fa01 f202 	lsl.w	r2, r1, r2
 80042b4:	4013      	ands	r3, r2
 80042b6:	2b00      	cmp	r3, #0
 80042b8:	d101      	bne.n	80042be <HAL_RCC_ClockConfig+0x1ea>
      {
        return HAL_ERROR;
 80042ba:	2301      	movs	r3, #1
 80042bc:	e079      	b.n	80043b2 <HAL_RCC_ClockConfig+0x2de>
      }
    }

    __HAL_RCC_SYSCLK_CONFIG(RCC_ClkInitStruct->SYSCLKSource);
 80042be:	4b1d      	ldr	r3, [pc, #116]	; (8004334 <HAL_RCC_ClockConfig+0x260>)
 80042c0:	685b      	ldr	r3, [r3, #4]
 80042c2:	f023 0203 	bic.w	r2, r3, #3
 80042c6:	687b      	ldr	r3, [r7, #4]
 80042c8:	685b      	ldr	r3, [r3, #4]
 80042ca:	491a      	ldr	r1, [pc, #104]	; (8004334 <HAL_RCC_ClockConfig+0x260>)
 80042cc:	4313      	orrs	r3, r2
 80042ce:	604b      	str	r3, [r1, #4]

    /* Get Start Tick */
    tickstart = HAL_GetTick();
 80042d0:	f7fd ff9c 	bl	800220c <HAL_GetTick>
 80042d4:	6778      	str	r0, [r7, #116]	; 0x74
    
    while (__HAL_RCC_GET_SYSCLK_SOURCE() != (RCC_ClkInitStruct->SYSCLKSource << RCC_CFGR_SWS_Pos))
 80042d6:	e00a      	b.n	80042ee <HAL_RCC_ClockConfig+0x21a>
    {
      if ((HAL_GetTick() - tickstart) > CLOCKSWITCH_TIMEOUT_VALUE)
 80042d8:	f7fd ff98 	bl	800220c <HAL_GetTick>
 80042dc:	4602      	mov	r2, r0
 80042de:	6f7b      	ldr	r3, [r7, #116]	; 0x74
 80042e0:	1ad3      	subs	r3, r2, r3
 80042e2:	f241 3288 	movw	r2, #5000	; 0x1388
 80042e6:	4293      	cmp	r3, r2
 80042e8:	d901      	bls.n	80042ee <HAL_RCC_ClockConfig+0x21a>
      {
        return HAL_TIMEOUT;
 80042ea:	2303      	movs	r3, #3
 80042ec:	e061      	b.n	80043b2 <HAL_RCC_ClockConfig+0x2de>
    while (__HAL_RCC_GET_SYSCLK_SOURCE() != (RCC_ClkInitStruct->SYSCLKSource << RCC_CFGR_SWS_Pos))
 80042ee:	4b11      	ldr	r3, [pc, #68]	; (8004334 <HAL_RCC_ClockConfig+0x260>)
 80042f0:	685b      	ldr	r3, [r3, #4]
 80042f2:	f003 020c 	and.w	r2, r3, #12
 80042f6:	687b      	ldr	r3, [r7, #4]
 80042f8:	685b      	ldr	r3, [r3, #4]
 80042fa:	009b      	lsls	r3, r3, #2
 80042fc:	429a      	cmp	r2, r3
 80042fe:	d1eb      	bne.n	80042d8 <HAL_RCC_ClockConfig+0x204>
      }
    }
  }
  /* Decreasing the number of wait states because of lower CPU frequency */
  if(FLatency < __HAL_FLASH_GET_LATENCY())
 8004300:	4b0b      	ldr	r3, [pc, #44]	; (8004330 <HAL_RCC_ClockConfig+0x25c>)
 8004302:	681b      	ldr	r3, [r3, #0]
 8004304:	f003 0307 	and.w	r3, r3, #7
 8004308:	683a      	ldr	r2, [r7, #0]
 800430a:	429a      	cmp	r2, r3
 800430c:	d214      	bcs.n	8004338 <HAL_RCC_ClockConfig+0x264>
  {    
    /* Program the new number of wait states to the LATENCY bits in the FLASH_ACR register */
    __HAL_FLASH_SET_LATENCY(FLatency);
 800430e:	4b08      	ldr	r3, [pc, #32]	; (8004330 <HAL_RCC_ClockConfig+0x25c>)
 8004310:	681b      	ldr	r3, [r3, #0]
 8004312:	f023 0207 	bic.w	r2, r3, #7
 8004316:	4906      	ldr	r1, [pc, #24]	; (8004330 <HAL_RCC_ClockConfig+0x25c>)
 8004318:	683b      	ldr	r3, [r7, #0]
 800431a:	4313      	orrs	r3, r2
 800431c:	600b      	str	r3, [r1, #0]
    
    /* Check that the new number of wait states is taken into account to access the Flash
    memory by reading the FLASH_ACR register */
    if(__HAL_FLASH_GET_LATENCY() != FLatency)
 800431e:	4b04      	ldr	r3, [pc, #16]	; (8004330 <HAL_RCC_ClockConfig+0x25c>)
 8004320:	681b      	ldr	r3, [r3, #0]
 8004322:	f003 0307 	and.w	r3, r3, #7
 8004326:	683a      	ldr	r2, [r7, #0]
 8004328:	429a      	cmp	r2, r3
 800432a:	d005      	beq.n	8004338 <HAL_RCC_ClockConfig+0x264>
    {
      return HAL_ERROR;
 800432c:	2301      	movs	r3, #1
 800432e:	e040      	b.n	80043b2 <HAL_RCC_ClockConfig+0x2de>
 8004330:	40022000 	.word	0x40022000
 8004334:	40021000 	.word	0x40021000
    }
  }    

  /*-------------------------- PCLK1 Configuration ---------------------------*/ 
  if(((RCC_ClkInitStruct->ClockType) & RCC_CLOCKTYPE_PCLK1) == RCC_CLOCKTYPE_PCLK1)
 8004338:	687b      	ldr	r3, [r7, #4]
 800433a:	681b      	ldr	r3, [r3, #0]
 800433c:	f003 0304 	and.w	r3, r3, #4
 8004340:	2b00      	cmp	r3, #0
 8004342:	d008      	beq.n	8004356 <HAL_RCC_ClockConfig+0x282>
  {
    assert_param(IS_RCC_PCLK(RCC_ClkInitStruct->APB1CLKDivider));
    MODIFY_REG(RCC->CFGR, RCC_CFGR_PPRE1, RCC_ClkInitStruct->APB1CLKDivider);
 8004344:	4b1d      	ldr	r3, [pc, #116]	; (80043bc <HAL_RCC_ClockConfig+0x2e8>)
 8004346:	685b      	ldr	r3, [r3, #4]
 8004348:	f423 62e0 	bic.w	r2, r3, #1792	; 0x700
 800434c:	687b      	ldr	r3, [r7, #4]
 800434e:	68db      	ldr	r3, [r3, #12]
 8004350:	491a      	ldr	r1, [pc, #104]	; (80043bc <HAL_RCC_ClockConfig+0x2e8>)
 8004352:	4313      	orrs	r3, r2
 8004354:	604b      	str	r3, [r1, #4]
  }
  
  /*-------------------------- PCLK2 Configuration ---------------------------*/ 
  if(((RCC_ClkInitStruct->ClockType) & RCC_CLOCKTYPE_PCLK2) == RCC_CLOCKTYPE_PCLK2)
 8004356:	687b      	ldr	r3, [r7, #4]
 8004358:	681b      	ldr	r3, [r3, #0]
 800435a:	f003 0308 	and.w	r3, r3, #8
 800435e:	2b00      	cmp	r3, #0
 8004360:	d009      	beq.n	8004376 <HAL_RCC_ClockConfig+0x2a2>
  {
    assert_param(IS_RCC_PCLK(RCC_ClkInitStruct->APB2CLKDivider));
    MODIFY_REG(RCC->CFGR, RCC_CFGR_PPRE2, ((RCC_ClkInitStruct->APB2CLKDivider) << 3U));
 8004362:	4b16      	ldr	r3, [pc, #88]	; (80043bc <HAL_RCC_ClockConfig+0x2e8>)
 8004364:	685b      	ldr	r3, [r3, #4]
 8004366:	f423 5260 	bic.w	r2, r3, #14336	; 0x3800
 800436a:	687b      	ldr	r3, [r7, #4]
 800436c:	691b      	ldr	r3, [r3, #16]
 800436e:	00db      	lsls	r3, r3, #3
 8004370:	4912      	ldr	r1, [pc, #72]	; (80043bc <HAL_RCC_ClockConfig+0x2e8>)
 8004372:	4313      	orrs	r3, r2
 8004374:	604b      	str	r3, [r1, #4]
  }
 
  /* Update the SystemCoreClock global variable */
  SystemCoreClock = HAL_RCC_GetSysClockFreq() >> AHBPrescTable[(RCC->CFGR & RCC_CFGR_HPRE)>> RCC_CFGR_HPRE_BITNUMBER];
 8004376:	f000 f829 	bl	80043cc <HAL_RCC_GetSysClockFreq>
 800437a:	4601      	mov	r1, r0
 800437c:	4b0f      	ldr	r3, [pc, #60]	; (80043bc <HAL_RCC_ClockConfig+0x2e8>)
 800437e:	685b      	ldr	r3, [r3, #4]
 8004380:	f003 03f0 	and.w	r3, r3, #240	; 0xf0
 8004384:	22f0      	movs	r2, #240	; 0xf0
 8004386:	613a      	str	r2, [r7, #16]
   __ASM volatile ("rbit %0, %1" : "=r" (result) : "r" (value) );
 8004388:	693a      	ldr	r2, [r7, #16]
 800438a:	fa92 f2a2 	rbit	r2, r2
 800438e:	60fa      	str	r2, [r7, #12]
  return result;
 8004390:	68fa      	ldr	r2, [r7, #12]
 8004392:	fab2 f282 	clz	r2, r2
 8004396:	b2d2      	uxtb	r2, r2
 8004398:	40d3      	lsrs	r3, r2
 800439a:	4a09      	ldr	r2, [pc, #36]	; (80043c0 <HAL_RCC_ClockConfig+0x2ec>)
 800439c:	5cd3      	ldrb	r3, [r2, r3]
 800439e:	fa21 f303 	lsr.w	r3, r1, r3
 80043a2:	4a08      	ldr	r2, [pc, #32]	; (80043c4 <HAL_RCC_ClockConfig+0x2f0>)
 80043a4:	6013      	str	r3, [r2, #0]

  /* Configure the source of time base considering new system clocks settings*/
  HAL_InitTick (uwTickPrio);
 80043a6:	4b08      	ldr	r3, [pc, #32]	; (80043c8 <HAL_RCC_ClockConfig+0x2f4>)
 80043a8:	681b      	ldr	r3, [r3, #0]
 80043aa:	4618      	mov	r0, r3
 80043ac:	f7fd feea 	bl	8002184 <HAL_InitTick>
  
  return HAL_OK;
 80043b0:	2300      	movs	r3, #0
}
 80043b2:	4618      	mov	r0, r3
 80043b4:	3778      	adds	r7, #120	; 0x78
 80043b6:	46bd      	mov	sp, r7
 80043b8:	bd80      	pop	{r7, pc}
 80043ba:	bf00      	nop
 80043bc:	40021000 	.word	0x40021000
 80043c0:	0800b118 	.word	0x0800b118
 80043c4:	20000008 	.word	0x20000008
 80043c8:	2000000c 	.word	0x2000000c

080043cc <HAL_RCC_GetSysClockFreq>:
  *         right SYSCLK value. Otherwise, any configuration based on this function will be incorrect.
  *         
  * @retval SYSCLK frequency
  */
uint32_t HAL_RCC_GetSysClockFreq(void)
{
 80043cc:	b480      	push	{r7}
 80043ce:	b08b      	sub	sp, #44	; 0x2c
 80043d0:	af00      	add	r7, sp, #0
  uint32_t tmpreg = 0U, prediv = 0U, pllclk = 0U, pllmul = 0U;
 80043d2:	2300      	movs	r3, #0
 80043d4:	61fb      	str	r3, [r7, #28]
 80043d6:	2300      	movs	r3, #0
 80043d8:	61bb      	str	r3, [r7, #24]
 80043da:	2300      	movs	r3, #0
 80043dc:	627b      	str	r3, [r7, #36]	; 0x24
 80043de:	2300      	movs	r3, #0
 80043e0:	617b      	str	r3, [r7, #20]
  uint32_t sysclockfreq = 0U;
 80043e2:	2300      	movs	r3, #0
 80043e4:	623b      	str	r3, [r7, #32]
  
  tmpreg = RCC->CFGR;
 80043e6:	4b29      	ldr	r3, [pc, #164]	; (800448c <HAL_RCC_GetSysClockFreq+0xc0>)
 80043e8:	685b      	ldr	r3, [r3, #4]
 80043ea:	61fb      	str	r3, [r7, #28]
  
  /* Get SYSCLK source -------------------------------------------------------*/
  switch (tmpreg & RCC_CFGR_SWS)
 80043ec:	69fb      	ldr	r3, [r7, #28]
 80043ee:	f003 030c 	and.w	r3, r3, #12
 80043f2:	2b04      	cmp	r3, #4
 80043f4:	d002      	beq.n	80043fc <HAL_RCC_GetSysClockFreq+0x30>
 80043f6:	2b08      	cmp	r3, #8
 80043f8:	d003      	beq.n	8004402 <HAL_RCC_GetSysClockFreq+0x36>
 80043fa:	e03c      	b.n	8004476 <HAL_RCC_GetSysClockFreq+0xaa>
  {
    case RCC_SYSCLKSOURCE_STATUS_HSE:  /* HSE used as system clock */
    {
      sysclockfreq = HSE_VALUE;
 80043fc:	4b24      	ldr	r3, [pc, #144]	; (8004490 <HAL_RCC_GetSysClockFreq+0xc4>)
 80043fe:	623b      	str	r3, [r7, #32]
      break;
 8004400:	e03c      	b.n	800447c <HAL_RCC_GetSysClockFreq+0xb0>
    }
    case RCC_SYSCLKSOURCE_STATUS_PLLCLK:  /* PLL used as system clock */
    {
      pllmul = aPLLMULFactorTable[(uint32_t)(tmpreg & RCC_CFGR_PLLMUL) >> POSITION_VAL(RCC_CFGR_PLLMUL)];
 8004402:	69fb      	ldr	r3, [r7, #28]
 8004404:	f403 1370 	and.w	r3, r3, #3932160	; 0x3c0000
 8004408:	f44f 1270 	mov.w	r2, #3932160	; 0x3c0000
 800440c:	60ba      	str	r2, [r7, #8]
   __ASM volatile ("rbit %0, %1" : "=r" (result) : "r" (value) );
 800440e:	68ba      	ldr	r2, [r7, #8]
 8004410:	fa92 f2a2 	rbit	r2, r2
 8004414:	607a      	str	r2, [r7, #4]
  return result;
 8004416:	687a      	ldr	r2, [r7, #4]
 8004418:	fab2 f282 	clz	r2, r2
 800441c:	b2d2      	uxtb	r2, r2
 800441e:	40d3      	lsrs	r3, r2
 8004420:	4a1c      	ldr	r2, [pc, #112]	; (8004494 <HAL_RCC_GetSysClockFreq+0xc8>)
 8004422:	5cd3      	ldrb	r3, [r2, r3]
 8004424:	617b      	str	r3, [r7, #20]
      prediv = aPredivFactorTable[(uint32_t)(RCC->CFGR2 & RCC_CFGR2_PREDIV) >> POSITION_VAL(RCC_CFGR2_PREDIV)];
 8004426:	4b19      	ldr	r3, [pc, #100]	; (800448c <HAL_RCC_GetSysClockFreq+0xc0>)
 8004428:	6adb      	ldr	r3, [r3, #44]	; 0x2c
 800442a:	f003 030f 	and.w	r3, r3, #15
 800442e:	220f      	movs	r2, #15
 8004430:	613a      	str	r2, [r7, #16]
   __ASM volatile ("rbit %0, %1" : "=r" (result) : "r" (value) );
 8004432:	693a      	ldr	r2, [r7, #16]
 8004434:	fa92 f2a2 	rbit	r2, r2
 8004438:	60fa      	str	r2, [r7, #12]
  return result;
 800443a:	68fa      	ldr	r2, [r7, #12]
 800443c:	fab2 f282 	clz	r2, r2
 8004440:	b2d2      	uxtb	r2, r2
 8004442:	40d3      	lsrs	r3, r2
 8004444:	4a14      	ldr	r2, [pc, #80]	; (8004498 <HAL_RCC_GetSysClockFreq+0xcc>)
 8004446:	5cd3      	ldrb	r3, [r2, r3]
 8004448:	61bb      	str	r3, [r7, #24]
#if defined(RCC_CFGR_PLLSRC_HSI_DIV2)
      if ((tmpreg & RCC_CFGR_PLLSRC) != RCC_PLLSOURCE_HSI)
 800444a:	69fb      	ldr	r3, [r7, #28]
 800444c:	f403 3380 	and.w	r3, r3, #65536	; 0x10000
 8004450:	2b00      	cmp	r3, #0
 8004452:	d008      	beq.n	8004466 <HAL_RCC_GetSysClockFreq+0x9a>
      {
        /* HSE used as PLL clock source : PLLCLK = HSE/PREDIV * PLLMUL */
        pllclk = (uint32_t)((uint64_t) HSE_VALUE / (uint64_t) (prediv)) * ((uint64_t) pllmul);
 8004454:	4a0e      	ldr	r2, [pc, #56]	; (8004490 <HAL_RCC_GetSysClockFreq+0xc4>)
 8004456:	69bb      	ldr	r3, [r7, #24]
 8004458:	fbb2 f2f3 	udiv	r2, r2, r3
 800445c:	697b      	ldr	r3, [r7, #20]
 800445e:	fb02 f303 	mul.w	r3, r2, r3
 8004462:	627b      	str	r3, [r7, #36]	; 0x24
 8004464:	e004      	b.n	8004470 <HAL_RCC_GetSysClockFreq+0xa4>
      }
      else
      {
        /* HSI used as PLL clock source : PLLCLK = HSI/2 * PLLMUL */
        pllclk = (uint32_t)((uint64_t) (HSI_VALUE >> 1U) * ((uint64_t) pllmul));
 8004466:	697b      	ldr	r3, [r7, #20]
 8004468:	4a0c      	ldr	r2, [pc, #48]	; (800449c <HAL_RCC_GetSysClockFreq+0xd0>)
 800446a:	fb02 f303 	mul.w	r3, r2, r3
 800446e:	627b      	str	r3, [r7, #36]	; 0x24
      {
        /* HSI used as PLL clock source : PLLCLK = HSI/PREDIV * PLLMUL */
        pllclk = (uint32_t)((uint64_t) HSI_VALUE / (uint64_t) (prediv)) * ((uint64_t) pllmul);
      }
#endif /* RCC_CFGR_PLLSRC_HSI_DIV2 */
      sysclockfreq = pllclk;
 8004470:	6a7b      	ldr	r3, [r7, #36]	; 0x24
 8004472:	623b      	str	r3, [r7, #32]
      break;
 8004474:	e002      	b.n	800447c <HAL_RCC_GetSysClockFreq+0xb0>
    }
    case RCC_SYSCLKSOURCE_STATUS_HSI:  /* HSI used as system clock source */
    default: /* HSI used as system clock */
    {
      sysclockfreq = HSI_VALUE;
 8004476:	4b06      	ldr	r3, [pc, #24]	; (8004490 <HAL_RCC_GetSysClockFreq+0xc4>)
 8004478:	623b      	str	r3, [r7, #32]
      break;
 800447a:	bf00      	nop
    }
  }
  return sysclockfreq;
 800447c:	6a3b      	ldr	r3, [r7, #32]
}
 800447e:	4618      	mov	r0, r3
 8004480:	372c      	adds	r7, #44	; 0x2c
 8004482:	46bd      	mov	sp, r7
 8004484:	f85d 7b04 	ldr.w	r7, [sp], #4
 8004488:	4770      	bx	lr
 800448a:	bf00      	nop
 800448c:	40021000 	.word	0x40021000
 8004490:	007a1200 	.word	0x007a1200
 8004494:	0800b128 	.word	0x0800b128
 8004498:	0800b138 	.word	0x0800b138
 800449c:	003d0900 	.word	0x003d0900

080044a0 <HAL_RCCEx_PeriphCLKConfig>:
  *         When the TIMx clock source is PLL clock, so the TIMx clock is PLL clock x 2.
  *
  * @retval HAL status
  */
HAL_StatusTypeDef HAL_RCCEx_PeriphCLKConfig(RCC_PeriphCLKInitTypeDef  *PeriphClkInit)
{
 80044a0:	b580      	push	{r7, lr}
 80044a2:	b092      	sub	sp, #72	; 0x48
 80044a4:	af00      	add	r7, sp, #0
 80044a6:	6078      	str	r0, [r7, #4]
  uint32_t tickstart = 0U;
 80044a8:	2300      	movs	r3, #0
 80044aa:	643b      	str	r3, [r7, #64]	; 0x40
  uint32_t temp_reg = 0U;
 80044ac:	2300      	movs	r3, #0
 80044ae:	63fb      	str	r3, [r7, #60]	; 0x3c
  FlagStatus       pwrclkchanged = RESET;
 80044b0:	2300      	movs	r3, #0
 80044b2:	f887 3047 	strb.w	r3, [r7, #71]	; 0x47
    
  /* Check the parameters */
  assert_param(IS_RCC_PERIPHCLOCK(PeriphClkInit->PeriphClockSelection));
  
  /*---------------------------- RTC configuration -------------------------------*/
  if(((PeriphClkInit->PeriphClockSelection) & RCC_PERIPHCLK_RTC) == (RCC_PERIPHCLK_RTC))
 80044b6:	687b      	ldr	r3, [r7, #4]
 80044b8:	681b      	ldr	r3, [r3, #0]
 80044ba:	f403 3380 	and.w	r3, r3, #65536	; 0x10000
 80044be:	2b00      	cmp	r3, #0
 80044c0:	f000 80cd 	beq.w	800465e <HAL_RCCEx_PeriphCLKConfig+0x1be>


    /* As soon as function is called to change RTC clock source, activation of the 
       power domain is done. */
    /* Requires to enable write access to Backup Domain of necessary */
    if(__HAL_RCC_PWR_IS_CLK_DISABLED())
 80044c4:	4b86      	ldr	r3, [pc, #536]	; (80046e0 <HAL_RCCEx_PeriphCLKConfig+0x240>)
 80044c6:	69db      	ldr	r3, [r3, #28]
 80044c8:	f003 5380 	and.w	r3, r3, #268435456	; 0x10000000
 80044cc:	2b00      	cmp	r3, #0
 80044ce:	d10e      	bne.n	80044ee <HAL_RCCEx_PeriphCLKConfig+0x4e>
    {
      __HAL_RCC_PWR_CLK_ENABLE();
 80044d0:	4b83      	ldr	r3, [pc, #524]	; (80046e0 <HAL_RCCEx_PeriphCLKConfig+0x240>)
 80044d2:	69db      	ldr	r3, [r3, #28]
 80044d4:	4a82      	ldr	r2, [pc, #520]	; (80046e0 <HAL_RCCEx_PeriphCLKConfig+0x240>)
 80044d6:	f043 5380 	orr.w	r3, r3, #268435456	; 0x10000000
 80044da:	61d3      	str	r3, [r2, #28]
 80044dc:	4b80      	ldr	r3, [pc, #512]	; (80046e0 <HAL_RCCEx_PeriphCLKConfig+0x240>)
 80044de:	69db      	ldr	r3, [r3, #28]
 80044e0:	f003 5380 	and.w	r3, r3, #268435456	; 0x10000000
 80044e4:	60bb      	str	r3, [r7, #8]
 80044e6:	68bb      	ldr	r3, [r7, #8]
      pwrclkchanged = SET;
 80044e8:	2301      	movs	r3, #1
 80044ea:	f887 3047 	strb.w	r3, [r7, #71]	; 0x47
    }
    
    if(HAL_IS_BIT_CLR(PWR->CR, PWR_CR_DBP))
 80044ee:	4b7d      	ldr	r3, [pc, #500]	; (80046e4 <HAL_RCCEx_PeriphCLKConfig+0x244>)
 80044f0:	681b      	ldr	r3, [r3, #0]
 80044f2:	f403 7380 	and.w	r3, r3, #256	; 0x100
 80044f6:	2b00      	cmp	r3, #0
 80044f8:	d118      	bne.n	800452c <HAL_RCCEx_PeriphCLKConfig+0x8c>
    {
      /* Enable write access to Backup domain */
      SET_BIT(PWR->CR, PWR_CR_DBP);
 80044fa:	4b7a      	ldr	r3, [pc, #488]	; (80046e4 <HAL_RCCEx_PeriphCLKConfig+0x244>)
 80044fc:	681b      	ldr	r3, [r3, #0]
 80044fe:	4a79      	ldr	r2, [pc, #484]	; (80046e4 <HAL_RCCEx_PeriphCLKConfig+0x244>)
 8004500:	f443 7380 	orr.w	r3, r3, #256	; 0x100
 8004504:	6013      	str	r3, [r2, #0]
      
      /* Wait for Backup domain Write protection disable */
      tickstart = HAL_GetTick();
 8004506:	f7fd fe81 	bl	800220c <HAL_GetTick>
 800450a:	6438      	str	r0, [r7, #64]	; 0x40
      
      while(HAL_IS_BIT_CLR(PWR->CR, PWR_CR_DBP))
 800450c:	e008      	b.n	8004520 <HAL_RCCEx_PeriphCLKConfig+0x80>
      {
          if((HAL_GetTick() - tickstart) > RCC_DBP_TIMEOUT_VALUE)
 800450e:	f7fd fe7d 	bl	800220c <HAL_GetTick>
 8004512:	4602      	mov	r2, r0
 8004514:	6c3b      	ldr	r3, [r7, #64]	; 0x40
 8004516:	1ad3      	subs	r3, r2, r3
 8004518:	2b64      	cmp	r3, #100	; 0x64
 800451a:	d901      	bls.n	8004520 <HAL_RCCEx_PeriphCLKConfig+0x80>
        {
          return HAL_TIMEOUT;
 800451c:	2303      	movs	r3, #3
 800451e:	e0db      	b.n	80046d8 <HAL_RCCEx_PeriphCLKConfig+0x238>
      while(HAL_IS_BIT_CLR(PWR->CR, PWR_CR_DBP))
 8004520:	4b70      	ldr	r3, [pc, #448]	; (80046e4 <HAL_RCCEx_PeriphCLKConfig+0x244>)
 8004522:	681b      	ldr	r3, [r3, #0]
 8004524:	f403 7380 	and.w	r3, r3, #256	; 0x100
 8004528:	2b00      	cmp	r3, #0
 800452a:	d0f0      	beq.n	800450e <HAL_RCCEx_PeriphCLKConfig+0x6e>
        }
      }
    }
    
    /* Reset the Backup domain only if the RTC Clock source selection is modified from reset value */ 
    temp_reg = (RCC->BDCR & RCC_BDCR_RTCSEL);
 800452c:	4b6c      	ldr	r3, [pc, #432]	; (80046e0 <HAL_RCCEx_PeriphCLKConfig+0x240>)
 800452e:	6a1b      	ldr	r3, [r3, #32]
 8004530:	f403 7340 	and.w	r3, r3, #768	; 0x300
 8004534:	63fb      	str	r3, [r7, #60]	; 0x3c
    if((temp_reg != 0x00000000U) && (temp_reg != (PeriphClkInit->RTCClockSelection & RCC_BDCR_RTCSEL)))
 8004536:	6bfb      	ldr	r3, [r7, #60]	; 0x3c
 8004538:	2b00      	cmp	r3, #0
 800453a:	d07d      	beq.n	8004638 <HAL_RCCEx_PeriphCLKConfig+0x198>
 800453c:	687b      	ldr	r3, [r7, #4]
 800453e:	685b      	ldr	r3, [r3, #4]
 8004540:	f403 7340 	and.w	r3, r3, #768	; 0x300
 8004544:	6bfa      	ldr	r2, [r7, #60]	; 0x3c
 8004546:	429a      	cmp	r2, r3
 8004548:	d076      	beq.n	8004638 <HAL_RCCEx_PeriphCLKConfig+0x198>
    {
      /* Store the content of BDCR register before the reset of Backup Domain */
      temp_reg = (RCC->BDCR & ~(RCC_BDCR_RTCSEL));
 800454a:	4b65      	ldr	r3, [pc, #404]	; (80046e0 <HAL_RCCEx_PeriphCLKConfig+0x240>)
 800454c:	6a1b      	ldr	r3, [r3, #32]
 800454e:	f423 7340 	bic.w	r3, r3, #768	; 0x300
 8004552:	63fb      	str	r3, [r7, #60]	; 0x3c
 8004554:	f44f 3380 	mov.w	r3, #65536	; 0x10000
 8004558:	633b      	str	r3, [r7, #48]	; 0x30
   __ASM volatile ("rbit %0, %1" : "=r" (result) : "r" (value) );
 800455a:	6b3b      	ldr	r3, [r7, #48]	; 0x30
 800455c:	fa93 f3a3 	rbit	r3, r3
 8004560:	62fb      	str	r3, [r7, #44]	; 0x2c
  return result;
 8004562:	6afb      	ldr	r3, [r7, #44]	; 0x2c
      /* RTC Clock selection can be changed only if the Backup Domain is reset */
      __HAL_RCC_BACKUPRESET_FORCE();
 8004564:	fab3 f383 	clz	r3, r3
 8004568:	b2db      	uxtb	r3, r3
 800456a:	461a      	mov	r2, r3
 800456c:	4b5e      	ldr	r3, [pc, #376]	; (80046e8 <HAL_RCCEx_PeriphCLKConfig+0x248>)
 800456e:	4413      	add	r3, r2
 8004570:	009b      	lsls	r3, r3, #2
 8004572:	461a      	mov	r2, r3
 8004574:	2301      	movs	r3, #1
 8004576:	6013      	str	r3, [r2, #0]
 8004578:	f44f 3380 	mov.w	r3, #65536	; 0x10000
 800457c:	63bb      	str	r3, [r7, #56]	; 0x38
   __ASM volatile ("rbit %0, %1" : "=r" (result) : "r" (value) );
 800457e:	6bbb      	ldr	r3, [r7, #56]	; 0x38
 8004580:	fa93 f3a3 	rbit	r3, r3
 8004584:	637b      	str	r3, [r7, #52]	; 0x34
  return result;
 8004586:	6b7b      	ldr	r3, [r7, #52]	; 0x34
      __HAL_RCC_BACKUPRESET_RELEASE();
 8004588:	fab3 f383 	clz	r3, r3
 800458c:	b2db      	uxtb	r3, r3
 800458e:	461a      	mov	r2, r3
 8004590:	4b55      	ldr	r3, [pc, #340]	; (80046e8 <HAL_RCCEx_PeriphCLKConfig+0x248>)
 8004592:	4413      	add	r3, r2
 8004594:	009b      	lsls	r3, r3, #2
 8004596:	461a      	mov	r2, r3
 8004598:	2300      	movs	r3, #0
 800459a:	6013      	str	r3, [r2, #0]
      /* Restore the Content of BDCR register */
      RCC->BDCR = temp_reg;
 800459c:	4a50      	ldr	r2, [pc, #320]	; (80046e0 <HAL_RCCEx_PeriphCLKConfig+0x240>)
 800459e:	6bfb      	ldr	r3, [r7, #60]	; 0x3c
 80045a0:	6213      	str	r3, [r2, #32]
    
      /* Wait for LSERDY if LSE was enabled */
      if (HAL_IS_BIT_SET(temp_reg, RCC_BDCR_LSEON))
 80045a2:	6bfb      	ldr	r3, [r7, #60]	; 0x3c
 80045a4:	f003 0301 	and.w	r3, r3, #1
 80045a8:	2b00      	cmp	r3, #0
 80045aa:	d045      	beq.n	8004638 <HAL_RCCEx_PeriphCLKConfig+0x198>
      {
        /* Get Start Tick */
        tickstart = HAL_GetTick();
 80045ac:	f7fd fe2e 	bl	800220c <HAL_GetTick>
 80045b0:	6438      	str	r0, [r7, #64]	; 0x40
        
        /* Wait till LSE is ready */  
        while(__HAL_RCC_GET_FLAG(RCC_FLAG_LSERDY) == RESET)
 80045b2:	e00a      	b.n	80045ca <HAL_RCCEx_PeriphCLKConfig+0x12a>
        {
            if((HAL_GetTick() - tickstart) > RCC_LSE_TIMEOUT_VALUE)
 80045b4:	f7fd fe2a 	bl	800220c <HAL_GetTick>
 80045b8:	4602      	mov	r2, r0
 80045ba:	6c3b      	ldr	r3, [r7, #64]	; 0x40
 80045bc:	1ad3      	subs	r3, r2, r3
 80045be:	f241 3288 	movw	r2, #5000	; 0x1388
 80045c2:	4293      	cmp	r3, r2
 80045c4:	d901      	bls.n	80045ca <HAL_RCCEx_PeriphCLKConfig+0x12a>
          {
            return HAL_TIMEOUT;
 80045c6:	2303      	movs	r3, #3
 80045c8:	e086      	b.n	80046d8 <HAL_RCCEx_PeriphCLKConfig+0x238>
 80045ca:	2302      	movs	r3, #2
 80045cc:	62bb      	str	r3, [r7, #40]	; 0x28
   __ASM volatile ("rbit %0, %1" : "=r" (result) : "r" (value) );
 80045ce:	6abb      	ldr	r3, [r7, #40]	; 0x28
 80045d0:	fa93 f3a3 	rbit	r3, r3
 80045d4:	627b      	str	r3, [r7, #36]	; 0x24
 80045d6:	2302      	movs	r3, #2
 80045d8:	623b      	str	r3, [r7, #32]
 80045da:	6a3b      	ldr	r3, [r7, #32]
 80045dc:	fa93 f3a3 	rbit	r3, r3
 80045e0:	61fb      	str	r3, [r7, #28]
  return result;
 80045e2:	69fb      	ldr	r3, [r7, #28]
        while(__HAL_RCC_GET_FLAG(RCC_FLAG_LSERDY) == RESET)
 80045e4:	fab3 f383 	clz	r3, r3
 80045e8:	b2db      	uxtb	r3, r3
 80045ea:	095b      	lsrs	r3, r3, #5
 80045ec:	b2db      	uxtb	r3, r3
 80045ee:	f043 0302 	orr.w	r3, r3, #2
 80045f2:	b2db      	uxtb	r3, r3
 80045f4:	2b02      	cmp	r3, #2
 80045f6:	d102      	bne.n	80045fe <HAL_RCCEx_PeriphCLKConfig+0x15e>
 80045f8:	4b39      	ldr	r3, [pc, #228]	; (80046e0 <HAL_RCCEx_PeriphCLKConfig+0x240>)
 80045fa:	6a1b      	ldr	r3, [r3, #32]
 80045fc:	e007      	b.n	800460e <HAL_RCCEx_PeriphCLKConfig+0x16e>
 80045fe:	2302      	movs	r3, #2
 8004600:	61bb      	str	r3, [r7, #24]
   __ASM volatile ("rbit %0, %1" : "=r" (result) : "r" (value) );
 8004602:	69bb      	ldr	r3, [r7, #24]
 8004604:	fa93 f3a3 	rbit	r3, r3
 8004608:	617b      	str	r3, [r7, #20]
 800460a:	4b35      	ldr	r3, [pc, #212]	; (80046e0 <HAL_RCCEx_PeriphCLKConfig+0x240>)
 800460c:	6a5b      	ldr	r3, [r3, #36]	; 0x24
 800460e:	2202      	movs	r2, #2
 8004610:	613a      	str	r2, [r7, #16]
 8004612:	693a      	ldr	r2, [r7, #16]
 8004614:	fa92 f2a2 	rbit	r2, r2
 8004618:	60fa      	str	r2, [r7, #12]
  return result;
 800461a:	68fa      	ldr	r2, [r7, #12]
 800461c:	fab2 f282 	clz	r2, r2
 8004620:	b2d2      	uxtb	r2, r2
 8004622:	f042 0240 	orr.w	r2, r2, #64	; 0x40
 8004626:	b2d2      	uxtb	r2, r2
 8004628:	f002 021f 	and.w	r2, r2, #31
 800462c:	2101      	movs	r1, #1
 800462e:	fa01 f202 	lsl.w	r2, r1, r2
 8004632:	4013      	ands	r3, r2
 8004634:	2b00      	cmp	r3, #0
 8004636:	d0bd      	beq.n	80045b4 <HAL_RCCEx_PeriphCLKConfig+0x114>
          }      
        }  
      }
    }
    __HAL_RCC_RTC_CONFIG(PeriphClkInit->RTCClockSelection); 
 8004638:	4b29      	ldr	r3, [pc, #164]	; (80046e0 <HAL_RCCEx_PeriphCLKConfig+0x240>)
 800463a:	6a1b      	ldr	r3, [r3, #32]
 800463c:	f423 7240 	bic.w	r2, r3, #768	; 0x300
 8004640:	687b      	ldr	r3, [r7, #4]
 8004642:	685b      	ldr	r3, [r3, #4]
 8004644:	4926      	ldr	r1, [pc, #152]	; (80046e0 <HAL_RCCEx_PeriphCLKConfig+0x240>)
 8004646:	4313      	orrs	r3, r2
 8004648:	620b      	str	r3, [r1, #32]

    /* Require to disable power clock if necessary */
    if(pwrclkchanged == SET)
 800464a:	f897 3047 	ldrb.w	r3, [r7, #71]	; 0x47
 800464e:	2b01      	cmp	r3, #1
 8004650:	d105      	bne.n	800465e <HAL_RCCEx_PeriphCLKConfig+0x1be>
    {
      __HAL_RCC_PWR_CLK_DISABLE();
 8004652:	4b23      	ldr	r3, [pc, #140]	; (80046e0 <HAL_RCCEx_PeriphCLKConfig+0x240>)
 8004654:	69db      	ldr	r3, [r3, #28]
 8004656:	4a22      	ldr	r2, [pc, #136]	; (80046e0 <HAL_RCCEx_PeriphCLKConfig+0x240>)
 8004658:	f023 5380 	bic.w	r3, r3, #268435456	; 0x10000000
 800465c:	61d3      	str	r3, [r2, #28]
    }
  }

  /*------------------------------- USART1 Configuration ------------------------*/
  if(((PeriphClkInit->PeriphClockSelection) & RCC_PERIPHCLK_USART1) == RCC_PERIPHCLK_USART1)
 800465e:	687b      	ldr	r3, [r7, #4]
 8004660:	681b      	ldr	r3, [r3, #0]
 8004662:	f003 0301 	and.w	r3, r3, #1
 8004666:	2b00      	cmp	r3, #0
 8004668:	d008      	beq.n	800467c <HAL_RCCEx_PeriphCLKConfig+0x1dc>
  {
    /* Check the parameters */
    assert_param(IS_RCC_USART1CLKSOURCE(PeriphClkInit->Usart1ClockSelection));
    
    /* Configure the USART1 clock source */
    __HAL_RCC_USART1_CONFIG(PeriphClkInit->Usart1ClockSelection);
 800466a:	4b1d      	ldr	r3, [pc, #116]	; (80046e0 <HAL_RCCEx_PeriphCLKConfig+0x240>)
 800466c:	6b1b      	ldr	r3, [r3, #48]	; 0x30
 800466e:	f023 0203 	bic.w	r2, r3, #3
 8004672:	687b      	ldr	r3, [r7, #4]
 8004674:	689b      	ldr	r3, [r3, #8]
 8004676:	491a      	ldr	r1, [pc, #104]	; (80046e0 <HAL_RCCEx_PeriphCLKConfig+0x240>)
 8004678:	4313      	orrs	r3, r2
 800467a:	630b      	str	r3, [r1, #48]	; 0x30
    __HAL_RCC_USART3_CONFIG(PeriphClkInit->Usart3ClockSelection);
  }
#endif /* RCC_CFGR3_USART3SW */

  /*------------------------------ I2C1 Configuration ------------------------*/ 
  if(((PeriphClkInit->PeriphClockSelection) & RCC_PERIPHCLK_I2C1) == RCC_PERIPHCLK_I2C1)
 800467c:	687b      	ldr	r3, [r7, #4]
 800467e:	681b      	ldr	r3, [r3, #0]
 8004680:	f003 0320 	and.w	r3, r3, #32
 8004684:	2b00      	cmp	r3, #0
 8004686:	d008      	beq.n	800469a <HAL_RCCEx_PeriphCLKConfig+0x1fa>
  {
    /* Check the parameters */
    assert_param(IS_RCC_I2C1CLKSOURCE(PeriphClkInit->I2c1ClockSelection));
    
    /* Configure the I2C1 clock source */
    __HAL_RCC_I2C1_CONFIG(PeriphClkInit->I2c1ClockSelection);
 8004688:	4b15      	ldr	r3, [pc, #84]	; (80046e0 <HAL_RCCEx_PeriphCLKConfig+0x240>)
 800468a:	6b1b      	ldr	r3, [r3, #48]	; 0x30
 800468c:	f023 0210 	bic.w	r2, r3, #16
 8004690:	687b      	ldr	r3, [r7, #4]
 8004692:	68db      	ldr	r3, [r3, #12]
 8004694:	4912      	ldr	r1, [pc, #72]	; (80046e0 <HAL_RCCEx_PeriphCLKConfig+0x240>)
 8004696:	4313      	orrs	r3, r2
 8004698:	630b      	str	r3, [r1, #48]	; 0x30
#if defined(STM32F302xE) || defined(STM32F303xE) || defined(STM32F398xx)\
 || defined(STM32F302xC) || defined(STM32F303xC) || defined(STM32F358xx)\
 || defined(STM32F303x8) || defined(STM32F334x8) || defined(STM32F328xx)
      
  /*------------------------------ ADC1 & ADC2 clock Configuration -------------*/ 
  if(((PeriphClkInit->PeriphClockSelection) & RCC_PERIPHCLK_ADC12) == RCC_PERIPHCLK_ADC12)
 800469a:	687b      	ldr	r3, [r7, #4]
 800469c:	681b      	ldr	r3, [r3, #0]
 800469e:	f003 0380 	and.w	r3, r3, #128	; 0x80
 80046a2:	2b00      	cmp	r3, #0
 80046a4:	d008      	beq.n	80046b8 <HAL_RCCEx_PeriphCLKConfig+0x218>
  {
    /* Check the parameters */
    assert_param(IS_RCC_ADC12PLLCLK_DIV(PeriphClkInit->Adc12ClockSelection));
    
    /* Configure the ADC12 clock source */
    __HAL_RCC_ADC12_CONFIG(PeriphClkInit->Adc12ClockSelection);
 80046a6:	4b0e      	ldr	r3, [pc, #56]	; (80046e0 <HAL_RCCEx_PeriphCLKConfig+0x240>)
 80046a8:	6adb      	ldr	r3, [r3, #44]	; 0x2c
 80046aa:	f423 72f8 	bic.w	r2, r3, #496	; 0x1f0
 80046ae:	687b      	ldr	r3, [r7, #4]
 80046b0:	691b      	ldr	r3, [r3, #16]
 80046b2:	490b      	ldr	r1, [pc, #44]	; (80046e0 <HAL_RCCEx_PeriphCLKConfig+0x240>)
 80046b4:	4313      	orrs	r3, r2
 80046b6:	62cb      	str	r3, [r1, #44]	; 0x2c
 || defined(STM32F302xC) || defined(STM32F303xC) || defined(STM32F358xx)\
 || defined(STM32F303x8) || defined(STM32F334x8) || defined(STM32F328xx)\
 || defined(STM32F301x8) || defined(STM32F302x8) || defined(STM32F318xx)

  /*------------------------------ TIM1 clock Configuration ----------------*/ 
  if(((PeriphClkInit->PeriphClockSelection) & RCC_PERIPHCLK_TIM1) == RCC_PERIPHCLK_TIM1)
 80046b8:	687b      	ldr	r3, [r7, #4]
 80046ba:	681b      	ldr	r3, [r3, #0]
 80046bc:	f403 5380 	and.w	r3, r3, #4096	; 0x1000
 80046c0:	2b00      	cmp	r3, #0
 80046c2:	d008      	beq.n	80046d6 <HAL_RCCEx_PeriphCLKConfig+0x236>
  {
    /* Check the parameters */
    assert_param(IS_RCC_TIM1CLKSOURCE(PeriphClkInit->Tim1ClockSelection));
    
    /* Configure the TIM1 clock source */
    __HAL_RCC_TIM1_CONFIG(PeriphClkInit->Tim1ClockSelection);
 80046c4:	4b06      	ldr	r3, [pc, #24]	; (80046e0 <HAL_RCCEx_PeriphCLKConfig+0x240>)
 80046c6:	6b1b      	ldr	r3, [r3, #48]	; 0x30
 80046c8:	f423 7280 	bic.w	r2, r3, #256	; 0x100
 80046cc:	687b      	ldr	r3, [r7, #4]
 80046ce:	695b      	ldr	r3, [r3, #20]
 80046d0:	4903      	ldr	r1, [pc, #12]	; (80046e0 <HAL_RCCEx_PeriphCLKConfig+0x240>)
 80046d2:	4313      	orrs	r3, r2
 80046d4:	630b      	str	r3, [r1, #48]	; 0x30
    __HAL_RCC_TIM20_CONFIG(PeriphClkInit->Tim20ClockSelection);
  }
#endif /* STM32F303xE || STM32F398xx */  

  
  return HAL_OK;
 80046d6:	2300      	movs	r3, #0
}
 80046d8:	4618      	mov	r0, r3
 80046da:	3748      	adds	r7, #72	; 0x48
 80046dc:	46bd      	mov	sp, r7
 80046de:	bd80      	pop	{r7, pc}
 80046e0:	40021000 	.word	0x40021000
 80046e4:	40007000 	.word	0x40007000
 80046e8:	10908100 	.word	0x10908100

080046ec <HAL_TIM_Base_Init>:
  *         Ex: call @ref HAL_TIM_Base_DeInit() before HAL_TIM_Base_Init()
  * @param  htim TIM Base handle
  * @retval HAL status
  */
HAL_StatusTypeDef HAL_TIM_Base_Init(TIM_HandleTypeDef *htim)
{
 80046ec:	b580      	push	{r7, lr}
 80046ee:	b082      	sub	sp, #8
 80046f0:	af00      	add	r7, sp, #0
 80046f2:	6078      	str	r0, [r7, #4]
  /* Check the TIM handle allocation */
  if (htim == NULL)
 80046f4:	687b      	ldr	r3, [r7, #4]
 80046f6:	2b00      	cmp	r3, #0
 80046f8:	d101      	bne.n	80046fe <HAL_TIM_Base_Init+0x12>
  {
    return HAL_ERROR;
 80046fa:	2301      	movs	r3, #1
 80046fc:	e049      	b.n	8004792 <HAL_TIM_Base_Init+0xa6>
  assert_param(IS_TIM_COUNTER_MODE(htim->Init.CounterMode));
  assert_param(IS_TIM_CLOCKDIVISION_DIV(htim->Init.ClockDivision));
  assert_param(IS_TIM_PERIOD(htim, htim->Init.Period));
  assert_param(IS_TIM_AUTORELOAD_PRELOAD(htim->Init.AutoReloadPreload));

  if (htim->State == HAL_TIM_STATE_RESET)
 80046fe:	687b      	ldr	r3, [r7, #4]
 8004700:	f893 303d 	ldrb.w	r3, [r3, #61]	; 0x3d
 8004704:	b2db      	uxtb	r3, r3
 8004706:	2b00      	cmp	r3, #0
 8004708:	d106      	bne.n	8004718 <HAL_TIM_Base_Init+0x2c>
  {
    /* Allocate lock resource and initialize it */
    htim->Lock = HAL_UNLOCKED;
 800470a:	687b      	ldr	r3, [r7, #4]
 800470c:	2200      	movs	r2, #0
 800470e:	f883 203c 	strb.w	r2, [r3, #60]	; 0x3c
    }
    /* Init the low level hardware : GPIO, CLOCK, NVIC */
    htim->Base_MspInitCallback(htim);
#else
    /* Init the low level hardware : GPIO, CLOCK, NVIC */
    HAL_TIM_Base_MspInit(htim);
 8004712:	6878      	ldr	r0, [r7, #4]
 8004714:	f7fd fbbc 	bl	8001e90 <HAL_TIM_Base_MspInit>
#endif /* USE_HAL_TIM_REGISTER_CALLBACKS */
  }

  /* Set the TIM state */
  htim->State = HAL_TIM_STATE_BUSY;
 8004718:	687b      	ldr	r3, [r7, #4]
 800471a:	2202      	movs	r2, #2
 800471c:	f883 203d 	strb.w	r2, [r3, #61]	; 0x3d

  /* Set the Time Base configuration */
  TIM_Base_SetConfig(htim->Instance, &htim->Init);
 8004720:	687b      	ldr	r3, [r7, #4]
 8004722:	681a      	ldr	r2, [r3, #0]
 8004724:	687b      	ldr	r3, [r7, #4]
 8004726:	3304      	adds	r3, #4
 8004728:	4619      	mov	r1, r3
 800472a:	4610      	mov	r0, r2
 800472c:	f000 fbb4 	bl	8004e98 <TIM_Base_SetConfig>

  /* Initialize the DMA burst operation state */
  htim->DMABurstState = HAL_DMA_BURST_STATE_READY;
 8004730:	687b      	ldr	r3, [r7, #4]
 8004732:	2201      	movs	r2, #1
 8004734:	f883 2048 	strb.w	r2, [r3, #72]	; 0x48

  /* Initialize the TIM channels state */
  TIM_CHANNEL_STATE_SET_ALL(htim, HAL_TIM_CHANNEL_STATE_READY);
 8004738:	687b      	ldr	r3, [r7, #4]
 800473a:	2201      	movs	r2, #1
 800473c:	f883 203e 	strb.w	r2, [r3, #62]	; 0x3e
 8004740:	687b      	ldr	r3, [r7, #4]
 8004742:	2201      	movs	r2, #1
 8004744:	f883 203f 	strb.w	r2, [r3, #63]	; 0x3f
 8004748:	687b      	ldr	r3, [r7, #4]
 800474a:	2201      	movs	r2, #1
 800474c:	f883 2040 	strb.w	r2, [r3, #64]	; 0x40
 8004750:	687b      	ldr	r3, [r7, #4]
 8004752:	2201      	movs	r2, #1
 8004754:	f883 2041 	strb.w	r2, [r3, #65]	; 0x41
 8004758:	687b      	ldr	r3, [r7, #4]
 800475a:	2201      	movs	r2, #1
 800475c:	f883 2042 	strb.w	r2, [r3, #66]	; 0x42
 8004760:	687b      	ldr	r3, [r7, #4]
 8004762:	2201      	movs	r2, #1
 8004764:	f883 2043 	strb.w	r2, [r3, #67]	; 0x43
  TIM_CHANNEL_N_STATE_SET_ALL(htim, HAL_TIM_CHANNEL_STATE_READY);
 8004768:	687b      	ldr	r3, [r7, #4]
 800476a:	2201      	movs	r2, #1
 800476c:	f883 2044 	strb.w	r2, [r3, #68]	; 0x44
 8004770:	687b      	ldr	r3, [r7, #4]
 8004772:	2201      	movs	r2, #1
 8004774:	f883 2045 	strb.w	r2, [r3, #69]	; 0x45
 8004778:	687b      	ldr	r3, [r7, #4]
 800477a:	2201      	movs	r2, #1
 800477c:	f883 2046 	strb.w	r2, [r3, #70]	; 0x46
 8004780:	687b      	ldr	r3, [r7, #4]
 8004782:	2201      	movs	r2, #1
 8004784:	f883 2047 	strb.w	r2, [r3, #71]	; 0x47

  /* Initialize the TIM state*/
  htim->State = HAL_TIM_STATE_READY;
 8004788:	687b      	ldr	r3, [r7, #4]
 800478a:	2201      	movs	r2, #1
 800478c:	f883 203d 	strb.w	r2, [r3, #61]	; 0x3d

  return HAL_OK;
 8004790:	2300      	movs	r3, #0
}
 8004792:	4618      	mov	r0, r3
 8004794:	3708      	adds	r7, #8
 8004796:	46bd      	mov	sp, r7
 8004798:	bd80      	pop	{r7, pc}
	...

0800479c <HAL_TIM_Base_Start_IT>:
  * @brief  Starts the TIM Base generation in interrupt mode.
  * @param  htim TIM Base handle
  * @retval HAL status
  */
HAL_StatusTypeDef HAL_TIM_Base_Start_IT(TIM_HandleTypeDef *htim)
{
 800479c:	b480      	push	{r7}
 800479e:	b085      	sub	sp, #20
 80047a0:	af00      	add	r7, sp, #0
 80047a2:	6078      	str	r0, [r7, #4]

  /* Check the parameters */
  assert_param(IS_TIM_INSTANCE(htim->Instance));

  /* Check the TIM state */
  if (htim->State != HAL_TIM_STATE_READY)
 80047a4:	687b      	ldr	r3, [r7, #4]
 80047a6:	f893 303d 	ldrb.w	r3, [r3, #61]	; 0x3d
 80047aa:	b2db      	uxtb	r3, r3
 80047ac:	2b01      	cmp	r3, #1
 80047ae:	d001      	beq.n	80047b4 <HAL_TIM_Base_Start_IT+0x18>
  {
    return HAL_ERROR;
 80047b0:	2301      	movs	r3, #1
 80047b2:	e040      	b.n	8004836 <HAL_TIM_Base_Start_IT+0x9a>
  }

  /* Set the TIM state */
  htim->State = HAL_TIM_STATE_BUSY;
 80047b4:	687b      	ldr	r3, [r7, #4]
 80047b6:	2202      	movs	r2, #2
 80047b8:	f883 203d 	strb.w	r2, [r3, #61]	; 0x3d

  /* Enable the TIM Update interrupt */
  __HAL_TIM_ENABLE_IT(htim, TIM_IT_UPDATE);
 80047bc:	687b      	ldr	r3, [r7, #4]
 80047be:	681b      	ldr	r3, [r3, #0]
 80047c0:	68da      	ldr	r2, [r3, #12]
 80047c2:	687b      	ldr	r3, [r7, #4]
 80047c4:	681b      	ldr	r3, [r3, #0]
 80047c6:	f042 0201 	orr.w	r2, r2, #1
 80047ca:	60da      	str	r2, [r3, #12]

  /* Enable the Peripheral, except in trigger mode where enable is automatically done with trigger */
  if (IS_TIM_SLAVE_INSTANCE(htim->Instance))
 80047cc:	687b      	ldr	r3, [r7, #4]
 80047ce:	681b      	ldr	r3, [r3, #0]
 80047d0:	4a1c      	ldr	r2, [pc, #112]	; (8004844 <HAL_TIM_Base_Start_IT+0xa8>)
 80047d2:	4293      	cmp	r3, r2
 80047d4:	d00e      	beq.n	80047f4 <HAL_TIM_Base_Start_IT+0x58>
 80047d6:	687b      	ldr	r3, [r7, #4]
 80047d8:	681b      	ldr	r3, [r3, #0]
 80047da:	f1b3 4f80 	cmp.w	r3, #1073741824	; 0x40000000
 80047de:	d009      	beq.n	80047f4 <HAL_TIM_Base_Start_IT+0x58>
 80047e0:	687b      	ldr	r3, [r7, #4]
 80047e2:	681b      	ldr	r3, [r3, #0]
 80047e4:	4a18      	ldr	r2, [pc, #96]	; (8004848 <HAL_TIM_Base_Start_IT+0xac>)
 80047e6:	4293      	cmp	r3, r2
 80047e8:	d004      	beq.n	80047f4 <HAL_TIM_Base_Start_IT+0x58>
 80047ea:	687b      	ldr	r3, [r7, #4]
 80047ec:	681b      	ldr	r3, [r3, #0]
 80047ee:	4a17      	ldr	r2, [pc, #92]	; (800484c <HAL_TIM_Base_Start_IT+0xb0>)
 80047f0:	4293      	cmp	r3, r2
 80047f2:	d115      	bne.n	8004820 <HAL_TIM_Base_Start_IT+0x84>
  {
    tmpsmcr = htim->Instance->SMCR & TIM_SMCR_SMS;
 80047f4:	687b      	ldr	r3, [r7, #4]
 80047f6:	681b      	ldr	r3, [r3, #0]
 80047f8:	689a      	ldr	r2, [r3, #8]
 80047fa:	4b15      	ldr	r3, [pc, #84]	; (8004850 <HAL_TIM_Base_Start_IT+0xb4>)
 80047fc:	4013      	ands	r3, r2
 80047fe:	60fb      	str	r3, [r7, #12]
    if (!IS_TIM_SLAVEMODE_TRIGGER_ENABLED(tmpsmcr))
 8004800:	68fb      	ldr	r3, [r7, #12]
 8004802:	2b06      	cmp	r3, #6
 8004804:	d015      	beq.n	8004832 <HAL_TIM_Base_Start_IT+0x96>
 8004806:	68fb      	ldr	r3, [r7, #12]
 8004808:	f5b3 3f80 	cmp.w	r3, #65536	; 0x10000
 800480c:	d011      	beq.n	8004832 <HAL_TIM_Base_Start_IT+0x96>
    {
      __HAL_TIM_ENABLE(htim);
 800480e:	687b      	ldr	r3, [r7, #4]
 8004810:	681b      	ldr	r3, [r3, #0]
 8004812:	681a      	ldr	r2, [r3, #0]
 8004814:	687b      	ldr	r3, [r7, #4]
 8004816:	681b      	ldr	r3, [r3, #0]
 8004818:	f042 0201 	orr.w	r2, r2, #1
 800481c:	601a      	str	r2, [r3, #0]
    if (!IS_TIM_SLAVEMODE_TRIGGER_ENABLED(tmpsmcr))
 800481e:	e008      	b.n	8004832 <HAL_TIM_Base_Start_IT+0x96>
    }
  }
  else
  {
    __HAL_TIM_ENABLE(htim);
 8004820:	687b      	ldr	r3, [r7, #4]
 8004822:	681b      	ldr	r3, [r3, #0]
 8004824:	681a      	ldr	r2, [r3, #0]
 8004826:	687b      	ldr	r3, [r7, #4]
 8004828:	681b      	ldr	r3, [r3, #0]
 800482a:	f042 0201 	orr.w	r2, r2, #1
 800482e:	601a      	str	r2, [r3, #0]
 8004830:	e000      	b.n	8004834 <HAL_TIM_Base_Start_IT+0x98>
    if (!IS_TIM_SLAVEMODE_TRIGGER_ENABLED(tmpsmcr))
 8004832:	bf00      	nop
  }

  /* Return function status */
  return HAL_OK;
 8004834:	2300      	movs	r3, #0
}
 8004836:	4618      	mov	r0, r3
 8004838:	3714      	adds	r7, #20
 800483a:	46bd      	mov	sp, r7
 800483c:	f85d 7b04 	ldr.w	r7, [sp], #4
 8004840:	4770      	bx	lr
 8004842:	bf00      	nop
 8004844:	40012c00 	.word	0x40012c00
 8004848:	40000400 	.word	0x40000400
 800484c:	40014000 	.word	0x40014000
 8004850:	00010007 	.word	0x00010007

08004854 <HAL_TIM_PWM_Init>:
  *         Ex: call @ref HAL_TIM_PWM_DeInit() before HAL_TIM_PWM_Init()
  * @param  htim TIM PWM handle
  * @retval HAL status
  */
HAL_StatusTypeDef HAL_TIM_PWM_Init(TIM_HandleTypeDef *htim)
{
 8004854:	b580      	push	{r7, lr}
 8004856:	b082      	sub	sp, #8
 8004858:	af00      	add	r7, sp, #0
 800485a:	6078      	str	r0, [r7, #4]
  /* Check the TIM handle allocation */
  if (htim == NULL)
 800485c:	687b      	ldr	r3, [r7, #4]
 800485e:	2b00      	cmp	r3, #0
 8004860:	d101      	bne.n	8004866 <HAL_TIM_PWM_Init+0x12>
  {
    return HAL_ERROR;
 8004862:	2301      	movs	r3, #1
 8004864:	e049      	b.n	80048fa <HAL_TIM_PWM_Init+0xa6>
  assert_param(IS_TIM_COUNTER_MODE(htim->Init.CounterMode));
  assert_param(IS_TIM_CLOCKDIVISION_DIV(htim->Init.ClockDivision));
  assert_param(IS_TIM_PERIOD(htim, htim->Init.Period));
  assert_param(IS_TIM_AUTORELOAD_PRELOAD(htim->Init.AutoReloadPreload));

  if (htim->State == HAL_TIM_STATE_RESET)
 8004866:	687b      	ldr	r3, [r7, #4]
 8004868:	f893 303d 	ldrb.w	r3, [r3, #61]	; 0x3d
 800486c:	b2db      	uxtb	r3, r3
 800486e:	2b00      	cmp	r3, #0
 8004870:	d106      	bne.n	8004880 <HAL_TIM_PWM_Init+0x2c>
  {
    /* Allocate lock resource and initialize it */
    htim->Lock = HAL_UNLOCKED;
 8004872:	687b      	ldr	r3, [r7, #4]
 8004874:	2200      	movs	r2, #0
 8004876:	f883 203c 	strb.w	r2, [r3, #60]	; 0x3c
    }
    /* Init the low level hardware : GPIO, CLOCK, NVIC */
    htim->PWM_MspInitCallback(htim);
#else
    /* Init the low level hardware : GPIO, CLOCK, NVIC and DMA */
    HAL_TIM_PWM_MspInit(htim);
 800487a:	6878      	ldr	r0, [r7, #4]
 800487c:	f7fd faea 	bl	8001e54 <HAL_TIM_PWM_MspInit>
#endif /* USE_HAL_TIM_REGISTER_CALLBACKS */
  }

  /* Set the TIM state */
  htim->State = HAL_TIM_STATE_BUSY;
 8004880:	687b      	ldr	r3, [r7, #4]
 8004882:	2202      	movs	r2, #2
 8004884:	f883 203d 	strb.w	r2, [r3, #61]	; 0x3d

  /* Init the base time for the PWM */
  TIM_Base_SetConfig(htim->Instance, &htim->Init);
 8004888:	687b      	ldr	r3, [r7, #4]
 800488a:	681a      	ldr	r2, [r3, #0]
 800488c:	687b      	ldr	r3, [r7, #4]
 800488e:	3304      	adds	r3, #4
 8004890:	4619      	mov	r1, r3
 8004892:	4610      	mov	r0, r2
 8004894:	f000 fb00 	bl	8004e98 <TIM_Base_SetConfig>

  /* Initialize the DMA burst operation state */
  htim->DMABurstState = HAL_DMA_BURST_STATE_READY;
 8004898:	687b      	ldr	r3, [r7, #4]
 800489a:	2201      	movs	r2, #1
 800489c:	f883 2048 	strb.w	r2, [r3, #72]	; 0x48

  /* Initialize the TIM channels state */
  TIM_CHANNEL_STATE_SET_ALL(htim, HAL_TIM_CHANNEL_STATE_READY);
 80048a0:	687b      	ldr	r3, [r7, #4]
 80048a2:	2201      	movs	r2, #1
 80048a4:	f883 203e 	strb.w	r2, [r3, #62]	; 0x3e
 80048a8:	687b      	ldr	r3, [r7, #4]
 80048aa:	2201      	movs	r2, #1
 80048ac:	f883 203f 	strb.w	r2, [r3, #63]	; 0x3f
 80048b0:	687b      	ldr	r3, [r7, #4]
 80048b2:	2201      	movs	r2, #1
 80048b4:	f883 2040 	strb.w	r2, [r3, #64]	; 0x40
 80048b8:	687b      	ldr	r3, [r7, #4]
 80048ba:	2201      	movs	r2, #1
 80048bc:	f883 2041 	strb.w	r2, [r3, #65]	; 0x41
 80048c0:	687b      	ldr	r3, [r7, #4]
 80048c2:	2201      	movs	r2, #1
 80048c4:	f883 2042 	strb.w	r2, [r3, #66]	; 0x42
 80048c8:	687b      	ldr	r3, [r7, #4]
 80048ca:	2201      	movs	r2, #1
 80048cc:	f883 2043 	strb.w	r2, [r3, #67]	; 0x43
  TIM_CHANNEL_N_STATE_SET_ALL(htim, HAL_TIM_CHANNEL_STATE_READY);
 80048d0:	687b      	ldr	r3, [r7, #4]
 80048d2:	2201      	movs	r2, #1
 80048d4:	f883 2044 	strb.w	r2, [r3, #68]	; 0x44
 80048d8:	687b      	ldr	r3, [r7, #4]
 80048da:	2201      	movs	r2, #1
 80048dc:	f883 2045 	strb.w	r2, [r3, #69]	; 0x45
 80048e0:	687b      	ldr	r3, [r7, #4]
 80048e2:	2201      	movs	r2, #1
 80048e4:	f883 2046 	strb.w	r2, [r3, #70]	; 0x46
 80048e8:	687b      	ldr	r3, [r7, #4]
 80048ea:	2201      	movs	r2, #1
 80048ec:	f883 2047 	strb.w	r2, [r3, #71]	; 0x47

  /* Initialize the TIM state*/
  htim->State = HAL_TIM_STATE_READY;
 80048f0:	687b      	ldr	r3, [r7, #4]
 80048f2:	2201      	movs	r2, #1
 80048f4:	f883 203d 	strb.w	r2, [r3, #61]	; 0x3d

  return HAL_OK;
 80048f8:	2300      	movs	r3, #0
}
 80048fa:	4618      	mov	r0, r3
 80048fc:	3708      	adds	r7, #8
 80048fe:	46bd      	mov	sp, r7
 8004900:	bd80      	pop	{r7, pc}
	...

08004904 <HAL_TIM_PWM_Start>:
  *            @arg TIM_CHANNEL_6: TIM Channel 6 selected (*)
  *         (*) Value not defined for all devices
  * @retval HAL status
  */
HAL_StatusTypeDef HAL_TIM_PWM_Start(TIM_HandleTypeDef *htim, uint32_t Channel)
{
 8004904:	b580      	push	{r7, lr}
 8004906:	b084      	sub	sp, #16
 8004908:	af00      	add	r7, sp, #0
 800490a:	6078      	str	r0, [r7, #4]
 800490c:	6039      	str	r1, [r7, #0]

  /* Check the parameters */
  assert_param(IS_TIM_CCX_INSTANCE(htim->Instance, Channel));

  /* Check the TIM channel state */
  if (TIM_CHANNEL_STATE_GET(htim, Channel) != HAL_TIM_CHANNEL_STATE_READY)
 800490e:	683b      	ldr	r3, [r7, #0]
 8004910:	2b00      	cmp	r3, #0
 8004912:	d109      	bne.n	8004928 <HAL_TIM_PWM_Start+0x24>
 8004914:	687b      	ldr	r3, [r7, #4]
 8004916:	f893 303e 	ldrb.w	r3, [r3, #62]	; 0x3e
 800491a:	b2db      	uxtb	r3, r3
 800491c:	2b01      	cmp	r3, #1
 800491e:	bf14      	ite	ne
 8004920:	2301      	movne	r3, #1
 8004922:	2300      	moveq	r3, #0
 8004924:	b2db      	uxtb	r3, r3
 8004926:	e03c      	b.n	80049a2 <HAL_TIM_PWM_Start+0x9e>
 8004928:	683b      	ldr	r3, [r7, #0]
 800492a:	2b04      	cmp	r3, #4
 800492c:	d109      	bne.n	8004942 <HAL_TIM_PWM_Start+0x3e>
 800492e:	687b      	ldr	r3, [r7, #4]
 8004930:	f893 303f 	ldrb.w	r3, [r3, #63]	; 0x3f
 8004934:	b2db      	uxtb	r3, r3
 8004936:	2b01      	cmp	r3, #1
 8004938:	bf14      	ite	ne
 800493a:	2301      	movne	r3, #1
 800493c:	2300      	moveq	r3, #0
 800493e:	b2db      	uxtb	r3, r3
 8004940:	e02f      	b.n	80049a2 <HAL_TIM_PWM_Start+0x9e>
 8004942:	683b      	ldr	r3, [r7, #0]
 8004944:	2b08      	cmp	r3, #8
 8004946:	d109      	bne.n	800495c <HAL_TIM_PWM_Start+0x58>
 8004948:	687b      	ldr	r3, [r7, #4]
 800494a:	f893 3040 	ldrb.w	r3, [r3, #64]	; 0x40
 800494e:	b2db      	uxtb	r3, r3
 8004950:	2b01      	cmp	r3, #1
 8004952:	bf14      	ite	ne
 8004954:	2301      	movne	r3, #1
 8004956:	2300      	moveq	r3, #0
 8004958:	b2db      	uxtb	r3, r3
 800495a:	e022      	b.n	80049a2 <HAL_TIM_PWM_Start+0x9e>
 800495c:	683b      	ldr	r3, [r7, #0]
 800495e:	2b0c      	cmp	r3, #12
 8004960:	d109      	bne.n	8004976 <HAL_TIM_PWM_Start+0x72>
 8004962:	687b      	ldr	r3, [r7, #4]
 8004964:	f893 3041 	ldrb.w	r3, [r3, #65]	; 0x41
 8004968:	b2db      	uxtb	r3, r3
 800496a:	2b01      	cmp	r3, #1
 800496c:	bf14      	ite	ne
 800496e:	2301      	movne	r3, #1
 8004970:	2300      	moveq	r3, #0
 8004972:	b2db      	uxtb	r3, r3
 8004974:	e015      	b.n	80049a2 <HAL_TIM_PWM_Start+0x9e>
 8004976:	683b      	ldr	r3, [r7, #0]
 8004978:	2b10      	cmp	r3, #16
 800497a:	d109      	bne.n	8004990 <HAL_TIM_PWM_Start+0x8c>
 800497c:	687b      	ldr	r3, [r7, #4]
 800497e:	f893 3042 	ldrb.w	r3, [r3, #66]	; 0x42
 8004982:	b2db      	uxtb	r3, r3
 8004984:	2b01      	cmp	r3, #1
 8004986:	bf14      	ite	ne
 8004988:	2301      	movne	r3, #1
 800498a:	2300      	moveq	r3, #0
 800498c:	b2db      	uxtb	r3, r3
 800498e:	e008      	b.n	80049a2 <HAL_TIM_PWM_Start+0x9e>
 8004990:	687b      	ldr	r3, [r7, #4]
 8004992:	f893 3043 	ldrb.w	r3, [r3, #67]	; 0x43
 8004996:	b2db      	uxtb	r3, r3
 8004998:	2b01      	cmp	r3, #1
 800499a:	bf14      	ite	ne
 800499c:	2301      	movne	r3, #1
 800499e:	2300      	moveq	r3, #0
 80049a0:	b2db      	uxtb	r3, r3
 80049a2:	2b00      	cmp	r3, #0
 80049a4:	d001      	beq.n	80049aa <HAL_TIM_PWM_Start+0xa6>
  {
    return HAL_ERROR;
 80049a6:	2301      	movs	r3, #1
 80049a8:	e088      	b.n	8004abc <HAL_TIM_PWM_Start+0x1b8>
  }

  /* Set the TIM channel state */
  TIM_CHANNEL_STATE_SET(htim, Channel, HAL_TIM_CHANNEL_STATE_BUSY);
 80049aa:	683b      	ldr	r3, [r7, #0]
 80049ac:	2b00      	cmp	r3, #0
 80049ae:	d104      	bne.n	80049ba <HAL_TIM_PWM_Start+0xb6>
 80049b0:	687b      	ldr	r3, [r7, #4]
 80049b2:	2202      	movs	r2, #2
 80049b4:	f883 203e 	strb.w	r2, [r3, #62]	; 0x3e
 80049b8:	e023      	b.n	8004a02 <HAL_TIM_PWM_Start+0xfe>
 80049ba:	683b      	ldr	r3, [r7, #0]
 80049bc:	2b04      	cmp	r3, #4
 80049be:	d104      	bne.n	80049ca <HAL_TIM_PWM_Start+0xc6>
 80049c0:	687b      	ldr	r3, [r7, #4]
 80049c2:	2202      	movs	r2, #2
 80049c4:	f883 203f 	strb.w	r2, [r3, #63]	; 0x3f
 80049c8:	e01b      	b.n	8004a02 <HAL_TIM_PWM_Start+0xfe>
 80049ca:	683b      	ldr	r3, [r7, #0]
 80049cc:	2b08      	cmp	r3, #8
 80049ce:	d104      	bne.n	80049da <HAL_TIM_PWM_Start+0xd6>
 80049d0:	687b      	ldr	r3, [r7, #4]
 80049d2:	2202      	movs	r2, #2
 80049d4:	f883 2040 	strb.w	r2, [r3, #64]	; 0x40
 80049d8:	e013      	b.n	8004a02 <HAL_TIM_PWM_Start+0xfe>
 80049da:	683b      	ldr	r3, [r7, #0]
 80049dc:	2b0c      	cmp	r3, #12
 80049de:	d104      	bne.n	80049ea <HAL_TIM_PWM_Start+0xe6>
 80049e0:	687b      	ldr	r3, [r7, #4]
 80049e2:	2202      	movs	r2, #2
 80049e4:	f883 2041 	strb.w	r2, [r3, #65]	; 0x41
 80049e8:	e00b      	b.n	8004a02 <HAL_TIM_PWM_Start+0xfe>
 80049ea:	683b      	ldr	r3, [r7, #0]
 80049ec:	2b10      	cmp	r3, #16
 80049ee:	d104      	bne.n	80049fa <HAL_TIM_PWM_Start+0xf6>
 80049f0:	687b      	ldr	r3, [r7, #4]
 80049f2:	2202      	movs	r2, #2
 80049f4:	f883 2042 	strb.w	r2, [r3, #66]	; 0x42
 80049f8:	e003      	b.n	8004a02 <HAL_TIM_PWM_Start+0xfe>
 80049fa:	687b      	ldr	r3, [r7, #4]
 80049fc:	2202      	movs	r2, #2
 80049fe:	f883 2043 	strb.w	r2, [r3, #67]	; 0x43

  /* Enable the Capture compare channel */
  TIM_CCxChannelCmd(htim->Instance, Channel, TIM_CCx_ENABLE);
 8004a02:	687b      	ldr	r3, [r7, #4]
 8004a04:	681b      	ldr	r3, [r3, #0]
 8004a06:	2201      	movs	r2, #1
 8004a08:	6839      	ldr	r1, [r7, #0]
 8004a0a:	4618      	mov	r0, r3
 8004a0c:	f000 fdfc 	bl	8005608 <TIM_CCxChannelCmd>

  if (IS_TIM_BREAK_INSTANCE(htim->Instance) != RESET)
 8004a10:	687b      	ldr	r3, [r7, #4]
 8004a12:	681b      	ldr	r3, [r3, #0]
 8004a14:	4a2b      	ldr	r2, [pc, #172]	; (8004ac4 <HAL_TIM_PWM_Start+0x1c0>)
 8004a16:	4293      	cmp	r3, r2
 8004a18:	d00e      	beq.n	8004a38 <HAL_TIM_PWM_Start+0x134>
 8004a1a:	687b      	ldr	r3, [r7, #4]
 8004a1c:	681b      	ldr	r3, [r3, #0]
 8004a1e:	4a2a      	ldr	r2, [pc, #168]	; (8004ac8 <HAL_TIM_PWM_Start+0x1c4>)
 8004a20:	4293      	cmp	r3, r2
 8004a22:	d009      	beq.n	8004a38 <HAL_TIM_PWM_Start+0x134>
 8004a24:	687b      	ldr	r3, [r7, #4]
 8004a26:	681b      	ldr	r3, [r3, #0]
 8004a28:	4a28      	ldr	r2, [pc, #160]	; (8004acc <HAL_TIM_PWM_Start+0x1c8>)
 8004a2a:	4293      	cmp	r3, r2
 8004a2c:	d004      	beq.n	8004a38 <HAL_TIM_PWM_Start+0x134>
 8004a2e:	687b      	ldr	r3, [r7, #4]
 8004a30:	681b      	ldr	r3, [r3, #0]
 8004a32:	4a27      	ldr	r2, [pc, #156]	; (8004ad0 <HAL_TIM_PWM_Start+0x1cc>)
 8004a34:	4293      	cmp	r3, r2
 8004a36:	d101      	bne.n	8004a3c <HAL_TIM_PWM_Start+0x138>
 8004a38:	2301      	movs	r3, #1
 8004a3a:	e000      	b.n	8004a3e <HAL_TIM_PWM_Start+0x13a>
 8004a3c:	2300      	movs	r3, #0
 8004a3e:	2b00      	cmp	r3, #0
 8004a40:	d007      	beq.n	8004a52 <HAL_TIM_PWM_Start+0x14e>
  {
    /* Enable the main output */
    __HAL_TIM_MOE_ENABLE(htim);
 8004a42:	687b      	ldr	r3, [r7, #4]
 8004a44:	681b      	ldr	r3, [r3, #0]
 8004a46:	6c5a      	ldr	r2, [r3, #68]	; 0x44
 8004a48:	687b      	ldr	r3, [r7, #4]
 8004a4a:	681b      	ldr	r3, [r3, #0]
 8004a4c:	f442 4200 	orr.w	r2, r2, #32768	; 0x8000
 8004a50:	645a      	str	r2, [r3, #68]	; 0x44
  }

  /* Enable the Peripheral, except in trigger mode where enable is automatically done with trigger */
  if (IS_TIM_SLAVE_INSTANCE(htim->Instance))
 8004a52:	687b      	ldr	r3, [r7, #4]
 8004a54:	681b      	ldr	r3, [r3, #0]
 8004a56:	4a1b      	ldr	r2, [pc, #108]	; (8004ac4 <HAL_TIM_PWM_Start+0x1c0>)
 8004a58:	4293      	cmp	r3, r2
 8004a5a:	d00e      	beq.n	8004a7a <HAL_TIM_PWM_Start+0x176>
 8004a5c:	687b      	ldr	r3, [r7, #4]
 8004a5e:	681b      	ldr	r3, [r3, #0]
 8004a60:	f1b3 4f80 	cmp.w	r3, #1073741824	; 0x40000000
 8004a64:	d009      	beq.n	8004a7a <HAL_TIM_PWM_Start+0x176>
 8004a66:	687b      	ldr	r3, [r7, #4]
 8004a68:	681b      	ldr	r3, [r3, #0]
 8004a6a:	4a1a      	ldr	r2, [pc, #104]	; (8004ad4 <HAL_TIM_PWM_Start+0x1d0>)
 8004a6c:	4293      	cmp	r3, r2
 8004a6e:	d004      	beq.n	8004a7a <HAL_TIM_PWM_Start+0x176>
 8004a70:	687b      	ldr	r3, [r7, #4]
 8004a72:	681b      	ldr	r3, [r3, #0]
 8004a74:	4a14      	ldr	r2, [pc, #80]	; (8004ac8 <HAL_TIM_PWM_Start+0x1c4>)
 8004a76:	4293      	cmp	r3, r2
 8004a78:	d115      	bne.n	8004aa6 <HAL_TIM_PWM_Start+0x1a2>
  {
    tmpsmcr = htim->Instance->SMCR & TIM_SMCR_SMS;
 8004a7a:	687b      	ldr	r3, [r7, #4]
 8004a7c:	681b      	ldr	r3, [r3, #0]
 8004a7e:	689a      	ldr	r2, [r3, #8]
 8004a80:	4b15      	ldr	r3, [pc, #84]	; (8004ad8 <HAL_TIM_PWM_Start+0x1d4>)
 8004a82:	4013      	ands	r3, r2
 8004a84:	60fb      	str	r3, [r7, #12]
    if (!IS_TIM_SLAVEMODE_TRIGGER_ENABLED(tmpsmcr))
 8004a86:	68fb      	ldr	r3, [r7, #12]
 8004a88:	2b06      	cmp	r3, #6
 8004a8a:	d015      	beq.n	8004ab8 <HAL_TIM_PWM_Start+0x1b4>
 8004a8c:	68fb      	ldr	r3, [r7, #12]
 8004a8e:	f5b3 3f80 	cmp.w	r3, #65536	; 0x10000
 8004a92:	d011      	beq.n	8004ab8 <HAL_TIM_PWM_Start+0x1b4>
    {
      __HAL_TIM_ENABLE(htim);
 8004a94:	687b      	ldr	r3, [r7, #4]
 8004a96:	681b      	ldr	r3, [r3, #0]
 8004a98:	681a      	ldr	r2, [r3, #0]
 8004a9a:	687b      	ldr	r3, [r7, #4]
 8004a9c:	681b      	ldr	r3, [r3, #0]
 8004a9e:	f042 0201 	orr.w	r2, r2, #1
 8004aa2:	601a      	str	r2, [r3, #0]
    if (!IS_TIM_SLAVEMODE_TRIGGER_ENABLED(tmpsmcr))
 8004aa4:	e008      	b.n	8004ab8 <HAL_TIM_PWM_Start+0x1b4>
    }
  }
  else
  {
    __HAL_TIM_ENABLE(htim);
 8004aa6:	687b      	ldr	r3, [r7, #4]
 8004aa8:	681b      	ldr	r3, [r3, #0]
 8004aaa:	681a      	ldr	r2, [r3, #0]
 8004aac:	687b      	ldr	r3, [r7, #4]
 8004aae:	681b      	ldr	r3, [r3, #0]
 8004ab0:	f042 0201 	orr.w	r2, r2, #1
 8004ab4:	601a      	str	r2, [r3, #0]
 8004ab6:	e000      	b.n	8004aba <HAL_TIM_PWM_Start+0x1b6>
    if (!IS_TIM_SLAVEMODE_TRIGGER_ENABLED(tmpsmcr))
 8004ab8:	bf00      	nop
  }

  /* Return function status */
  return HAL_OK;
 8004aba:	2300      	movs	r3, #0
}
 8004abc:	4618      	mov	r0, r3
 8004abe:	3710      	adds	r7, #16
 8004ac0:	46bd      	mov	sp, r7
 8004ac2:	bd80      	pop	{r7, pc}
 8004ac4:	40012c00 	.word	0x40012c00
 8004ac8:	40014000 	.word	0x40014000
 8004acc:	40014400 	.word	0x40014400
 8004ad0:	40014800 	.word	0x40014800
 8004ad4:	40000400 	.word	0x40000400
 8004ad8:	00010007 	.word	0x00010007

08004adc <HAL_TIM_PWM_ConfigChannel>:
  * @retval HAL status
  */
HAL_StatusTypeDef HAL_TIM_PWM_ConfigChannel(TIM_HandleTypeDef *htim,
                                            const TIM_OC_InitTypeDef *sConfig,
                                            uint32_t Channel)
{
 8004adc:	b580      	push	{r7, lr}
 8004ade:	b086      	sub	sp, #24
 8004ae0:	af00      	add	r7, sp, #0
 8004ae2:	60f8      	str	r0, [r7, #12]
 8004ae4:	60b9      	str	r1, [r7, #8]
 8004ae6:	607a      	str	r2, [r7, #4]
  HAL_StatusTypeDef status = HAL_OK;
 8004ae8:	2300      	movs	r3, #0
 8004aea:	75fb      	strb	r3, [r7, #23]
  assert_param(IS_TIM_PWM_MODE(sConfig->OCMode));
  assert_param(IS_TIM_OC_POLARITY(sConfig->OCPolarity));
  assert_param(IS_TIM_FAST_STATE(sConfig->OCFastMode));

  /* Process Locked */
  __HAL_LOCK(htim);
 8004aec:	68fb      	ldr	r3, [r7, #12]
 8004aee:	f893 303c 	ldrb.w	r3, [r3, #60]	; 0x3c
 8004af2:	2b01      	cmp	r3, #1
 8004af4:	d101      	bne.n	8004afa <HAL_TIM_PWM_ConfigChannel+0x1e>
 8004af6:	2302      	movs	r3, #2
 8004af8:	e0ff      	b.n	8004cfa <HAL_TIM_PWM_ConfigChannel+0x21e>
 8004afa:	68fb      	ldr	r3, [r7, #12]
 8004afc:	2201      	movs	r2, #1
 8004afe:	f883 203c 	strb.w	r2, [r3, #60]	; 0x3c
 8004b02:	687b      	ldr	r3, [r7, #4]
 8004b04:	2b14      	cmp	r3, #20
 8004b06:	f200 80f0 	bhi.w	8004cea <HAL_TIM_PWM_ConfigChannel+0x20e>
 8004b0a:	a201      	add	r2, pc, #4	; (adr r2, 8004b10 <HAL_TIM_PWM_ConfigChannel+0x34>)
 8004b0c:	f852 f023 	ldr.w	pc, [r2, r3, lsl #2]
 8004b10:	08004b65 	.word	0x08004b65
 8004b14:	08004ceb 	.word	0x08004ceb
 8004b18:	08004ceb 	.word	0x08004ceb
 8004b1c:	08004ceb 	.word	0x08004ceb
 8004b20:	08004ba5 	.word	0x08004ba5
 8004b24:	08004ceb 	.word	0x08004ceb
 8004b28:	08004ceb 	.word	0x08004ceb
 8004b2c:	08004ceb 	.word	0x08004ceb
 8004b30:	08004be7 	.word	0x08004be7
 8004b34:	08004ceb 	.word	0x08004ceb
 8004b38:	08004ceb 	.word	0x08004ceb
 8004b3c:	08004ceb 	.word	0x08004ceb
 8004b40:	08004c27 	.word	0x08004c27
 8004b44:	08004ceb 	.word	0x08004ceb
 8004b48:	08004ceb 	.word	0x08004ceb
 8004b4c:	08004ceb 	.word	0x08004ceb
 8004b50:	08004c69 	.word	0x08004c69
 8004b54:	08004ceb 	.word	0x08004ceb
 8004b58:	08004ceb 	.word	0x08004ceb
 8004b5c:	08004ceb 	.word	0x08004ceb
 8004b60:	08004ca9 	.word	0x08004ca9
    {
      /* Check the parameters */
      assert_param(IS_TIM_CC1_INSTANCE(htim->Instance));

      /* Configure the Channel 1 in PWM mode */
      TIM_OC1_SetConfig(htim->Instance, sConfig);
 8004b64:	68fb      	ldr	r3, [r7, #12]
 8004b66:	681b      	ldr	r3, [r3, #0]
 8004b68:	68b9      	ldr	r1, [r7, #8]
 8004b6a:	4618      	mov	r0, r3
 8004b6c:	f000 fa0c 	bl	8004f88 <TIM_OC1_SetConfig>

      /* Set the Preload enable bit for channel1 */
      htim->Instance->CCMR1 |= TIM_CCMR1_OC1PE;
 8004b70:	68fb      	ldr	r3, [r7, #12]
 8004b72:	681b      	ldr	r3, [r3, #0]
 8004b74:	699a      	ldr	r2, [r3, #24]
 8004b76:	68fb      	ldr	r3, [r7, #12]
 8004b78:	681b      	ldr	r3, [r3, #0]
 8004b7a:	f042 0208 	orr.w	r2, r2, #8
 8004b7e:	619a      	str	r2, [r3, #24]

      /* Configure the Output Fast mode */
      htim->Instance->CCMR1 &= ~TIM_CCMR1_OC1FE;
 8004b80:	68fb      	ldr	r3, [r7, #12]
 8004b82:	681b      	ldr	r3, [r3, #0]
 8004b84:	699a      	ldr	r2, [r3, #24]
 8004b86:	68fb      	ldr	r3, [r7, #12]
 8004b88:	681b      	ldr	r3, [r3, #0]
 8004b8a:	f022 0204 	bic.w	r2, r2, #4
 8004b8e:	619a      	str	r2, [r3, #24]
      htim->Instance->CCMR1 |= sConfig->OCFastMode;
 8004b90:	68fb      	ldr	r3, [r7, #12]
 8004b92:	681b      	ldr	r3, [r3, #0]
 8004b94:	6999      	ldr	r1, [r3, #24]
 8004b96:	68bb      	ldr	r3, [r7, #8]
 8004b98:	691a      	ldr	r2, [r3, #16]
 8004b9a:	68fb      	ldr	r3, [r7, #12]
 8004b9c:	681b      	ldr	r3, [r3, #0]
 8004b9e:	430a      	orrs	r2, r1
 8004ba0:	619a      	str	r2, [r3, #24]
      break;
 8004ba2:	e0a5      	b.n	8004cf0 <HAL_TIM_PWM_ConfigChannel+0x214>
    {
      /* Check the parameters */
      assert_param(IS_TIM_CC2_INSTANCE(htim->Instance));

      /* Configure the Channel 2 in PWM mode */
      TIM_OC2_SetConfig(htim->Instance, sConfig);
 8004ba4:	68fb      	ldr	r3, [r7, #12]
 8004ba6:	681b      	ldr	r3, [r3, #0]
 8004ba8:	68b9      	ldr	r1, [r7, #8]
 8004baa:	4618      	mov	r0, r3
 8004bac:	f000 fa72 	bl	8005094 <TIM_OC2_SetConfig>

      /* Set the Preload enable bit for channel2 */
      htim->Instance->CCMR1 |= TIM_CCMR1_OC2PE;
 8004bb0:	68fb      	ldr	r3, [r7, #12]
 8004bb2:	681b      	ldr	r3, [r3, #0]
 8004bb4:	699a      	ldr	r2, [r3, #24]
 8004bb6:	68fb      	ldr	r3, [r7, #12]
 8004bb8:	681b      	ldr	r3, [r3, #0]
 8004bba:	f442 6200 	orr.w	r2, r2, #2048	; 0x800
 8004bbe:	619a      	str	r2, [r3, #24]

      /* Configure the Output Fast mode */
      htim->Instance->CCMR1 &= ~TIM_CCMR1_OC2FE;
 8004bc0:	68fb      	ldr	r3, [r7, #12]
 8004bc2:	681b      	ldr	r3, [r3, #0]
 8004bc4:	699a      	ldr	r2, [r3, #24]
 8004bc6:	68fb      	ldr	r3, [r7, #12]
 8004bc8:	681b      	ldr	r3, [r3, #0]
 8004bca:	f422 6280 	bic.w	r2, r2, #1024	; 0x400
 8004bce:	619a      	str	r2, [r3, #24]
      htim->Instance->CCMR1 |= sConfig->OCFastMode << 8U;
 8004bd0:	68fb      	ldr	r3, [r7, #12]
 8004bd2:	681b      	ldr	r3, [r3, #0]
 8004bd4:	6999      	ldr	r1, [r3, #24]
 8004bd6:	68bb      	ldr	r3, [r7, #8]
 8004bd8:	691b      	ldr	r3, [r3, #16]
 8004bda:	021a      	lsls	r2, r3, #8
 8004bdc:	68fb      	ldr	r3, [r7, #12]
 8004bde:	681b      	ldr	r3, [r3, #0]
 8004be0:	430a      	orrs	r2, r1
 8004be2:	619a      	str	r2, [r3, #24]
      break;
 8004be4:	e084      	b.n	8004cf0 <HAL_TIM_PWM_ConfigChannel+0x214>
    {
      /* Check the parameters */
      assert_param(IS_TIM_CC3_INSTANCE(htim->Instance));

      /* Configure the Channel 3 in PWM mode */
      TIM_OC3_SetConfig(htim->Instance, sConfig);
 8004be6:	68fb      	ldr	r3, [r7, #12]
 8004be8:	681b      	ldr	r3, [r3, #0]
 8004bea:	68b9      	ldr	r1, [r7, #8]
 8004bec:	4618      	mov	r0, r3
 8004bee:	f000 fad1 	bl	8005194 <TIM_OC3_SetConfig>

      /* Set the Preload enable bit for channel3 */
      htim->Instance->CCMR2 |= TIM_CCMR2_OC3PE;
 8004bf2:	68fb      	ldr	r3, [r7, #12]
 8004bf4:	681b      	ldr	r3, [r3, #0]
 8004bf6:	69da      	ldr	r2, [r3, #28]
 8004bf8:	68fb      	ldr	r3, [r7, #12]
 8004bfa:	681b      	ldr	r3, [r3, #0]
 8004bfc:	f042 0208 	orr.w	r2, r2, #8
 8004c00:	61da      	str	r2, [r3, #28]

      /* Configure the Output Fast mode */
      htim->Instance->CCMR2 &= ~TIM_CCMR2_OC3FE;
 8004c02:	68fb      	ldr	r3, [r7, #12]
 8004c04:	681b      	ldr	r3, [r3, #0]
 8004c06:	69da      	ldr	r2, [r3, #28]
 8004c08:	68fb      	ldr	r3, [r7, #12]
 8004c0a:	681b      	ldr	r3, [r3, #0]
 8004c0c:	f022 0204 	bic.w	r2, r2, #4
 8004c10:	61da      	str	r2, [r3, #28]
      htim->Instance->CCMR2 |= sConfig->OCFastMode;
 8004c12:	68fb      	ldr	r3, [r7, #12]
 8004c14:	681b      	ldr	r3, [r3, #0]
 8004c16:	69d9      	ldr	r1, [r3, #28]
 8004c18:	68bb      	ldr	r3, [r7, #8]
 8004c1a:	691a      	ldr	r2, [r3, #16]
 8004c1c:	68fb      	ldr	r3, [r7, #12]
 8004c1e:	681b      	ldr	r3, [r3, #0]
 8004c20:	430a      	orrs	r2, r1
 8004c22:	61da      	str	r2, [r3, #28]
      break;
 8004c24:	e064      	b.n	8004cf0 <HAL_TIM_PWM_ConfigChannel+0x214>
    {
      /* Check the parameters */
      assert_param(IS_TIM_CC4_INSTANCE(htim->Instance));

      /* Configure the Channel 4 in PWM mode */
      TIM_OC4_SetConfig(htim->Instance, sConfig);
 8004c26:	68fb      	ldr	r3, [r7, #12]
 8004c28:	681b      	ldr	r3, [r3, #0]
 8004c2a:	68b9      	ldr	r1, [r7, #8]
 8004c2c:	4618      	mov	r0, r3
 8004c2e:	f000 fb2f 	bl	8005290 <TIM_OC4_SetConfig>

      /* Set the Preload enable bit for channel4 */
      htim->Instance->CCMR2 |= TIM_CCMR2_OC4PE;
 8004c32:	68fb      	ldr	r3, [r7, #12]
 8004c34:	681b      	ldr	r3, [r3, #0]
 8004c36:	69da      	ldr	r2, [r3, #28]
 8004c38:	68fb      	ldr	r3, [r7, #12]
 8004c3a:	681b      	ldr	r3, [r3, #0]
 8004c3c:	f442 6200 	orr.w	r2, r2, #2048	; 0x800
 8004c40:	61da      	str	r2, [r3, #28]

      /* Configure the Output Fast mode */
      htim->Instance->CCMR2 &= ~TIM_CCMR2_OC4FE;
 8004c42:	68fb      	ldr	r3, [r7, #12]
 8004c44:	681b      	ldr	r3, [r3, #0]
 8004c46:	69da      	ldr	r2, [r3, #28]
 8004c48:	68fb      	ldr	r3, [r7, #12]
 8004c4a:	681b      	ldr	r3, [r3, #0]
 8004c4c:	f422 6280 	bic.w	r2, r2, #1024	; 0x400
 8004c50:	61da      	str	r2, [r3, #28]
      htim->Instance->CCMR2 |= sConfig->OCFastMode << 8U;
 8004c52:	68fb      	ldr	r3, [r7, #12]
 8004c54:	681b      	ldr	r3, [r3, #0]
 8004c56:	69d9      	ldr	r1, [r3, #28]
 8004c58:	68bb      	ldr	r3, [r7, #8]
 8004c5a:	691b      	ldr	r3, [r3, #16]
 8004c5c:	021a      	lsls	r2, r3, #8
 8004c5e:	68fb      	ldr	r3, [r7, #12]
 8004c60:	681b      	ldr	r3, [r3, #0]
 8004c62:	430a      	orrs	r2, r1
 8004c64:	61da      	str	r2, [r3, #28]
      break;
 8004c66:	e043      	b.n	8004cf0 <HAL_TIM_PWM_ConfigChannel+0x214>
    {
      /* Check the parameters */
      assert_param(IS_TIM_CC5_INSTANCE(htim->Instance));

      /* Configure the Channel 5 in PWM mode */
      TIM_OC5_SetConfig(htim->Instance, sConfig);
 8004c68:	68fb      	ldr	r3, [r7, #12]
 8004c6a:	681b      	ldr	r3, [r3, #0]
 8004c6c:	68b9      	ldr	r1, [r7, #8]
 8004c6e:	4618      	mov	r0, r3
 8004c70:	f000 fb72 	bl	8005358 <TIM_OC5_SetConfig>

      /* Set the Preload enable bit for channel5*/
      htim->Instance->CCMR3 |= TIM_CCMR3_OC5PE;
 8004c74:	68fb      	ldr	r3, [r7, #12]
 8004c76:	681b      	ldr	r3, [r3, #0]
 8004c78:	6d5a      	ldr	r2, [r3, #84]	; 0x54
 8004c7a:	68fb      	ldr	r3, [r7, #12]
 8004c7c:	681b      	ldr	r3, [r3, #0]
 8004c7e:	f042 0208 	orr.w	r2, r2, #8
 8004c82:	655a      	str	r2, [r3, #84]	; 0x54

      /* Configure the Output Fast mode */
      htim->Instance->CCMR3 &= ~TIM_CCMR3_OC5FE;
 8004c84:	68fb      	ldr	r3, [r7, #12]
 8004c86:	681b      	ldr	r3, [r3, #0]
 8004c88:	6d5a      	ldr	r2, [r3, #84]	; 0x54
 8004c8a:	68fb      	ldr	r3, [r7, #12]
 8004c8c:	681b      	ldr	r3, [r3, #0]
 8004c8e:	f022 0204 	bic.w	r2, r2, #4
 8004c92:	655a      	str	r2, [r3, #84]	; 0x54
      htim->Instance->CCMR3 |= sConfig->OCFastMode;
 8004c94:	68fb      	ldr	r3, [r7, #12]
 8004c96:	681b      	ldr	r3, [r3, #0]
 8004c98:	6d59      	ldr	r1, [r3, #84]	; 0x54
 8004c9a:	68bb      	ldr	r3, [r7, #8]
 8004c9c:	691a      	ldr	r2, [r3, #16]
 8004c9e:	68fb      	ldr	r3, [r7, #12]
 8004ca0:	681b      	ldr	r3, [r3, #0]
 8004ca2:	430a      	orrs	r2, r1
 8004ca4:	655a      	str	r2, [r3, #84]	; 0x54
      break;
 8004ca6:	e023      	b.n	8004cf0 <HAL_TIM_PWM_ConfigChannel+0x214>
    {
      /* Check the parameters */
      assert_param(IS_TIM_CC6_INSTANCE(htim->Instance));

      /* Configure the Channel 6 in PWM mode */
      TIM_OC6_SetConfig(htim->Instance, sConfig);
 8004ca8:	68fb      	ldr	r3, [r7, #12]
 8004caa:	681b      	ldr	r3, [r3, #0]
 8004cac:	68b9      	ldr	r1, [r7, #8]
 8004cae:	4618      	mov	r0, r3
 8004cb0:	f000 fbb0 	bl	8005414 <TIM_OC6_SetConfig>

      /* Set the Preload enable bit for channel6 */
      htim->Instance->CCMR3 |= TIM_CCMR3_OC6PE;
 8004cb4:	68fb      	ldr	r3, [r7, #12]
 8004cb6:	681b      	ldr	r3, [r3, #0]
 8004cb8:	6d5a      	ldr	r2, [r3, #84]	; 0x54
 8004cba:	68fb      	ldr	r3, [r7, #12]
 8004cbc:	681b      	ldr	r3, [r3, #0]
 8004cbe:	f442 6200 	orr.w	r2, r2, #2048	; 0x800
 8004cc2:	655a      	str	r2, [r3, #84]	; 0x54

      /* Configure the Output Fast mode */
      htim->Instance->CCMR3 &= ~TIM_CCMR3_OC6FE;
 8004cc4:	68fb      	ldr	r3, [r7, #12]
 8004cc6:	681b      	ldr	r3, [r3, #0]
 8004cc8:	6d5a      	ldr	r2, [r3, #84]	; 0x54
 8004cca:	68fb      	ldr	r3, [r7, #12]
 8004ccc:	681b      	ldr	r3, [r3, #0]
 8004cce:	f422 6280 	bic.w	r2, r2, #1024	; 0x400
 8004cd2:	655a      	str	r2, [r3, #84]	; 0x54
      htim->Instance->CCMR3 |= sConfig->OCFastMode << 8U;
 8004cd4:	68fb      	ldr	r3, [r7, #12]
 8004cd6:	681b      	ldr	r3, [r3, #0]
 8004cd8:	6d59      	ldr	r1, [r3, #84]	; 0x54
 8004cda:	68bb      	ldr	r3, [r7, #8]
 8004cdc:	691b      	ldr	r3, [r3, #16]
 8004cde:	021a      	lsls	r2, r3, #8
 8004ce0:	68fb      	ldr	r3, [r7, #12]
 8004ce2:	681b      	ldr	r3, [r3, #0]
 8004ce4:	430a      	orrs	r2, r1
 8004ce6:	655a      	str	r2, [r3, #84]	; 0x54
      break;
 8004ce8:	e002      	b.n	8004cf0 <HAL_TIM_PWM_ConfigChannel+0x214>
    }
#endif /* TIM_CCER_CC6E */

    default:
      status = HAL_ERROR;
 8004cea:	2301      	movs	r3, #1
 8004cec:	75fb      	strb	r3, [r7, #23]
      break;
 8004cee:	bf00      	nop
  }

  __HAL_UNLOCK(htim);
 8004cf0:	68fb      	ldr	r3, [r7, #12]
 8004cf2:	2200      	movs	r2, #0
 8004cf4:	f883 203c 	strb.w	r2, [r3, #60]	; 0x3c

  return status;
 8004cf8:	7dfb      	ldrb	r3, [r7, #23]
}
 8004cfa:	4618      	mov	r0, r3
 8004cfc:	3718      	adds	r7, #24
 8004cfe:	46bd      	mov	sp, r7
 8004d00:	bd80      	pop	{r7, pc}
 8004d02:	bf00      	nop

08004d04 <HAL_TIM_ConfigClockSource>:
  * @param  sClockSourceConfig pointer to a TIM_ClockConfigTypeDef structure that
  *         contains the clock source information for the TIM peripheral.
  * @retval HAL status
  */
HAL_StatusTypeDef HAL_TIM_ConfigClockSource(TIM_HandleTypeDef *htim, const TIM_ClockConfigTypeDef *sClockSourceConfig)
{
 8004d04:	b580      	push	{r7, lr}
 8004d06:	b084      	sub	sp, #16
 8004d08:	af00      	add	r7, sp, #0
 8004d0a:	6078      	str	r0, [r7, #4]
 8004d0c:	6039      	str	r1, [r7, #0]
  HAL_StatusTypeDef status = HAL_OK;
 8004d0e:	2300      	movs	r3, #0
 8004d10:	73fb      	strb	r3, [r7, #15]
  uint32_t tmpsmcr;

  /* Process Locked */
  __HAL_LOCK(htim);
 8004d12:	687b      	ldr	r3, [r7, #4]
 8004d14:	f893 303c 	ldrb.w	r3, [r3, #60]	; 0x3c
 8004d18:	2b01      	cmp	r3, #1
 8004d1a:	d101      	bne.n	8004d20 <HAL_TIM_ConfigClockSource+0x1c>
 8004d1c:	2302      	movs	r3, #2
 8004d1e:	e0b6      	b.n	8004e8e <HAL_TIM_ConfigClockSource+0x18a>
 8004d20:	687b      	ldr	r3, [r7, #4]
 8004d22:	2201      	movs	r2, #1
 8004d24:	f883 203c 	strb.w	r2, [r3, #60]	; 0x3c

  htim->State = HAL_TIM_STATE_BUSY;
 8004d28:	687b      	ldr	r3, [r7, #4]
 8004d2a:	2202      	movs	r2, #2
 8004d2c:	f883 203d 	strb.w	r2, [r3, #61]	; 0x3d

  /* Check the parameters */
  assert_param(IS_TIM_CLOCKSOURCE(sClockSourceConfig->ClockSource));

  /* Reset the SMS, TS, ECE, ETPS and ETRF bits */
  tmpsmcr = htim->Instance->SMCR;
 8004d30:	687b      	ldr	r3, [r7, #4]
 8004d32:	681b      	ldr	r3, [r3, #0]
 8004d34:	689b      	ldr	r3, [r3, #8]
 8004d36:	60bb      	str	r3, [r7, #8]
  tmpsmcr &= ~(TIM_SMCR_SMS | TIM_SMCR_TS);
 8004d38:	68bb      	ldr	r3, [r7, #8]
 8004d3a:	f423 3380 	bic.w	r3, r3, #65536	; 0x10000
 8004d3e:	f023 0377 	bic.w	r3, r3, #119	; 0x77
 8004d42:	60bb      	str	r3, [r7, #8]
  tmpsmcr &= ~(TIM_SMCR_ETF | TIM_SMCR_ETPS | TIM_SMCR_ECE | TIM_SMCR_ETP);
 8004d44:	68bb      	ldr	r3, [r7, #8]
 8004d46:	f423 437f 	bic.w	r3, r3, #65280	; 0xff00
 8004d4a:	60bb      	str	r3, [r7, #8]
  htim->Instance->SMCR = tmpsmcr;
 8004d4c:	687b      	ldr	r3, [r7, #4]
 8004d4e:	681b      	ldr	r3, [r3, #0]
 8004d50:	68ba      	ldr	r2, [r7, #8]
 8004d52:	609a      	str	r2, [r3, #8]

  switch (sClockSourceConfig->ClockSource)
 8004d54:	683b      	ldr	r3, [r7, #0]
 8004d56:	681b      	ldr	r3, [r3, #0]
 8004d58:	f5b3 5f00 	cmp.w	r3, #8192	; 0x2000
 8004d5c:	d03e      	beq.n	8004ddc <HAL_TIM_ConfigClockSource+0xd8>
 8004d5e:	f5b3 5f00 	cmp.w	r3, #8192	; 0x2000
 8004d62:	f200 8087 	bhi.w	8004e74 <HAL_TIM_ConfigClockSource+0x170>
 8004d66:	f5b3 5f80 	cmp.w	r3, #4096	; 0x1000
 8004d6a:	f000 8086 	beq.w	8004e7a <HAL_TIM_ConfigClockSource+0x176>
 8004d6e:	f5b3 5f80 	cmp.w	r3, #4096	; 0x1000
 8004d72:	d87f      	bhi.n	8004e74 <HAL_TIM_ConfigClockSource+0x170>
 8004d74:	2b70      	cmp	r3, #112	; 0x70
 8004d76:	d01a      	beq.n	8004dae <HAL_TIM_ConfigClockSource+0xaa>
 8004d78:	2b70      	cmp	r3, #112	; 0x70
 8004d7a:	d87b      	bhi.n	8004e74 <HAL_TIM_ConfigClockSource+0x170>
 8004d7c:	2b60      	cmp	r3, #96	; 0x60
 8004d7e:	d050      	beq.n	8004e22 <HAL_TIM_ConfigClockSource+0x11e>
 8004d80:	2b60      	cmp	r3, #96	; 0x60
 8004d82:	d877      	bhi.n	8004e74 <HAL_TIM_ConfigClockSource+0x170>
 8004d84:	2b50      	cmp	r3, #80	; 0x50
 8004d86:	d03c      	beq.n	8004e02 <HAL_TIM_ConfigClockSource+0xfe>
 8004d88:	2b50      	cmp	r3, #80	; 0x50
 8004d8a:	d873      	bhi.n	8004e74 <HAL_TIM_ConfigClockSource+0x170>
 8004d8c:	2b40      	cmp	r3, #64	; 0x40
 8004d8e:	d058      	beq.n	8004e42 <HAL_TIM_ConfigClockSource+0x13e>
 8004d90:	2b40      	cmp	r3, #64	; 0x40
 8004d92:	d86f      	bhi.n	8004e74 <HAL_TIM_ConfigClockSource+0x170>
 8004d94:	2b30      	cmp	r3, #48	; 0x30
 8004d96:	d064      	beq.n	8004e62 <HAL_TIM_ConfigClockSource+0x15e>
 8004d98:	2b30      	cmp	r3, #48	; 0x30
 8004d9a:	d86b      	bhi.n	8004e74 <HAL_TIM_ConfigClockSource+0x170>
 8004d9c:	2b20      	cmp	r3, #32
 8004d9e:	d060      	beq.n	8004e62 <HAL_TIM_ConfigClockSource+0x15e>
 8004da0:	2b20      	cmp	r3, #32
 8004da2:	d867      	bhi.n	8004e74 <HAL_TIM_ConfigClockSource+0x170>
 8004da4:	2b00      	cmp	r3, #0
 8004da6:	d05c      	beq.n	8004e62 <HAL_TIM_ConfigClockSource+0x15e>
 8004da8:	2b10      	cmp	r3, #16
 8004daa:	d05a      	beq.n	8004e62 <HAL_TIM_ConfigClockSource+0x15e>
 8004dac:	e062      	b.n	8004e74 <HAL_TIM_ConfigClockSource+0x170>
      assert_param(IS_TIM_CLOCKPRESCALER(sClockSourceConfig->ClockPrescaler));
      assert_param(IS_TIM_CLOCKPOLARITY(sClockSourceConfig->ClockPolarity));
      assert_param(IS_TIM_CLOCKFILTER(sClockSourceConfig->ClockFilter));

      /* Configure the ETR Clock source */
      TIM_ETR_SetConfig(htim->Instance,
 8004dae:	687b      	ldr	r3, [r7, #4]
 8004db0:	6818      	ldr	r0, [r3, #0]
 8004db2:	683b      	ldr	r3, [r7, #0]
 8004db4:	6899      	ldr	r1, [r3, #8]
 8004db6:	683b      	ldr	r3, [r7, #0]
 8004db8:	685a      	ldr	r2, [r3, #4]
 8004dba:	683b      	ldr	r3, [r7, #0]
 8004dbc:	68db      	ldr	r3, [r3, #12]
 8004dbe:	f000 fc03 	bl	80055c8 <TIM_ETR_SetConfig>
                        sClockSourceConfig->ClockPrescaler,
                        sClockSourceConfig->ClockPolarity,
                        sClockSourceConfig->ClockFilter);

      /* Select the External clock mode1 and the ETRF trigger */
      tmpsmcr = htim->Instance->SMCR;
 8004dc2:	687b      	ldr	r3, [r7, #4]
 8004dc4:	681b      	ldr	r3, [r3, #0]
 8004dc6:	689b      	ldr	r3, [r3, #8]
 8004dc8:	60bb      	str	r3, [r7, #8]
      tmpsmcr |= (TIM_SLAVEMODE_EXTERNAL1 | TIM_CLOCKSOURCE_ETRMODE1);
 8004dca:	68bb      	ldr	r3, [r7, #8]
 8004dcc:	f043 0377 	orr.w	r3, r3, #119	; 0x77
 8004dd0:	60bb      	str	r3, [r7, #8]
      /* Write to TIMx SMCR */
      htim->Instance->SMCR = tmpsmcr;
 8004dd2:	687b      	ldr	r3, [r7, #4]
 8004dd4:	681b      	ldr	r3, [r3, #0]
 8004dd6:	68ba      	ldr	r2, [r7, #8]
 8004dd8:	609a      	str	r2, [r3, #8]
      break;
 8004dda:	e04f      	b.n	8004e7c <HAL_TIM_ConfigClockSource+0x178>
      assert_param(IS_TIM_CLOCKPRESCALER(sClockSourceConfig->ClockPrescaler));
      assert_param(IS_TIM_CLOCKPOLARITY(sClockSourceConfig->ClockPolarity));
      assert_param(IS_TIM_CLOCKFILTER(sClockSourceConfig->ClockFilter));

      /* Configure the ETR Clock source */
      TIM_ETR_SetConfig(htim->Instance,
 8004ddc:	687b      	ldr	r3, [r7, #4]
 8004dde:	6818      	ldr	r0, [r3, #0]
 8004de0:	683b      	ldr	r3, [r7, #0]
 8004de2:	6899      	ldr	r1, [r3, #8]
 8004de4:	683b      	ldr	r3, [r7, #0]
 8004de6:	685a      	ldr	r2, [r3, #4]
 8004de8:	683b      	ldr	r3, [r7, #0]
 8004dea:	68db      	ldr	r3, [r3, #12]
 8004dec:	f000 fbec 	bl	80055c8 <TIM_ETR_SetConfig>
                        sClockSourceConfig->ClockPrescaler,
                        sClockSourceConfig->ClockPolarity,
                        sClockSourceConfig->ClockFilter);
      /* Enable the External clock mode2 */
      htim->Instance->SMCR |= TIM_SMCR_ECE;
 8004df0:	687b      	ldr	r3, [r7, #4]
 8004df2:	681b      	ldr	r3, [r3, #0]
 8004df4:	689a      	ldr	r2, [r3, #8]
 8004df6:	687b      	ldr	r3, [r7, #4]
 8004df8:	681b      	ldr	r3, [r3, #0]
 8004dfa:	f442 4280 	orr.w	r2, r2, #16384	; 0x4000
 8004dfe:	609a      	str	r2, [r3, #8]
      break;
 8004e00:	e03c      	b.n	8004e7c <HAL_TIM_ConfigClockSource+0x178>

      /* Check TI1 input conditioning related parameters */
      assert_param(IS_TIM_CLOCKPOLARITY(sClockSourceConfig->ClockPolarity));
      assert_param(IS_TIM_CLOCKFILTER(sClockSourceConfig->ClockFilter));

      TIM_TI1_ConfigInputStage(htim->Instance,
 8004e02:	687b      	ldr	r3, [r7, #4]
 8004e04:	6818      	ldr	r0, [r3, #0]
 8004e06:	683b      	ldr	r3, [r7, #0]
 8004e08:	6859      	ldr	r1, [r3, #4]
 8004e0a:	683b      	ldr	r3, [r7, #0]
 8004e0c:	68db      	ldr	r3, [r3, #12]
 8004e0e:	461a      	mov	r2, r3
 8004e10:	f000 fb60 	bl	80054d4 <TIM_TI1_ConfigInputStage>
                               sClockSourceConfig->ClockPolarity,
                               sClockSourceConfig->ClockFilter);
      TIM_ITRx_SetConfig(htim->Instance, TIM_CLOCKSOURCE_TI1);
 8004e14:	687b      	ldr	r3, [r7, #4]
 8004e16:	681b      	ldr	r3, [r3, #0]
 8004e18:	2150      	movs	r1, #80	; 0x50
 8004e1a:	4618      	mov	r0, r3
 8004e1c:	f000 fbb9 	bl	8005592 <TIM_ITRx_SetConfig>
      break;
 8004e20:	e02c      	b.n	8004e7c <HAL_TIM_ConfigClockSource+0x178>

      /* Check TI2 input conditioning related parameters */
      assert_param(IS_TIM_CLOCKPOLARITY(sClockSourceConfig->ClockPolarity));
      assert_param(IS_TIM_CLOCKFILTER(sClockSourceConfig->ClockFilter));

      TIM_TI2_ConfigInputStage(htim->Instance,
 8004e22:	687b      	ldr	r3, [r7, #4]
 8004e24:	6818      	ldr	r0, [r3, #0]
 8004e26:	683b      	ldr	r3, [r7, #0]
 8004e28:	6859      	ldr	r1, [r3, #4]
 8004e2a:	683b      	ldr	r3, [r7, #0]
 8004e2c:	68db      	ldr	r3, [r3, #12]
 8004e2e:	461a      	mov	r2, r3
 8004e30:	f000 fb7f 	bl	8005532 <TIM_TI2_ConfigInputStage>
                               sClockSourceConfig->ClockPolarity,
                               sClockSourceConfig->ClockFilter);
      TIM_ITRx_SetConfig(htim->Instance, TIM_CLOCKSOURCE_TI2);
 8004e34:	687b      	ldr	r3, [r7, #4]
 8004e36:	681b      	ldr	r3, [r3, #0]
 8004e38:	2160      	movs	r1, #96	; 0x60
 8004e3a:	4618      	mov	r0, r3
 8004e3c:	f000 fba9 	bl	8005592 <TIM_ITRx_SetConfig>
      break;
 8004e40:	e01c      	b.n	8004e7c <HAL_TIM_ConfigClockSource+0x178>

      /* Check TI1 input conditioning related parameters */
      assert_param(IS_TIM_CLOCKPOLARITY(sClockSourceConfig->ClockPolarity));
      assert_param(IS_TIM_CLOCKFILTER(sClockSourceConfig->ClockFilter));

      TIM_TI1_ConfigInputStage(htim->Instance,
 8004e42:	687b      	ldr	r3, [r7, #4]
 8004e44:	6818      	ldr	r0, [r3, #0]
 8004e46:	683b      	ldr	r3, [r7, #0]
 8004e48:	6859      	ldr	r1, [r3, #4]
 8004e4a:	683b      	ldr	r3, [r7, #0]
 8004e4c:	68db      	ldr	r3, [r3, #12]
 8004e4e:	461a      	mov	r2, r3
 8004e50:	f000 fb40 	bl	80054d4 <TIM_TI1_ConfigInputStage>
                               sClockSourceConfig->ClockPolarity,
                               sClockSourceConfig->ClockFilter);
      TIM_ITRx_SetConfig(htim->Instance, TIM_CLOCKSOURCE_TI1ED);
 8004e54:	687b      	ldr	r3, [r7, #4]
 8004e56:	681b      	ldr	r3, [r3, #0]
 8004e58:	2140      	movs	r1, #64	; 0x40
 8004e5a:	4618      	mov	r0, r3
 8004e5c:	f000 fb99 	bl	8005592 <TIM_ITRx_SetConfig>
      break;
 8004e60:	e00c      	b.n	8004e7c <HAL_TIM_ConfigClockSource+0x178>
    case TIM_CLOCKSOURCE_ITR3:
    {
      /* Check whether or not the timer instance supports internal trigger input */
      assert_param(IS_TIM_CLOCKSOURCE_ITRX_INSTANCE(htim->Instance));

      TIM_ITRx_SetConfig(htim->Instance, sClockSourceConfig->ClockSource);
 8004e62:	687b      	ldr	r3, [r7, #4]
 8004e64:	681a      	ldr	r2, [r3, #0]
 8004e66:	683b      	ldr	r3, [r7, #0]
 8004e68:	681b      	ldr	r3, [r3, #0]
 8004e6a:	4619      	mov	r1, r3
 8004e6c:	4610      	mov	r0, r2
 8004e6e:	f000 fb90 	bl	8005592 <TIM_ITRx_SetConfig>
      break;
 8004e72:	e003      	b.n	8004e7c <HAL_TIM_ConfigClockSource+0x178>
    }

    default:
      status = HAL_ERROR;
 8004e74:	2301      	movs	r3, #1
 8004e76:	73fb      	strb	r3, [r7, #15]
      break;
 8004e78:	e000      	b.n	8004e7c <HAL_TIM_ConfigClockSource+0x178>
      break;
 8004e7a:	bf00      	nop
  }
  htim->State = HAL_TIM_STATE_READY;
 8004e7c:	687b      	ldr	r3, [r7, #4]
 8004e7e:	2201      	movs	r2, #1
 8004e80:	f883 203d 	strb.w	r2, [r3, #61]	; 0x3d

  __HAL_UNLOCK(htim);
 8004e84:	687b      	ldr	r3, [r7, #4]
 8004e86:	2200      	movs	r2, #0
 8004e88:	f883 203c 	strb.w	r2, [r3, #60]	; 0x3c

  return status;
 8004e8c:	7bfb      	ldrb	r3, [r7, #15]
}
 8004e8e:	4618      	mov	r0, r3
 8004e90:	3710      	adds	r7, #16
 8004e92:	46bd      	mov	sp, r7
 8004e94:	bd80      	pop	{r7, pc}
	...

08004e98 <TIM_Base_SetConfig>:
  * @param  TIMx TIM peripheral
  * @param  Structure TIM Base configuration structure
  * @retval None
  */
void TIM_Base_SetConfig(TIM_TypeDef *TIMx, const TIM_Base_InitTypeDef *Structure)
{
 8004e98:	b480      	push	{r7}
 8004e9a:	b085      	sub	sp, #20
 8004e9c:	af00      	add	r7, sp, #0
 8004e9e:	6078      	str	r0, [r7, #4]
 8004ea0:	6039      	str	r1, [r7, #0]
  uint32_t tmpcr1;
  tmpcr1 = TIMx->CR1;
 8004ea2:	687b      	ldr	r3, [r7, #4]
 8004ea4:	681b      	ldr	r3, [r3, #0]
 8004ea6:	60fb      	str	r3, [r7, #12]

  /* Set TIM Time Base Unit parameters ---------------------------------------*/
  if (IS_TIM_COUNTER_MODE_SELECT_INSTANCE(TIMx))
 8004ea8:	687b      	ldr	r3, [r7, #4]
 8004eaa:	4a32      	ldr	r2, [pc, #200]	; (8004f74 <TIM_Base_SetConfig+0xdc>)
 8004eac:	4293      	cmp	r3, r2
 8004eae:	d007      	beq.n	8004ec0 <TIM_Base_SetConfig+0x28>
 8004eb0:	687b      	ldr	r3, [r7, #4]
 8004eb2:	f1b3 4f80 	cmp.w	r3, #1073741824	; 0x40000000
 8004eb6:	d003      	beq.n	8004ec0 <TIM_Base_SetConfig+0x28>
 8004eb8:	687b      	ldr	r3, [r7, #4]
 8004eba:	4a2f      	ldr	r2, [pc, #188]	; (8004f78 <TIM_Base_SetConfig+0xe0>)
 8004ebc:	4293      	cmp	r3, r2
 8004ebe:	d108      	bne.n	8004ed2 <TIM_Base_SetConfig+0x3a>
  {
    /* Select the Counter Mode */
    tmpcr1 &= ~(TIM_CR1_DIR | TIM_CR1_CMS);
 8004ec0:	68fb      	ldr	r3, [r7, #12]
 8004ec2:	f023 0370 	bic.w	r3, r3, #112	; 0x70
 8004ec6:	60fb      	str	r3, [r7, #12]
    tmpcr1 |= Structure->CounterMode;
 8004ec8:	683b      	ldr	r3, [r7, #0]
 8004eca:	685b      	ldr	r3, [r3, #4]
 8004ecc:	68fa      	ldr	r2, [r7, #12]
 8004ece:	4313      	orrs	r3, r2
 8004ed0:	60fb      	str	r3, [r7, #12]
  }

  if (IS_TIM_CLOCK_DIVISION_INSTANCE(TIMx))
 8004ed2:	687b      	ldr	r3, [r7, #4]
 8004ed4:	4a27      	ldr	r2, [pc, #156]	; (8004f74 <TIM_Base_SetConfig+0xdc>)
 8004ed6:	4293      	cmp	r3, r2
 8004ed8:	d013      	beq.n	8004f02 <TIM_Base_SetConfig+0x6a>
 8004eda:	687b      	ldr	r3, [r7, #4]
 8004edc:	f1b3 4f80 	cmp.w	r3, #1073741824	; 0x40000000
 8004ee0:	d00f      	beq.n	8004f02 <TIM_Base_SetConfig+0x6a>
 8004ee2:	687b      	ldr	r3, [r7, #4]
 8004ee4:	4a24      	ldr	r2, [pc, #144]	; (8004f78 <TIM_Base_SetConfig+0xe0>)
 8004ee6:	4293      	cmp	r3, r2
 8004ee8:	d00b      	beq.n	8004f02 <TIM_Base_SetConfig+0x6a>
 8004eea:	687b      	ldr	r3, [r7, #4]
 8004eec:	4a23      	ldr	r2, [pc, #140]	; (8004f7c <TIM_Base_SetConfig+0xe4>)
 8004eee:	4293      	cmp	r3, r2
 8004ef0:	d007      	beq.n	8004f02 <TIM_Base_SetConfig+0x6a>
 8004ef2:	687b      	ldr	r3, [r7, #4]
 8004ef4:	4a22      	ldr	r2, [pc, #136]	; (8004f80 <TIM_Base_SetConfig+0xe8>)
 8004ef6:	4293      	cmp	r3, r2
 8004ef8:	d003      	beq.n	8004f02 <TIM_Base_SetConfig+0x6a>
 8004efa:	687b      	ldr	r3, [r7, #4]
 8004efc:	4a21      	ldr	r2, [pc, #132]	; (8004f84 <TIM_Base_SetConfig+0xec>)
 8004efe:	4293      	cmp	r3, r2
 8004f00:	d108      	bne.n	8004f14 <TIM_Base_SetConfig+0x7c>
  {
    /* Set the clock division */
    tmpcr1 &= ~TIM_CR1_CKD;
 8004f02:	68fb      	ldr	r3, [r7, #12]
 8004f04:	f423 7340 	bic.w	r3, r3, #768	; 0x300
 8004f08:	60fb      	str	r3, [r7, #12]
    tmpcr1 |= (uint32_t)Structure->ClockDivision;
 8004f0a:	683b      	ldr	r3, [r7, #0]
 8004f0c:	68db      	ldr	r3, [r3, #12]
 8004f0e:	68fa      	ldr	r2, [r7, #12]
 8004f10:	4313      	orrs	r3, r2
 8004f12:	60fb      	str	r3, [r7, #12]
  }

  /* Set the auto-reload preload */
  MODIFY_REG(tmpcr1, TIM_CR1_ARPE, Structure->AutoReloadPreload);
 8004f14:	68fb      	ldr	r3, [r7, #12]
 8004f16:	f023 0280 	bic.w	r2, r3, #128	; 0x80
 8004f1a:	683b      	ldr	r3, [r7, #0]
 8004f1c:	695b      	ldr	r3, [r3, #20]
 8004f1e:	4313      	orrs	r3, r2
 8004f20:	60fb      	str	r3, [r7, #12]

  TIMx->CR1 = tmpcr1;
 8004f22:	687b      	ldr	r3, [r7, #4]
 8004f24:	68fa      	ldr	r2, [r7, #12]
 8004f26:	601a      	str	r2, [r3, #0]

  /* Set the Autoreload value */
  TIMx->ARR = (uint32_t)Structure->Period ;
 8004f28:	683b      	ldr	r3, [r7, #0]
 8004f2a:	689a      	ldr	r2, [r3, #8]
 8004f2c:	687b      	ldr	r3, [r7, #4]
 8004f2e:	62da      	str	r2, [r3, #44]	; 0x2c

  /* Set the Prescaler value */
  TIMx->PSC = Structure->Prescaler;
 8004f30:	683b      	ldr	r3, [r7, #0]
 8004f32:	681a      	ldr	r2, [r3, #0]
 8004f34:	687b      	ldr	r3, [r7, #4]
 8004f36:	629a      	str	r2, [r3, #40]	; 0x28

  if (IS_TIM_REPETITION_COUNTER_INSTANCE(TIMx))
 8004f38:	687b      	ldr	r3, [r7, #4]
 8004f3a:	4a0e      	ldr	r2, [pc, #56]	; (8004f74 <TIM_Base_SetConfig+0xdc>)
 8004f3c:	4293      	cmp	r3, r2
 8004f3e:	d00b      	beq.n	8004f58 <TIM_Base_SetConfig+0xc0>
 8004f40:	687b      	ldr	r3, [r7, #4]
 8004f42:	4a0e      	ldr	r2, [pc, #56]	; (8004f7c <TIM_Base_SetConfig+0xe4>)
 8004f44:	4293      	cmp	r3, r2
 8004f46:	d007      	beq.n	8004f58 <TIM_Base_SetConfig+0xc0>
 8004f48:	687b      	ldr	r3, [r7, #4]
 8004f4a:	4a0d      	ldr	r2, [pc, #52]	; (8004f80 <TIM_Base_SetConfig+0xe8>)
 8004f4c:	4293      	cmp	r3, r2
 8004f4e:	d003      	beq.n	8004f58 <TIM_Base_SetConfig+0xc0>
 8004f50:	687b      	ldr	r3, [r7, #4]
 8004f52:	4a0c      	ldr	r2, [pc, #48]	; (8004f84 <TIM_Base_SetConfig+0xec>)
 8004f54:	4293      	cmp	r3, r2
 8004f56:	d103      	bne.n	8004f60 <TIM_Base_SetConfig+0xc8>
  {
    /* Set the Repetition Counter value */
    TIMx->RCR = Structure->RepetitionCounter;
 8004f58:	683b      	ldr	r3, [r7, #0]
 8004f5a:	691a      	ldr	r2, [r3, #16]
 8004f5c:	687b      	ldr	r3, [r7, #4]
 8004f5e:	631a      	str	r2, [r3, #48]	; 0x30
  }

  /* Generate an update event to reload the Prescaler
     and the repetition counter (only for advanced timer) value immediately */
  TIMx->EGR = TIM_EGR_UG;
 8004f60:	687b      	ldr	r3, [r7, #4]
 8004f62:	2201      	movs	r2, #1
 8004f64:	615a      	str	r2, [r3, #20]
}
 8004f66:	bf00      	nop
 8004f68:	3714      	adds	r7, #20
 8004f6a:	46bd      	mov	sp, r7
 8004f6c:	f85d 7b04 	ldr.w	r7, [sp], #4
 8004f70:	4770      	bx	lr
 8004f72:	bf00      	nop
 8004f74:	40012c00 	.word	0x40012c00
 8004f78:	40000400 	.word	0x40000400
 8004f7c:	40014000 	.word	0x40014000
 8004f80:	40014400 	.word	0x40014400
 8004f84:	40014800 	.word	0x40014800

08004f88 <TIM_OC1_SetConfig>:
  * @param  TIMx to select the TIM peripheral
  * @param  OC_Config The output configuration structure
  * @retval None
  */
static void TIM_OC1_SetConfig(TIM_TypeDef *TIMx, const TIM_OC_InitTypeDef *OC_Config)
{
 8004f88:	b480      	push	{r7}
 8004f8a:	b087      	sub	sp, #28
 8004f8c:	af00      	add	r7, sp, #0
 8004f8e:	6078      	str	r0, [r7, #4]
 8004f90:	6039      	str	r1, [r7, #0]
  uint32_t tmpccmrx;
  uint32_t tmpccer;
  uint32_t tmpcr2;

  /* Disable the Channel 1: Reset the CC1E Bit */
  TIMx->CCER &= ~TIM_CCER_CC1E;
 8004f92:	687b      	ldr	r3, [r7, #4]
 8004f94:	6a1b      	ldr	r3, [r3, #32]
 8004f96:	f023 0201 	bic.w	r2, r3, #1
 8004f9a:	687b      	ldr	r3, [r7, #4]
 8004f9c:	621a      	str	r2, [r3, #32]

  /* Get the TIMx CCER register value */
  tmpccer = TIMx->CCER;
 8004f9e:	687b      	ldr	r3, [r7, #4]
 8004fa0:	6a1b      	ldr	r3, [r3, #32]
 8004fa2:	617b      	str	r3, [r7, #20]
  /* Get the TIMx CR2 register value */
  tmpcr2 =  TIMx->CR2;
 8004fa4:	687b      	ldr	r3, [r7, #4]
 8004fa6:	685b      	ldr	r3, [r3, #4]
 8004fa8:	613b      	str	r3, [r7, #16]

  /* Get the TIMx CCMR1 register value */
  tmpccmrx = TIMx->CCMR1;
 8004faa:	687b      	ldr	r3, [r7, #4]
 8004fac:	699b      	ldr	r3, [r3, #24]
 8004fae:	60fb      	str	r3, [r7, #12]

  /* Reset the Output Compare Mode Bits */
  tmpccmrx &= ~TIM_CCMR1_OC1M;
 8004fb0:	68fb      	ldr	r3, [r7, #12]
 8004fb2:	f423 3380 	bic.w	r3, r3, #65536	; 0x10000
 8004fb6:	f023 0370 	bic.w	r3, r3, #112	; 0x70
 8004fba:	60fb      	str	r3, [r7, #12]
  tmpccmrx &= ~TIM_CCMR1_CC1S;
 8004fbc:	68fb      	ldr	r3, [r7, #12]
 8004fbe:	f023 0303 	bic.w	r3, r3, #3
 8004fc2:	60fb      	str	r3, [r7, #12]
  /* Select the Output Compare Mode */
  tmpccmrx |= OC_Config->OCMode;
 8004fc4:	683b      	ldr	r3, [r7, #0]
 8004fc6:	681b      	ldr	r3, [r3, #0]
 8004fc8:	68fa      	ldr	r2, [r7, #12]
 8004fca:	4313      	orrs	r3, r2
 8004fcc:	60fb      	str	r3, [r7, #12]

  /* Reset the Output Polarity level */
  tmpccer &= ~TIM_CCER_CC1P;
 8004fce:	697b      	ldr	r3, [r7, #20]
 8004fd0:	f023 0302 	bic.w	r3, r3, #2
 8004fd4:	617b      	str	r3, [r7, #20]
  /* Set the Output Compare Polarity */
  tmpccer |= OC_Config->OCPolarity;
 8004fd6:	683b      	ldr	r3, [r7, #0]
 8004fd8:	689b      	ldr	r3, [r3, #8]
 8004fda:	697a      	ldr	r2, [r7, #20]
 8004fdc:	4313      	orrs	r3, r2
 8004fde:	617b      	str	r3, [r7, #20]

  if (IS_TIM_CCXN_INSTANCE(TIMx, TIM_CHANNEL_1))
 8004fe0:	687b      	ldr	r3, [r7, #4]
 8004fe2:	4a28      	ldr	r2, [pc, #160]	; (8005084 <TIM_OC1_SetConfig+0xfc>)
 8004fe4:	4293      	cmp	r3, r2
 8004fe6:	d00b      	beq.n	8005000 <TIM_OC1_SetConfig+0x78>
 8004fe8:	687b      	ldr	r3, [r7, #4]
 8004fea:	4a27      	ldr	r2, [pc, #156]	; (8005088 <TIM_OC1_SetConfig+0x100>)
 8004fec:	4293      	cmp	r3, r2
 8004fee:	d007      	beq.n	8005000 <TIM_OC1_SetConfig+0x78>
 8004ff0:	687b      	ldr	r3, [r7, #4]
 8004ff2:	4a26      	ldr	r2, [pc, #152]	; (800508c <TIM_OC1_SetConfig+0x104>)
 8004ff4:	4293      	cmp	r3, r2
 8004ff6:	d003      	beq.n	8005000 <TIM_OC1_SetConfig+0x78>
 8004ff8:	687b      	ldr	r3, [r7, #4]
 8004ffa:	4a25      	ldr	r2, [pc, #148]	; (8005090 <TIM_OC1_SetConfig+0x108>)
 8004ffc:	4293      	cmp	r3, r2
 8004ffe:	d10c      	bne.n	800501a <TIM_OC1_SetConfig+0x92>
  {
    /* Check parameters */
    assert_param(IS_TIM_OCN_POLARITY(OC_Config->OCNPolarity));

    /* Reset the Output N Polarity level */
    tmpccer &= ~TIM_CCER_CC1NP;
 8005000:	697b      	ldr	r3, [r7, #20]
 8005002:	f023 0308 	bic.w	r3, r3, #8
 8005006:	617b      	str	r3, [r7, #20]
    /* Set the Output N Polarity */
    tmpccer |= OC_Config->OCNPolarity;
 8005008:	683b      	ldr	r3, [r7, #0]
 800500a:	68db      	ldr	r3, [r3, #12]
 800500c:	697a      	ldr	r2, [r7, #20]
 800500e:	4313      	orrs	r3, r2
 8005010:	617b      	str	r3, [r7, #20]
    /* Reset the Output N State */
    tmpccer &= ~TIM_CCER_CC1NE;
 8005012:	697b      	ldr	r3, [r7, #20]
 8005014:	f023 0304 	bic.w	r3, r3, #4
 8005018:	617b      	str	r3, [r7, #20]
  }

  if (IS_TIM_BREAK_INSTANCE(TIMx))
 800501a:	687b      	ldr	r3, [r7, #4]
 800501c:	4a19      	ldr	r2, [pc, #100]	; (8005084 <TIM_OC1_SetConfig+0xfc>)
 800501e:	4293      	cmp	r3, r2
 8005020:	d00b      	beq.n	800503a <TIM_OC1_SetConfig+0xb2>
 8005022:	687b      	ldr	r3, [r7, #4]
 8005024:	4a18      	ldr	r2, [pc, #96]	; (8005088 <TIM_OC1_SetConfig+0x100>)
 8005026:	4293      	cmp	r3, r2
 8005028:	d007      	beq.n	800503a <TIM_OC1_SetConfig+0xb2>
 800502a:	687b      	ldr	r3, [r7, #4]
 800502c:	4a17      	ldr	r2, [pc, #92]	; (800508c <TIM_OC1_SetConfig+0x104>)
 800502e:	4293      	cmp	r3, r2
 8005030:	d003      	beq.n	800503a <TIM_OC1_SetConfig+0xb2>
 8005032:	687b      	ldr	r3, [r7, #4]
 8005034:	4a16      	ldr	r2, [pc, #88]	; (8005090 <TIM_OC1_SetConfig+0x108>)
 8005036:	4293      	cmp	r3, r2
 8005038:	d111      	bne.n	800505e <TIM_OC1_SetConfig+0xd6>
    /* Check parameters */
    assert_param(IS_TIM_OCNIDLE_STATE(OC_Config->OCNIdleState));
    assert_param(IS_TIM_OCIDLE_STATE(OC_Config->OCIdleState));

    /* Reset the Output Compare and Output Compare N IDLE State */
    tmpcr2 &= ~TIM_CR2_OIS1;
 800503a:	693b      	ldr	r3, [r7, #16]
 800503c:	f423 7380 	bic.w	r3, r3, #256	; 0x100
 8005040:	613b      	str	r3, [r7, #16]
    tmpcr2 &= ~TIM_CR2_OIS1N;
 8005042:	693b      	ldr	r3, [r7, #16]
 8005044:	f423 7300 	bic.w	r3, r3, #512	; 0x200
 8005048:	613b      	str	r3, [r7, #16]
    /* Set the Output Idle state */
    tmpcr2 |= OC_Config->OCIdleState;
 800504a:	683b      	ldr	r3, [r7, #0]
 800504c:	695b      	ldr	r3, [r3, #20]
 800504e:	693a      	ldr	r2, [r7, #16]
 8005050:	4313      	orrs	r3, r2
 8005052:	613b      	str	r3, [r7, #16]
    /* Set the Output N Idle state */
    tmpcr2 |= OC_Config->OCNIdleState;
 8005054:	683b      	ldr	r3, [r7, #0]
 8005056:	699b      	ldr	r3, [r3, #24]
 8005058:	693a      	ldr	r2, [r7, #16]
 800505a:	4313      	orrs	r3, r2
 800505c:	613b      	str	r3, [r7, #16]
  }

  /* Write to TIMx CR2 */
  TIMx->CR2 = tmpcr2;
 800505e:	687b      	ldr	r3, [r7, #4]
 8005060:	693a      	ldr	r2, [r7, #16]
 8005062:	605a      	str	r2, [r3, #4]

  /* Write to TIMx CCMR1 */
  TIMx->CCMR1 = tmpccmrx;
 8005064:	687b      	ldr	r3, [r7, #4]
 8005066:	68fa      	ldr	r2, [r7, #12]
 8005068:	619a      	str	r2, [r3, #24]

  /* Set the Capture Compare Register value */
  TIMx->CCR1 = OC_Config->Pulse;
 800506a:	683b      	ldr	r3, [r7, #0]
 800506c:	685a      	ldr	r2, [r3, #4]
 800506e:	687b      	ldr	r3, [r7, #4]
 8005070:	635a      	str	r2, [r3, #52]	; 0x34

  /* Write to TIMx CCER */
  TIMx->CCER = tmpccer;
 8005072:	687b      	ldr	r3, [r7, #4]
 8005074:	697a      	ldr	r2, [r7, #20]
 8005076:	621a      	str	r2, [r3, #32]
}
 8005078:	bf00      	nop
 800507a:	371c      	adds	r7, #28
 800507c:	46bd      	mov	sp, r7
 800507e:	f85d 7b04 	ldr.w	r7, [sp], #4
 8005082:	4770      	bx	lr
 8005084:	40012c00 	.word	0x40012c00
 8005088:	40014000 	.word	0x40014000
 800508c:	40014400 	.word	0x40014400
 8005090:	40014800 	.word	0x40014800

08005094 <TIM_OC2_SetConfig>:
  * @param  TIMx to select the TIM peripheral
  * @param  OC_Config The output configuration structure
  * @retval None
  */
void TIM_OC2_SetConfig(TIM_TypeDef *TIMx, const TIM_OC_InitTypeDef *OC_Config)
{
 8005094:	b480      	push	{r7}
 8005096:	b087      	sub	sp, #28
 8005098:	af00      	add	r7, sp, #0
 800509a:	6078      	str	r0, [r7, #4]
 800509c:	6039      	str	r1, [r7, #0]
  uint32_t tmpccmrx;
  uint32_t tmpccer;
  uint32_t tmpcr2;

  /* Disable the Channel 2: Reset the CC2E Bit */
  TIMx->CCER &= ~TIM_CCER_CC2E;
 800509e:	687b      	ldr	r3, [r7, #4]
 80050a0:	6a1b      	ldr	r3, [r3, #32]
 80050a2:	f023 0210 	bic.w	r2, r3, #16
 80050a6:	687b      	ldr	r3, [r7, #4]
 80050a8:	621a      	str	r2, [r3, #32]

  /* Get the TIMx CCER register value */
  tmpccer = TIMx->CCER;
 80050aa:	687b      	ldr	r3, [r7, #4]
 80050ac:	6a1b      	ldr	r3, [r3, #32]
 80050ae:	617b      	str	r3, [r7, #20]
  /* Get the TIMx CR2 register value */
  tmpcr2 =  TIMx->CR2;
 80050b0:	687b      	ldr	r3, [r7, #4]
 80050b2:	685b      	ldr	r3, [r3, #4]
 80050b4:	613b      	str	r3, [r7, #16]

  /* Get the TIMx CCMR1 register value */
  tmpccmrx = TIMx->CCMR1;
 80050b6:	687b      	ldr	r3, [r7, #4]
 80050b8:	699b      	ldr	r3, [r3, #24]
 80050ba:	60fb      	str	r3, [r7, #12]

  /* Reset the Output Compare mode and Capture/Compare selection Bits */
  tmpccmrx &= ~TIM_CCMR1_OC2M;
 80050bc:	68fb      	ldr	r3, [r7, #12]
 80050be:	f023 7380 	bic.w	r3, r3, #16777216	; 0x1000000
 80050c2:	f423 43e0 	bic.w	r3, r3, #28672	; 0x7000
 80050c6:	60fb      	str	r3, [r7, #12]
  tmpccmrx &= ~TIM_CCMR1_CC2S;
 80050c8:	68fb      	ldr	r3, [r7, #12]
 80050ca:	f423 7340 	bic.w	r3, r3, #768	; 0x300
 80050ce:	60fb      	str	r3, [r7, #12]

  /* Select the Output Compare Mode */
  tmpccmrx |= (OC_Config->OCMode << 8U);
 80050d0:	683b      	ldr	r3, [r7, #0]
 80050d2:	681b      	ldr	r3, [r3, #0]
 80050d4:	021b      	lsls	r3, r3, #8
 80050d6:	68fa      	ldr	r2, [r7, #12]
 80050d8:	4313      	orrs	r3, r2
 80050da:	60fb      	str	r3, [r7, #12]

  /* Reset the Output Polarity level */
  tmpccer &= ~TIM_CCER_CC2P;
 80050dc:	697b      	ldr	r3, [r7, #20]
 80050de:	f023 0320 	bic.w	r3, r3, #32
 80050e2:	617b      	str	r3, [r7, #20]
  /* Set the Output Compare Polarity */
  tmpccer |= (OC_Config->OCPolarity << 4U);
 80050e4:	683b      	ldr	r3, [r7, #0]
 80050e6:	689b      	ldr	r3, [r3, #8]
 80050e8:	011b      	lsls	r3, r3, #4
 80050ea:	697a      	ldr	r2, [r7, #20]
 80050ec:	4313      	orrs	r3, r2
 80050ee:	617b      	str	r3, [r7, #20]

  if (IS_TIM_CCXN_INSTANCE(TIMx, TIM_CHANNEL_2))
 80050f0:	687b      	ldr	r3, [r7, #4]
 80050f2:	4a24      	ldr	r2, [pc, #144]	; (8005184 <TIM_OC2_SetConfig+0xf0>)
 80050f4:	4293      	cmp	r3, r2
 80050f6:	d10d      	bne.n	8005114 <TIM_OC2_SetConfig+0x80>
  {
    assert_param(IS_TIM_OCN_POLARITY(OC_Config->OCNPolarity));

    /* Reset the Output N Polarity level */
    tmpccer &= ~TIM_CCER_CC2NP;
 80050f8:	697b      	ldr	r3, [r7, #20]
 80050fa:	f023 0380 	bic.w	r3, r3, #128	; 0x80
 80050fe:	617b      	str	r3, [r7, #20]
    /* Set the Output N Polarity */
    tmpccer |= (OC_Config->OCNPolarity << 4U);
 8005100:	683b      	ldr	r3, [r7, #0]
 8005102:	68db      	ldr	r3, [r3, #12]
 8005104:	011b      	lsls	r3, r3, #4
 8005106:	697a      	ldr	r2, [r7, #20]
 8005108:	4313      	orrs	r3, r2
 800510a:	617b      	str	r3, [r7, #20]
    /* Reset the Output N State */
    tmpccer &= ~TIM_CCER_CC2NE;
 800510c:	697b      	ldr	r3, [r7, #20]
 800510e:	f023 0340 	bic.w	r3, r3, #64	; 0x40
 8005112:	617b      	str	r3, [r7, #20]

  }

  if (IS_TIM_BREAK_INSTANCE(TIMx))
 8005114:	687b      	ldr	r3, [r7, #4]
 8005116:	4a1b      	ldr	r2, [pc, #108]	; (8005184 <TIM_OC2_SetConfig+0xf0>)
 8005118:	4293      	cmp	r3, r2
 800511a:	d00b      	beq.n	8005134 <TIM_OC2_SetConfig+0xa0>
 800511c:	687b      	ldr	r3, [r7, #4]
 800511e:	4a1a      	ldr	r2, [pc, #104]	; (8005188 <TIM_OC2_SetConfig+0xf4>)
 8005120:	4293      	cmp	r3, r2
 8005122:	d007      	beq.n	8005134 <TIM_OC2_SetConfig+0xa0>
 8005124:	687b      	ldr	r3, [r7, #4]
 8005126:	4a19      	ldr	r2, [pc, #100]	; (800518c <TIM_OC2_SetConfig+0xf8>)
 8005128:	4293      	cmp	r3, r2
 800512a:	d003      	beq.n	8005134 <TIM_OC2_SetConfig+0xa0>
 800512c:	687b      	ldr	r3, [r7, #4]
 800512e:	4a18      	ldr	r2, [pc, #96]	; (8005190 <TIM_OC2_SetConfig+0xfc>)
 8005130:	4293      	cmp	r3, r2
 8005132:	d113      	bne.n	800515c <TIM_OC2_SetConfig+0xc8>
    /* Check parameters */
    assert_param(IS_TIM_OCNIDLE_STATE(OC_Config->OCNIdleState));
    assert_param(IS_TIM_OCIDLE_STATE(OC_Config->OCIdleState));

    /* Reset the Output Compare and Output Compare N IDLE State */
    tmpcr2 &= ~TIM_CR2_OIS2;
 8005134:	693b      	ldr	r3, [r7, #16]
 8005136:	f423 6380 	bic.w	r3, r3, #1024	; 0x400
 800513a:	613b      	str	r3, [r7, #16]
#if defined(TIM_CR2_OIS2N)
    tmpcr2 &= ~TIM_CR2_OIS2N;
 800513c:	693b      	ldr	r3, [r7, #16]
 800513e:	f423 6300 	bic.w	r3, r3, #2048	; 0x800
 8005142:	613b      	str	r3, [r7, #16]
#endif /* TIM_CR2_OIS2N */
    /* Set the Output Idle state */
    tmpcr2 |= (OC_Config->OCIdleState << 2U);
 8005144:	683b      	ldr	r3, [r7, #0]
 8005146:	695b      	ldr	r3, [r3, #20]
 8005148:	009b      	lsls	r3, r3, #2
 800514a:	693a      	ldr	r2, [r7, #16]
 800514c:	4313      	orrs	r3, r2
 800514e:	613b      	str	r3, [r7, #16]
    /* Set the Output N Idle state */
    tmpcr2 |= (OC_Config->OCNIdleState << 2U);
 8005150:	683b      	ldr	r3, [r7, #0]
 8005152:	699b      	ldr	r3, [r3, #24]
 8005154:	009b      	lsls	r3, r3, #2
 8005156:	693a      	ldr	r2, [r7, #16]
 8005158:	4313      	orrs	r3, r2
 800515a:	613b      	str	r3, [r7, #16]
  }

  /* Write to TIMx CR2 */
  TIMx->CR2 = tmpcr2;
 800515c:	687b      	ldr	r3, [r7, #4]
 800515e:	693a      	ldr	r2, [r7, #16]
 8005160:	605a      	str	r2, [r3, #4]

  /* Write to TIMx CCMR1 */
  TIMx->CCMR1 = tmpccmrx;
 8005162:	687b      	ldr	r3, [r7, #4]
 8005164:	68fa      	ldr	r2, [r7, #12]
 8005166:	619a      	str	r2, [r3, #24]

  /* Set the Capture Compare Register value */
  TIMx->CCR2 = OC_Config->Pulse;
 8005168:	683b      	ldr	r3, [r7, #0]
 800516a:	685a      	ldr	r2, [r3, #4]
 800516c:	687b      	ldr	r3, [r7, #4]
 800516e:	639a      	str	r2, [r3, #56]	; 0x38

  /* Write to TIMx CCER */
  TIMx->CCER = tmpccer;
 8005170:	687b      	ldr	r3, [r7, #4]
 8005172:	697a      	ldr	r2, [r7, #20]
 8005174:	621a      	str	r2, [r3, #32]
}
 8005176:	bf00      	nop
 8005178:	371c      	adds	r7, #28
 800517a:	46bd      	mov	sp, r7
 800517c:	f85d 7b04 	ldr.w	r7, [sp], #4
 8005180:	4770      	bx	lr
 8005182:	bf00      	nop
 8005184:	40012c00 	.word	0x40012c00
 8005188:	40014000 	.word	0x40014000
 800518c:	40014400 	.word	0x40014400
 8005190:	40014800 	.word	0x40014800

08005194 <TIM_OC3_SetConfig>:
  * @param  TIMx to select the TIM peripheral
  * @param  OC_Config The output configuration structure
  * @retval None
  */
static void TIM_OC3_SetConfig(TIM_TypeDef *TIMx, const TIM_OC_InitTypeDef *OC_Config)
{
 8005194:	b480      	push	{r7}
 8005196:	b087      	sub	sp, #28
 8005198:	af00      	add	r7, sp, #0
 800519a:	6078      	str	r0, [r7, #4]
 800519c:	6039      	str	r1, [r7, #0]
  uint32_t tmpccmrx;
  uint32_t tmpccer;
  uint32_t tmpcr2;

  /* Disable the Channel 3: Reset the CC2E Bit */
  TIMx->CCER &= ~TIM_CCER_CC3E;
 800519e:	687b      	ldr	r3, [r7, #4]
 80051a0:	6a1b      	ldr	r3, [r3, #32]
 80051a2:	f423 7280 	bic.w	r2, r3, #256	; 0x100
 80051a6:	687b      	ldr	r3, [r7, #4]
 80051a8:	621a      	str	r2, [r3, #32]

  /* Get the TIMx CCER register value */
  tmpccer = TIMx->CCER;
 80051aa:	687b      	ldr	r3, [r7, #4]
 80051ac:	6a1b      	ldr	r3, [r3, #32]
 80051ae:	617b      	str	r3, [r7, #20]
  /* Get the TIMx CR2 register value */
  tmpcr2 =  TIMx->CR2;
 80051b0:	687b      	ldr	r3, [r7, #4]
 80051b2:	685b      	ldr	r3, [r3, #4]
 80051b4:	613b      	str	r3, [r7, #16]

  /* Get the TIMx CCMR2 register value */
  tmpccmrx = TIMx->CCMR2;
 80051b6:	687b      	ldr	r3, [r7, #4]
 80051b8:	69db      	ldr	r3, [r3, #28]
 80051ba:	60fb      	str	r3, [r7, #12]

  /* Reset the Output Compare mode and Capture/Compare selection Bits */
  tmpccmrx &= ~TIM_CCMR2_OC3M;
 80051bc:	68fb      	ldr	r3, [r7, #12]
 80051be:	f423 3380 	bic.w	r3, r3, #65536	; 0x10000
 80051c2:	f023 0370 	bic.w	r3, r3, #112	; 0x70
 80051c6:	60fb      	str	r3, [r7, #12]
  tmpccmrx &= ~TIM_CCMR2_CC3S;
 80051c8:	68fb      	ldr	r3, [r7, #12]
 80051ca:	f023 0303 	bic.w	r3, r3, #3
 80051ce:	60fb      	str	r3, [r7, #12]
  /* Select the Output Compare Mode */
  tmpccmrx |= OC_Config->OCMode;
 80051d0:	683b      	ldr	r3, [r7, #0]
 80051d2:	681b      	ldr	r3, [r3, #0]
 80051d4:	68fa      	ldr	r2, [r7, #12]
 80051d6:	4313      	orrs	r3, r2
 80051d8:	60fb      	str	r3, [r7, #12]

  /* Reset the Output Polarity level */
  tmpccer &= ~TIM_CCER_CC3P;
 80051da:	697b      	ldr	r3, [r7, #20]
 80051dc:	f423 7300 	bic.w	r3, r3, #512	; 0x200
 80051e0:	617b      	str	r3, [r7, #20]
  /* Set the Output Compare Polarity */
  tmpccer |= (OC_Config->OCPolarity << 8U);
 80051e2:	683b      	ldr	r3, [r7, #0]
 80051e4:	689b      	ldr	r3, [r3, #8]
 80051e6:	021b      	lsls	r3, r3, #8
 80051e8:	697a      	ldr	r2, [r7, #20]
 80051ea:	4313      	orrs	r3, r2
 80051ec:	617b      	str	r3, [r7, #20]

  if (IS_TIM_CCXN_INSTANCE(TIMx, TIM_CHANNEL_3))
 80051ee:	687b      	ldr	r3, [r7, #4]
 80051f0:	4a23      	ldr	r2, [pc, #140]	; (8005280 <TIM_OC3_SetConfig+0xec>)
 80051f2:	4293      	cmp	r3, r2
 80051f4:	d10d      	bne.n	8005212 <TIM_OC3_SetConfig+0x7e>
  {
    assert_param(IS_TIM_OCN_POLARITY(OC_Config->OCNPolarity));

    /* Reset the Output N Polarity level */
    tmpccer &= ~TIM_CCER_CC3NP;
 80051f6:	697b      	ldr	r3, [r7, #20]
 80051f8:	f423 6300 	bic.w	r3, r3, #2048	; 0x800
 80051fc:	617b      	str	r3, [r7, #20]
    /* Set the Output N Polarity */
    tmpccer |= (OC_Config->OCNPolarity << 8U);
 80051fe:	683b      	ldr	r3, [r7, #0]
 8005200:	68db      	ldr	r3, [r3, #12]
 8005202:	021b      	lsls	r3, r3, #8
 8005204:	697a      	ldr	r2, [r7, #20]
 8005206:	4313      	orrs	r3, r2
 8005208:	617b      	str	r3, [r7, #20]
    /* Reset the Output N State */
    tmpccer &= ~TIM_CCER_CC3NE;
 800520a:	697b      	ldr	r3, [r7, #20]
 800520c:	f423 6380 	bic.w	r3, r3, #1024	; 0x400
 8005210:	617b      	str	r3, [r7, #20]
  }

#if defined(TIM_CR2_OIS3)
  if (IS_TIM_BREAK_INSTANCE(TIMx))
 8005212:	687b      	ldr	r3, [r7, #4]
 8005214:	4a1a      	ldr	r2, [pc, #104]	; (8005280 <TIM_OC3_SetConfig+0xec>)
 8005216:	4293      	cmp	r3, r2
 8005218:	d00b      	beq.n	8005232 <TIM_OC3_SetConfig+0x9e>
 800521a:	687b      	ldr	r3, [r7, #4]
 800521c:	4a19      	ldr	r2, [pc, #100]	; (8005284 <TIM_OC3_SetConfig+0xf0>)
 800521e:	4293      	cmp	r3, r2
 8005220:	d007      	beq.n	8005232 <TIM_OC3_SetConfig+0x9e>
 8005222:	687b      	ldr	r3, [r7, #4]
 8005224:	4a18      	ldr	r2, [pc, #96]	; (8005288 <TIM_OC3_SetConfig+0xf4>)
 8005226:	4293      	cmp	r3, r2
 8005228:	d003      	beq.n	8005232 <TIM_OC3_SetConfig+0x9e>
 800522a:	687b      	ldr	r3, [r7, #4]
 800522c:	4a17      	ldr	r2, [pc, #92]	; (800528c <TIM_OC3_SetConfig+0xf8>)
 800522e:	4293      	cmp	r3, r2
 8005230:	d113      	bne.n	800525a <TIM_OC3_SetConfig+0xc6>
    /* Check parameters */
    assert_param(IS_TIM_OCNIDLE_STATE(OC_Config->OCNIdleState));
    assert_param(IS_TIM_OCIDLE_STATE(OC_Config->OCIdleState));

    /* Reset the Output Compare and Output Compare N IDLE State */
    tmpcr2 &= ~TIM_CR2_OIS3;
 8005232:	693b      	ldr	r3, [r7, #16]
 8005234:	f423 5380 	bic.w	r3, r3, #4096	; 0x1000
 8005238:	613b      	str	r3, [r7, #16]
    tmpcr2 &= ~TIM_CR2_OIS3N;
 800523a:	693b      	ldr	r3, [r7, #16]
 800523c:	f423 5300 	bic.w	r3, r3, #8192	; 0x2000
 8005240:	613b      	str	r3, [r7, #16]
    /* Set the Output Idle state */
    tmpcr2 |= (OC_Config->OCIdleState << 4U);
 8005242:	683b      	ldr	r3, [r7, #0]
 8005244:	695b      	ldr	r3, [r3, #20]
 8005246:	011b      	lsls	r3, r3, #4
 8005248:	693a      	ldr	r2, [r7, #16]
 800524a:	4313      	orrs	r3, r2
 800524c:	613b      	str	r3, [r7, #16]
    /* Set the Output N Idle state */
    tmpcr2 |= (OC_Config->OCNIdleState << 4U);
 800524e:	683b      	ldr	r3, [r7, #0]
 8005250:	699b      	ldr	r3, [r3, #24]
 8005252:	011b      	lsls	r3, r3, #4
 8005254:	693a      	ldr	r2, [r7, #16]
 8005256:	4313      	orrs	r3, r2
 8005258:	613b      	str	r3, [r7, #16]
  }
#endif /* TIM_CR2_OIS3 */

  /* Write to TIMx CR2 */
  TIMx->CR2 = tmpcr2;
 800525a:	687b      	ldr	r3, [r7, #4]
 800525c:	693a      	ldr	r2, [r7, #16]
 800525e:	605a      	str	r2, [r3, #4]

  /* Write to TIMx CCMR2 */
  TIMx->CCMR2 = tmpccmrx;
 8005260:	687b      	ldr	r3, [r7, #4]
 8005262:	68fa      	ldr	r2, [r7, #12]
 8005264:	61da      	str	r2, [r3, #28]

  /* Set the Capture Compare Register value */
  TIMx->CCR3 = OC_Config->Pulse;
 8005266:	683b      	ldr	r3, [r7, #0]
 8005268:	685a      	ldr	r2, [r3, #4]
 800526a:	687b      	ldr	r3, [r7, #4]
 800526c:	63da      	str	r2, [r3, #60]	; 0x3c

  /* Write to TIMx CCER */
  TIMx->CCER = tmpccer;
 800526e:	687b      	ldr	r3, [r7, #4]
 8005270:	697a      	ldr	r2, [r7, #20]
 8005272:	621a      	str	r2, [r3, #32]
}
 8005274:	bf00      	nop
 8005276:	371c      	adds	r7, #28
 8005278:	46bd      	mov	sp, r7
 800527a:	f85d 7b04 	ldr.w	r7, [sp], #4
 800527e:	4770      	bx	lr
 8005280:	40012c00 	.word	0x40012c00
 8005284:	40014000 	.word	0x40014000
 8005288:	40014400 	.word	0x40014400
 800528c:	40014800 	.word	0x40014800

08005290 <TIM_OC4_SetConfig>:
  * @param  TIMx to select the TIM peripheral
  * @param  OC_Config The output configuration structure
  * @retval None
  */
static void TIM_OC4_SetConfig(TIM_TypeDef *TIMx, const TIM_OC_InitTypeDef *OC_Config)
{
 8005290:	b480      	push	{r7}
 8005292:	b087      	sub	sp, #28
 8005294:	af00      	add	r7, sp, #0
 8005296:	6078      	str	r0, [r7, #4]
 8005298:	6039      	str	r1, [r7, #0]
  uint32_t tmpccmrx;
  uint32_t tmpccer;
  uint32_t tmpcr2;

  /* Disable the Channel 4: Reset the CC4E Bit */
  TIMx->CCER &= ~TIM_CCER_CC4E;
 800529a:	687b      	ldr	r3, [r7, #4]
 800529c:	6a1b      	ldr	r3, [r3, #32]
 800529e:	f423 5280 	bic.w	r2, r3, #4096	; 0x1000
 80052a2:	687b      	ldr	r3, [r7, #4]
 80052a4:	621a      	str	r2, [r3, #32]

  /* Get the TIMx CCER register value */
  tmpccer = TIMx->CCER;
 80052a6:	687b      	ldr	r3, [r7, #4]
 80052a8:	6a1b      	ldr	r3, [r3, #32]
 80052aa:	613b      	str	r3, [r7, #16]
  /* Get the TIMx CR2 register value */
  tmpcr2 =  TIMx->CR2;
 80052ac:	687b      	ldr	r3, [r7, #4]
 80052ae:	685b      	ldr	r3, [r3, #4]
 80052b0:	617b      	str	r3, [r7, #20]

  /* Get the TIMx CCMR2 register value */
  tmpccmrx = TIMx->CCMR2;
 80052b2:	687b      	ldr	r3, [r7, #4]
 80052b4:	69db      	ldr	r3, [r3, #28]
 80052b6:	60fb      	str	r3, [r7, #12]

  /* Reset the Output Compare mode and Capture/Compare selection Bits */
  tmpccmrx &= ~TIM_CCMR2_OC4M;
 80052b8:	68fb      	ldr	r3, [r7, #12]
 80052ba:	f023 7380 	bic.w	r3, r3, #16777216	; 0x1000000
 80052be:	f423 43e0 	bic.w	r3, r3, #28672	; 0x7000
 80052c2:	60fb      	str	r3, [r7, #12]
  tmpccmrx &= ~TIM_CCMR2_CC4S;
 80052c4:	68fb      	ldr	r3, [r7, #12]
 80052c6:	f423 7340 	bic.w	r3, r3, #768	; 0x300
 80052ca:	60fb      	str	r3, [r7, #12]

  /* Select the Output Compare Mode */
  tmpccmrx |= (OC_Config->OCMode << 8U);
 80052cc:	683b      	ldr	r3, [r7, #0]
 80052ce:	681b      	ldr	r3, [r3, #0]
 80052d0:	021b      	lsls	r3, r3, #8
 80052d2:	68fa      	ldr	r2, [r7, #12]
 80052d4:	4313      	orrs	r3, r2
 80052d6:	60fb      	str	r3, [r7, #12]

  /* Reset the Output Polarity level */
  tmpccer &= ~TIM_CCER_CC4P;
 80052d8:	693b      	ldr	r3, [r7, #16]
 80052da:	f423 5300 	bic.w	r3, r3, #8192	; 0x2000
 80052de:	613b      	str	r3, [r7, #16]
  /* Set the Output Compare Polarity */
  tmpccer |= (OC_Config->OCPolarity << 12U);
 80052e0:	683b      	ldr	r3, [r7, #0]
 80052e2:	689b      	ldr	r3, [r3, #8]
 80052e4:	031b      	lsls	r3, r3, #12
 80052e6:	693a      	ldr	r2, [r7, #16]
 80052e8:	4313      	orrs	r3, r2
 80052ea:	613b      	str	r3, [r7, #16]

#if defined(TIM_CR2_OIS4)
  if (IS_TIM_BREAK_INSTANCE(TIMx))
 80052ec:	687b      	ldr	r3, [r7, #4]
 80052ee:	4a16      	ldr	r2, [pc, #88]	; (8005348 <TIM_OC4_SetConfig+0xb8>)
 80052f0:	4293      	cmp	r3, r2
 80052f2:	d00b      	beq.n	800530c <TIM_OC4_SetConfig+0x7c>
 80052f4:	687b      	ldr	r3, [r7, #4]
 80052f6:	4a15      	ldr	r2, [pc, #84]	; (800534c <TIM_OC4_SetConfig+0xbc>)
 80052f8:	4293      	cmp	r3, r2
 80052fa:	d007      	beq.n	800530c <TIM_OC4_SetConfig+0x7c>
 80052fc:	687b      	ldr	r3, [r7, #4]
 80052fe:	4a14      	ldr	r2, [pc, #80]	; (8005350 <TIM_OC4_SetConfig+0xc0>)
 8005300:	4293      	cmp	r3, r2
 8005302:	d003      	beq.n	800530c <TIM_OC4_SetConfig+0x7c>
 8005304:	687b      	ldr	r3, [r7, #4]
 8005306:	4a13      	ldr	r2, [pc, #76]	; (8005354 <TIM_OC4_SetConfig+0xc4>)
 8005308:	4293      	cmp	r3, r2
 800530a:	d109      	bne.n	8005320 <TIM_OC4_SetConfig+0x90>
  {
    /* Check parameters */
    assert_param(IS_TIM_OCIDLE_STATE(OC_Config->OCIdleState));

    /* Reset the Output Compare IDLE State */
    tmpcr2 &= ~TIM_CR2_OIS4;
 800530c:	697b      	ldr	r3, [r7, #20]
 800530e:	f423 4380 	bic.w	r3, r3, #16384	; 0x4000
 8005312:	617b      	str	r3, [r7, #20]

    /* Set the Output Idle state */
    tmpcr2 |= (OC_Config->OCIdleState << 6U);
 8005314:	683b      	ldr	r3, [r7, #0]
 8005316:	695b      	ldr	r3, [r3, #20]
 8005318:	019b      	lsls	r3, r3, #6
 800531a:	697a      	ldr	r2, [r7, #20]
 800531c:	4313      	orrs	r3, r2
 800531e:	617b      	str	r3, [r7, #20]
  }
#endif /* TIM_CR2_OIS4 */

  /* Write to TIMx CR2 */
  TIMx->CR2 = tmpcr2;
 8005320:	687b      	ldr	r3, [r7, #4]
 8005322:	697a      	ldr	r2, [r7, #20]
 8005324:	605a      	str	r2, [r3, #4]

  /* Write to TIMx CCMR2 */
  TIMx->CCMR2 = tmpccmrx;
 8005326:	687b      	ldr	r3, [r7, #4]
 8005328:	68fa      	ldr	r2, [r7, #12]
 800532a:	61da      	str	r2, [r3, #28]

  /* Set the Capture Compare Register value */
  TIMx->CCR4 = OC_Config->Pulse;
 800532c:	683b      	ldr	r3, [r7, #0]
 800532e:	685a      	ldr	r2, [r3, #4]
 8005330:	687b      	ldr	r3, [r7, #4]
 8005332:	641a      	str	r2, [r3, #64]	; 0x40

  /* Write to TIMx CCER */
  TIMx->CCER = tmpccer;
 8005334:	687b      	ldr	r3, [r7, #4]
 8005336:	693a      	ldr	r2, [r7, #16]
 8005338:	621a      	str	r2, [r3, #32]
}
 800533a:	bf00      	nop
 800533c:	371c      	adds	r7, #28
 800533e:	46bd      	mov	sp, r7
 8005340:	f85d 7b04 	ldr.w	r7, [sp], #4
 8005344:	4770      	bx	lr
 8005346:	bf00      	nop
 8005348:	40012c00 	.word	0x40012c00
 800534c:	40014000 	.word	0x40014000
 8005350:	40014400 	.word	0x40014400
 8005354:	40014800 	.word	0x40014800

08005358 <TIM_OC5_SetConfig>:
  * @param  OC_Config The output configuration structure
  * @retval None
  */
static void TIM_OC5_SetConfig(TIM_TypeDef *TIMx,
                              const TIM_OC_InitTypeDef *OC_Config)
{
 8005358:	b480      	push	{r7}
 800535a:	b087      	sub	sp, #28
 800535c:	af00      	add	r7, sp, #0
 800535e:	6078      	str	r0, [r7, #4]
 8005360:	6039      	str	r1, [r7, #0]
  uint32_t tmpccmrx;
  uint32_t tmpccer;
  uint32_t tmpcr2;

  /* Disable the output: Reset the CCxE Bit */
  TIMx->CCER &= ~TIM_CCER_CC5E;
 8005362:	687b      	ldr	r3, [r7, #4]
 8005364:	6a1b      	ldr	r3, [r3, #32]
 8005366:	f423 3280 	bic.w	r2, r3, #65536	; 0x10000
 800536a:	687b      	ldr	r3, [r7, #4]
 800536c:	621a      	str	r2, [r3, #32]

  /* Get the TIMx CCER register value */
  tmpccer = TIMx->CCER;
 800536e:	687b      	ldr	r3, [r7, #4]
 8005370:	6a1b      	ldr	r3, [r3, #32]
 8005372:	613b      	str	r3, [r7, #16]
  /* Get the TIMx CR2 register value */
  tmpcr2 =  TIMx->CR2;
 8005374:	687b      	ldr	r3, [r7, #4]
 8005376:	685b      	ldr	r3, [r3, #4]
 8005378:	617b      	str	r3, [r7, #20]
  /* Get the TIMx CCMR1 register value */
  tmpccmrx = TIMx->CCMR3;
 800537a:	687b      	ldr	r3, [r7, #4]
 800537c:	6d5b      	ldr	r3, [r3, #84]	; 0x54
 800537e:	60fb      	str	r3, [r7, #12]

  /* Reset the Output Compare Mode Bits */
  tmpccmrx &= ~(TIM_CCMR3_OC5M);
 8005380:	68fb      	ldr	r3, [r7, #12]
 8005382:	f423 3380 	bic.w	r3, r3, #65536	; 0x10000
 8005386:	f023 0370 	bic.w	r3, r3, #112	; 0x70
 800538a:	60fb      	str	r3, [r7, #12]
  /* Select the Output Compare Mode */
  tmpccmrx |= OC_Config->OCMode;
 800538c:	683b      	ldr	r3, [r7, #0]
 800538e:	681b      	ldr	r3, [r3, #0]
 8005390:	68fa      	ldr	r2, [r7, #12]
 8005392:	4313      	orrs	r3, r2
 8005394:	60fb      	str	r3, [r7, #12]

  /* Reset the Output Polarity level */
  tmpccer &= ~TIM_CCER_CC5P;
 8005396:	693b      	ldr	r3, [r7, #16]
 8005398:	f423 3300 	bic.w	r3, r3, #131072	; 0x20000
 800539c:	613b      	str	r3, [r7, #16]
  /* Set the Output Compare Polarity */
  tmpccer |= (OC_Config->OCPolarity << 16U);
 800539e:	683b      	ldr	r3, [r7, #0]
 80053a0:	689b      	ldr	r3, [r3, #8]
 80053a2:	041b      	lsls	r3, r3, #16
 80053a4:	693a      	ldr	r2, [r7, #16]
 80053a6:	4313      	orrs	r3, r2
 80053a8:	613b      	str	r3, [r7, #16]

  if (IS_TIM_BREAK_INSTANCE(TIMx))
 80053aa:	687b      	ldr	r3, [r7, #4]
 80053ac:	4a15      	ldr	r2, [pc, #84]	; (8005404 <TIM_OC5_SetConfig+0xac>)
 80053ae:	4293      	cmp	r3, r2
 80053b0:	d00b      	beq.n	80053ca <TIM_OC5_SetConfig+0x72>
 80053b2:	687b      	ldr	r3, [r7, #4]
 80053b4:	4a14      	ldr	r2, [pc, #80]	; (8005408 <TIM_OC5_SetConfig+0xb0>)
 80053b6:	4293      	cmp	r3, r2
 80053b8:	d007      	beq.n	80053ca <TIM_OC5_SetConfig+0x72>
 80053ba:	687b      	ldr	r3, [r7, #4]
 80053bc:	4a13      	ldr	r2, [pc, #76]	; (800540c <TIM_OC5_SetConfig+0xb4>)
 80053be:	4293      	cmp	r3, r2
 80053c0:	d003      	beq.n	80053ca <TIM_OC5_SetConfig+0x72>
 80053c2:	687b      	ldr	r3, [r7, #4]
 80053c4:	4a12      	ldr	r2, [pc, #72]	; (8005410 <TIM_OC5_SetConfig+0xb8>)
 80053c6:	4293      	cmp	r3, r2
 80053c8:	d109      	bne.n	80053de <TIM_OC5_SetConfig+0x86>
  {
    /* Reset the Output Compare IDLE State */
    tmpcr2 &= ~TIM_CR2_OIS5;
 80053ca:	697b      	ldr	r3, [r7, #20]
 80053cc:	f423 3380 	bic.w	r3, r3, #65536	; 0x10000
 80053d0:	617b      	str	r3, [r7, #20]
    /* Set the Output Idle state */
    tmpcr2 |= (OC_Config->OCIdleState << 8U);
 80053d2:	683b      	ldr	r3, [r7, #0]
 80053d4:	695b      	ldr	r3, [r3, #20]
 80053d6:	021b      	lsls	r3, r3, #8
 80053d8:	697a      	ldr	r2, [r7, #20]
 80053da:	4313      	orrs	r3, r2
 80053dc:	617b      	str	r3, [r7, #20]
  }
  /* Write to TIMx CR2 */
  TIMx->CR2 = tmpcr2;
 80053de:	687b      	ldr	r3, [r7, #4]
 80053e0:	697a      	ldr	r2, [r7, #20]
 80053e2:	605a      	str	r2, [r3, #4]

  /* Write to TIMx CCMR3 */
  TIMx->CCMR3 = tmpccmrx;
 80053e4:	687b      	ldr	r3, [r7, #4]
 80053e6:	68fa      	ldr	r2, [r7, #12]
 80053e8:	655a      	str	r2, [r3, #84]	; 0x54

  /* Set the Capture Compare Register value */
  TIMx->CCR5 = OC_Config->Pulse;
 80053ea:	683b      	ldr	r3, [r7, #0]
 80053ec:	685a      	ldr	r2, [r3, #4]
 80053ee:	687b      	ldr	r3, [r7, #4]
 80053f0:	659a      	str	r2, [r3, #88]	; 0x58

  /* Write to TIMx CCER */
  TIMx->CCER = tmpccer;
 80053f2:	687b      	ldr	r3, [r7, #4]
 80053f4:	693a      	ldr	r2, [r7, #16]
 80053f6:	621a      	str	r2, [r3, #32]
}
 80053f8:	bf00      	nop
 80053fa:	371c      	adds	r7, #28
 80053fc:	46bd      	mov	sp, r7
 80053fe:	f85d 7b04 	ldr.w	r7, [sp], #4
 8005402:	4770      	bx	lr
 8005404:	40012c00 	.word	0x40012c00
 8005408:	40014000 	.word	0x40014000
 800540c:	40014400 	.word	0x40014400
 8005410:	40014800 	.word	0x40014800

08005414 <TIM_OC6_SetConfig>:
  * @param  OC_Config The output configuration structure
  * @retval None
  */
static void TIM_OC6_SetConfig(TIM_TypeDef *TIMx,
                              const TIM_OC_InitTypeDef *OC_Config)
{
 8005414:	b480      	push	{r7}
 8005416:	b087      	sub	sp, #28
 8005418:	af00      	add	r7, sp, #0
 800541a:	6078      	str	r0, [r7, #4]
 800541c:	6039      	str	r1, [r7, #0]
  uint32_t tmpccmrx;
  uint32_t tmpccer;
  uint32_t tmpcr2;

  /* Disable the output: Reset the CCxE Bit */
  TIMx->CCER &= ~TIM_CCER_CC6E;
 800541e:	687b      	ldr	r3, [r7, #4]
 8005420:	6a1b      	ldr	r3, [r3, #32]
 8005422:	f423 1280 	bic.w	r2, r3, #1048576	; 0x100000
 8005426:	687b      	ldr	r3, [r7, #4]
 8005428:	621a      	str	r2, [r3, #32]

  /* Get the TIMx CCER register value */
  tmpccer = TIMx->CCER;
 800542a:	687b      	ldr	r3, [r7, #4]
 800542c:	6a1b      	ldr	r3, [r3, #32]
 800542e:	613b      	str	r3, [r7, #16]
  /* Get the TIMx CR2 register value */
  tmpcr2 =  TIMx->CR2;
 8005430:	687b      	ldr	r3, [r7, #4]
 8005432:	685b      	ldr	r3, [r3, #4]
 8005434:	617b      	str	r3, [r7, #20]
  /* Get the TIMx CCMR1 register value */
  tmpccmrx = TIMx->CCMR3;
 8005436:	687b      	ldr	r3, [r7, #4]
 8005438:	6d5b      	ldr	r3, [r3, #84]	; 0x54
 800543a:	60fb      	str	r3, [r7, #12]

  /* Reset the Output Compare Mode Bits */
  tmpccmrx &= ~(TIM_CCMR3_OC6M);
 800543c:	68fb      	ldr	r3, [r7, #12]
 800543e:	f023 7380 	bic.w	r3, r3, #16777216	; 0x1000000
 8005442:	f423 43e0 	bic.w	r3, r3, #28672	; 0x7000
 8005446:	60fb      	str	r3, [r7, #12]
  /* Select the Output Compare Mode */
  tmpccmrx |= (OC_Config->OCMode << 8U);
 8005448:	683b      	ldr	r3, [r7, #0]
 800544a:	681b      	ldr	r3, [r3, #0]
 800544c:	021b      	lsls	r3, r3, #8
 800544e:	68fa      	ldr	r2, [r7, #12]
 8005450:	4313      	orrs	r3, r2
 8005452:	60fb      	str	r3, [r7, #12]

  /* Reset the Output Polarity level */
  tmpccer &= (uint32_t)~TIM_CCER_CC6P;
 8005454:	693b      	ldr	r3, [r7, #16]
 8005456:	f423 1300 	bic.w	r3, r3, #2097152	; 0x200000
 800545a:	613b      	str	r3, [r7, #16]
  /* Set the Output Compare Polarity */
  tmpccer |= (OC_Config->OCPolarity << 20U);
 800545c:	683b      	ldr	r3, [r7, #0]
 800545e:	689b      	ldr	r3, [r3, #8]
 8005460:	051b      	lsls	r3, r3, #20
 8005462:	693a      	ldr	r2, [r7, #16]
 8005464:	4313      	orrs	r3, r2
 8005466:	613b      	str	r3, [r7, #16]

  if (IS_TIM_BREAK_INSTANCE(TIMx))
 8005468:	687b      	ldr	r3, [r7, #4]
 800546a:	4a16      	ldr	r2, [pc, #88]	; (80054c4 <TIM_OC6_SetConfig+0xb0>)
 800546c:	4293      	cmp	r3, r2
 800546e:	d00b      	beq.n	8005488 <TIM_OC6_SetConfig+0x74>
 8005470:	687b      	ldr	r3, [r7, #4]
 8005472:	4a15      	ldr	r2, [pc, #84]	; (80054c8 <TIM_OC6_SetConfig+0xb4>)
 8005474:	4293      	cmp	r3, r2
 8005476:	d007      	beq.n	8005488 <TIM_OC6_SetConfig+0x74>
 8005478:	687b      	ldr	r3, [r7, #4]
 800547a:	4a14      	ldr	r2, [pc, #80]	; (80054cc <TIM_OC6_SetConfig+0xb8>)
 800547c:	4293      	cmp	r3, r2
 800547e:	d003      	beq.n	8005488 <TIM_OC6_SetConfig+0x74>
 8005480:	687b      	ldr	r3, [r7, #4]
 8005482:	4a13      	ldr	r2, [pc, #76]	; (80054d0 <TIM_OC6_SetConfig+0xbc>)
 8005484:	4293      	cmp	r3, r2
 8005486:	d109      	bne.n	800549c <TIM_OC6_SetConfig+0x88>
  {
    /* Reset the Output Compare IDLE State */
    tmpcr2 &= ~TIM_CR2_OIS6;
 8005488:	697b      	ldr	r3, [r7, #20]
 800548a:	f423 2380 	bic.w	r3, r3, #262144	; 0x40000
 800548e:	617b      	str	r3, [r7, #20]
    /* Set the Output Idle state */
    tmpcr2 |= (OC_Config->OCIdleState << 10U);
 8005490:	683b      	ldr	r3, [r7, #0]
 8005492:	695b      	ldr	r3, [r3, #20]
 8005494:	029b      	lsls	r3, r3, #10
 8005496:	697a      	ldr	r2, [r7, #20]
 8005498:	4313      	orrs	r3, r2
 800549a:	617b      	str	r3, [r7, #20]
  }

  /* Write to TIMx CR2 */
  TIMx->CR2 = tmpcr2;
 800549c:	687b      	ldr	r3, [r7, #4]
 800549e:	697a      	ldr	r2, [r7, #20]
 80054a0:	605a      	str	r2, [r3, #4]

  /* Write to TIMx CCMR3 */
  TIMx->CCMR3 = tmpccmrx;
 80054a2:	687b      	ldr	r3, [r7, #4]
 80054a4:	68fa      	ldr	r2, [r7, #12]
 80054a6:	655a      	str	r2, [r3, #84]	; 0x54

  /* Set the Capture Compare Register value */
  TIMx->CCR6 = OC_Config->Pulse;
 80054a8:	683b      	ldr	r3, [r7, #0]
 80054aa:	685a      	ldr	r2, [r3, #4]
 80054ac:	687b      	ldr	r3, [r7, #4]
 80054ae:	65da      	str	r2, [r3, #92]	; 0x5c

  /* Write to TIMx CCER */
  TIMx->CCER = tmpccer;
 80054b0:	687b      	ldr	r3, [r7, #4]
 80054b2:	693a      	ldr	r2, [r7, #16]
 80054b4:	621a      	str	r2, [r3, #32]
}
 80054b6:	bf00      	nop
 80054b8:	371c      	adds	r7, #28
 80054ba:	46bd      	mov	sp, r7
 80054bc:	f85d 7b04 	ldr.w	r7, [sp], #4
 80054c0:	4770      	bx	lr
 80054c2:	bf00      	nop
 80054c4:	40012c00 	.word	0x40012c00
 80054c8:	40014000 	.word	0x40014000
 80054cc:	40014400 	.word	0x40014400
 80054d0:	40014800 	.word	0x40014800

080054d4 <TIM_TI1_ConfigInputStage>:
  * @param  TIM_ICFilter Specifies the Input Capture Filter.
  *          This parameter must be a value between 0x00 and 0x0F.
  * @retval None
  */
static void TIM_TI1_ConfigInputStage(TIM_TypeDef *TIMx, uint32_t TIM_ICPolarity, uint32_t TIM_ICFilter)
{
 80054d4:	b480      	push	{r7}
 80054d6:	b087      	sub	sp, #28
 80054d8:	af00      	add	r7, sp, #0
 80054da:	60f8      	str	r0, [r7, #12]
 80054dc:	60b9      	str	r1, [r7, #8]
 80054de:	607a      	str	r2, [r7, #4]
  uint32_t tmpccmr1;
  uint32_t tmpccer;

  /* Disable the Channel 1: Reset the CC1E Bit */
  tmpccer = TIMx->CCER;
 80054e0:	68fb      	ldr	r3, [r7, #12]
 80054e2:	6a1b      	ldr	r3, [r3, #32]
 80054e4:	617b      	str	r3, [r7, #20]
  TIMx->CCER &= ~TIM_CCER_CC1E;
 80054e6:	68fb      	ldr	r3, [r7, #12]
 80054e8:	6a1b      	ldr	r3, [r3, #32]
 80054ea:	f023 0201 	bic.w	r2, r3, #1
 80054ee:	68fb      	ldr	r3, [r7, #12]
 80054f0:	621a      	str	r2, [r3, #32]
  tmpccmr1 = TIMx->CCMR1;
 80054f2:	68fb      	ldr	r3, [r7, #12]
 80054f4:	699b      	ldr	r3, [r3, #24]
 80054f6:	613b      	str	r3, [r7, #16]

  /* Set the filter */
  tmpccmr1 &= ~TIM_CCMR1_IC1F;
 80054f8:	693b      	ldr	r3, [r7, #16]
 80054fa:	f023 03f0 	bic.w	r3, r3, #240	; 0xf0
 80054fe:	613b      	str	r3, [r7, #16]
  tmpccmr1 |= (TIM_ICFilter << 4U);
 8005500:	687b      	ldr	r3, [r7, #4]
 8005502:	011b      	lsls	r3, r3, #4
 8005504:	693a      	ldr	r2, [r7, #16]
 8005506:	4313      	orrs	r3, r2
 8005508:	613b      	str	r3, [r7, #16]

  /* Select the Polarity and set the CC1E Bit */
  tmpccer &= ~(TIM_CCER_CC1P | TIM_CCER_CC1NP);
 800550a:	697b      	ldr	r3, [r7, #20]
 800550c:	f023 030a 	bic.w	r3, r3, #10
 8005510:	617b      	str	r3, [r7, #20]
  tmpccer |= TIM_ICPolarity;
 8005512:	697a      	ldr	r2, [r7, #20]
 8005514:	68bb      	ldr	r3, [r7, #8]
 8005516:	4313      	orrs	r3, r2
 8005518:	617b      	str	r3, [r7, #20]

  /* Write to TIMx CCMR1 and CCER registers */
  TIMx->CCMR1 = tmpccmr1;
 800551a:	68fb      	ldr	r3, [r7, #12]
 800551c:	693a      	ldr	r2, [r7, #16]
 800551e:	619a      	str	r2, [r3, #24]
  TIMx->CCER = tmpccer;
 8005520:	68fb      	ldr	r3, [r7, #12]
 8005522:	697a      	ldr	r2, [r7, #20]
 8005524:	621a      	str	r2, [r3, #32]
}
 8005526:	bf00      	nop
 8005528:	371c      	adds	r7, #28
 800552a:	46bd      	mov	sp, r7
 800552c:	f85d 7b04 	ldr.w	r7, [sp], #4
 8005530:	4770      	bx	lr

08005532 <TIM_TI2_ConfigInputStage>:
  * @param  TIM_ICFilter Specifies the Input Capture Filter.
  *          This parameter must be a value between 0x00 and 0x0F.
  * @retval None
  */
static void TIM_TI2_ConfigInputStage(TIM_TypeDef *TIMx, uint32_t TIM_ICPolarity, uint32_t TIM_ICFilter)
{
 8005532:	b480      	push	{r7}
 8005534:	b087      	sub	sp, #28
 8005536:	af00      	add	r7, sp, #0
 8005538:	60f8      	str	r0, [r7, #12]
 800553a:	60b9      	str	r1, [r7, #8]
 800553c:	607a      	str	r2, [r7, #4]
  uint32_t tmpccmr1;
  uint32_t tmpccer;

  /* Disable the Channel 2: Reset the CC2E Bit */
  TIMx->CCER &= ~TIM_CCER_CC2E;
 800553e:	68fb      	ldr	r3, [r7, #12]
 8005540:	6a1b      	ldr	r3, [r3, #32]
 8005542:	f023 0210 	bic.w	r2, r3, #16
 8005546:	68fb      	ldr	r3, [r7, #12]
 8005548:	621a      	str	r2, [r3, #32]
  tmpccmr1 = TIMx->CCMR1;
 800554a:	68fb      	ldr	r3, [r7, #12]
 800554c:	699b      	ldr	r3, [r3, #24]
 800554e:	617b      	str	r3, [r7, #20]
  tmpccer = TIMx->CCER;
 8005550:	68fb      	ldr	r3, [r7, #12]
 8005552:	6a1b      	ldr	r3, [r3, #32]
 8005554:	613b      	str	r3, [r7, #16]

  /* Set the filter */
  tmpccmr1 &= ~TIM_CCMR1_IC2F;
 8005556:	697b      	ldr	r3, [r7, #20]
 8005558:	f423 4370 	bic.w	r3, r3, #61440	; 0xf000
 800555c:	617b      	str	r3, [r7, #20]
  tmpccmr1 |= (TIM_ICFilter << 12U);
 800555e:	687b      	ldr	r3, [r7, #4]
 8005560:	031b      	lsls	r3, r3, #12
 8005562:	697a      	ldr	r2, [r7, #20]
 8005564:	4313      	orrs	r3, r2
 8005566:	617b      	str	r3, [r7, #20]

  /* Select the Polarity and set the CC2E Bit */
  tmpccer &= ~(TIM_CCER_CC2P | TIM_CCER_CC2NP);
 8005568:	693b      	ldr	r3, [r7, #16]
 800556a:	f023 03a0 	bic.w	r3, r3, #160	; 0xa0
 800556e:	613b      	str	r3, [r7, #16]
  tmpccer |= (TIM_ICPolarity << 4U);
 8005570:	68bb      	ldr	r3, [r7, #8]
 8005572:	011b      	lsls	r3, r3, #4
 8005574:	693a      	ldr	r2, [r7, #16]
 8005576:	4313      	orrs	r3, r2
 8005578:	613b      	str	r3, [r7, #16]

  /* Write to TIMx CCMR1 and CCER registers */
  TIMx->CCMR1 = tmpccmr1 ;
 800557a:	68fb      	ldr	r3, [r7, #12]
 800557c:	697a      	ldr	r2, [r7, #20]
 800557e:	619a      	str	r2, [r3, #24]
  TIMx->CCER = tmpccer;
 8005580:	68fb      	ldr	r3, [r7, #12]
 8005582:	693a      	ldr	r2, [r7, #16]
 8005584:	621a      	str	r2, [r3, #32]
}
 8005586:	bf00      	nop
 8005588:	371c      	adds	r7, #28
 800558a:	46bd      	mov	sp, r7
 800558c:	f85d 7b04 	ldr.w	r7, [sp], #4
 8005590:	4770      	bx	lr

08005592 <TIM_ITRx_SetConfig>:
  *            @arg TIM_TS_TI2FP2: Filtered Timer Input 2
  *            @arg TIM_TS_ETRF: External Trigger input
  * @retval None
  */
static void TIM_ITRx_SetConfig(TIM_TypeDef *TIMx, uint32_t InputTriggerSource)
{
 8005592:	b480      	push	{r7}
 8005594:	b085      	sub	sp, #20
 8005596:	af00      	add	r7, sp, #0
 8005598:	6078      	str	r0, [r7, #4]
 800559a:	6039      	str	r1, [r7, #0]
  uint32_t tmpsmcr;

  /* Get the TIMx SMCR register value */
  tmpsmcr = TIMx->SMCR;
 800559c:	687b      	ldr	r3, [r7, #4]
 800559e:	689b      	ldr	r3, [r3, #8]
 80055a0:	60fb      	str	r3, [r7, #12]
  /* Reset the TS Bits */
  tmpsmcr &= ~TIM_SMCR_TS;
 80055a2:	68fb      	ldr	r3, [r7, #12]
 80055a4:	f023 0370 	bic.w	r3, r3, #112	; 0x70
 80055a8:	60fb      	str	r3, [r7, #12]
  /* Set the Input Trigger source and the slave mode*/
  tmpsmcr |= (InputTriggerSource | TIM_SLAVEMODE_EXTERNAL1);
 80055aa:	683a      	ldr	r2, [r7, #0]
 80055ac:	68fb      	ldr	r3, [r7, #12]
 80055ae:	4313      	orrs	r3, r2
 80055b0:	f043 0307 	orr.w	r3, r3, #7
 80055b4:	60fb      	str	r3, [r7, #12]
  /* Write to TIMx SMCR */
  TIMx->SMCR = tmpsmcr;
 80055b6:	687b      	ldr	r3, [r7, #4]
 80055b8:	68fa      	ldr	r2, [r7, #12]
 80055ba:	609a      	str	r2, [r3, #8]
}
 80055bc:	bf00      	nop
 80055be:	3714      	adds	r7, #20
 80055c0:	46bd      	mov	sp, r7
 80055c2:	f85d 7b04 	ldr.w	r7, [sp], #4
 80055c6:	4770      	bx	lr

080055c8 <TIM_ETR_SetConfig>:
  *          This parameter must be a value between 0x00 and 0x0F
  * @retval None
  */
void TIM_ETR_SetConfig(TIM_TypeDef *TIMx, uint32_t TIM_ExtTRGPrescaler,
                       uint32_t TIM_ExtTRGPolarity, uint32_t ExtTRGFilter)
{
 80055c8:	b480      	push	{r7}
 80055ca:	b087      	sub	sp, #28
 80055cc:	af00      	add	r7, sp, #0
 80055ce:	60f8      	str	r0, [r7, #12]
 80055d0:	60b9      	str	r1, [r7, #8]
 80055d2:	607a      	str	r2, [r7, #4]
 80055d4:	603b      	str	r3, [r7, #0]
  uint32_t tmpsmcr;

  tmpsmcr = TIMx->SMCR;
 80055d6:	68fb      	ldr	r3, [r7, #12]
 80055d8:	689b      	ldr	r3, [r3, #8]
 80055da:	617b      	str	r3, [r7, #20]

  /* Reset the ETR Bits */
  tmpsmcr &= ~(TIM_SMCR_ETF | TIM_SMCR_ETPS | TIM_SMCR_ECE | TIM_SMCR_ETP);
 80055dc:	697b      	ldr	r3, [r7, #20]
 80055de:	f423 437f 	bic.w	r3, r3, #65280	; 0xff00
 80055e2:	617b      	str	r3, [r7, #20]

  /* Set the Prescaler, the Filter value and the Polarity */
  tmpsmcr |= (uint32_t)(TIM_ExtTRGPrescaler | (TIM_ExtTRGPolarity | (ExtTRGFilter << 8U)));
 80055e4:	683b      	ldr	r3, [r7, #0]
 80055e6:	021a      	lsls	r2, r3, #8
 80055e8:	687b      	ldr	r3, [r7, #4]
 80055ea:	431a      	orrs	r2, r3
 80055ec:	68bb      	ldr	r3, [r7, #8]
 80055ee:	4313      	orrs	r3, r2
 80055f0:	697a      	ldr	r2, [r7, #20]
 80055f2:	4313      	orrs	r3, r2
 80055f4:	617b      	str	r3, [r7, #20]

  /* Write to TIMx SMCR */
  TIMx->SMCR = tmpsmcr;
 80055f6:	68fb      	ldr	r3, [r7, #12]
 80055f8:	697a      	ldr	r2, [r7, #20]
 80055fa:	609a      	str	r2, [r3, #8]
}
 80055fc:	bf00      	nop
 80055fe:	371c      	adds	r7, #28
 8005600:	46bd      	mov	sp, r7
 8005602:	f85d 7b04 	ldr.w	r7, [sp], #4
 8005606:	4770      	bx	lr

08005608 <TIM_CCxChannelCmd>:
  * @param  ChannelState specifies the TIM Channel CCxE bit new state.
  *          This parameter can be: TIM_CCx_ENABLE or TIM_CCx_DISABLE.
  * @retval None
  */
void TIM_CCxChannelCmd(TIM_TypeDef *TIMx, uint32_t Channel, uint32_t ChannelState)
{
 8005608:	b480      	push	{r7}
 800560a:	b087      	sub	sp, #28
 800560c:	af00      	add	r7, sp, #0
 800560e:	60f8      	str	r0, [r7, #12]
 8005610:	60b9      	str	r1, [r7, #8]
 8005612:	607a      	str	r2, [r7, #4]

  /* Check the parameters */
  assert_param(IS_TIM_CC1_INSTANCE(TIMx));
  assert_param(IS_TIM_CHANNELS(Channel));

  tmp = TIM_CCER_CC1E << (Channel & 0x1FU); /* 0x1FU = 31 bits max shift */
 8005614:	68bb      	ldr	r3, [r7, #8]
 8005616:	f003 031f 	and.w	r3, r3, #31
 800561a:	2201      	movs	r2, #1
 800561c:	fa02 f303 	lsl.w	r3, r2, r3
 8005620:	617b      	str	r3, [r7, #20]

  /* Reset the CCxE Bit */
  TIMx->CCER &= ~tmp;
 8005622:	68fb      	ldr	r3, [r7, #12]
 8005624:	6a1a      	ldr	r2, [r3, #32]
 8005626:	697b      	ldr	r3, [r7, #20]
 8005628:	43db      	mvns	r3, r3
 800562a:	401a      	ands	r2, r3
 800562c:	68fb      	ldr	r3, [r7, #12]
 800562e:	621a      	str	r2, [r3, #32]

  /* Set or reset the CCxE Bit */
  TIMx->CCER |= (uint32_t)(ChannelState << (Channel & 0x1FU)); /* 0x1FU = 31 bits max shift */
 8005630:	68fb      	ldr	r3, [r7, #12]
 8005632:	6a1a      	ldr	r2, [r3, #32]
 8005634:	68bb      	ldr	r3, [r7, #8]
 8005636:	f003 031f 	and.w	r3, r3, #31
 800563a:	6879      	ldr	r1, [r7, #4]
 800563c:	fa01 f303 	lsl.w	r3, r1, r3
 8005640:	431a      	orrs	r2, r3
 8005642:	68fb      	ldr	r3, [r7, #12]
 8005644:	621a      	str	r2, [r3, #32]
}
 8005646:	bf00      	nop
 8005648:	371c      	adds	r7, #28
 800564a:	46bd      	mov	sp, r7
 800564c:	f85d 7b04 	ldr.w	r7, [sp], #4
 8005650:	4770      	bx	lr
	...

08005654 <HAL_TIMEx_MasterConfigSynchronization>:
  *         mode.
  * @retval HAL status
  */
HAL_StatusTypeDef HAL_TIMEx_MasterConfigSynchronization(TIM_HandleTypeDef *htim,
                                                        const TIM_MasterConfigTypeDef *sMasterConfig)
{
 8005654:	b480      	push	{r7}
 8005656:	b085      	sub	sp, #20
 8005658:	af00      	add	r7, sp, #0
 800565a:	6078      	str	r0, [r7, #4]
 800565c:	6039      	str	r1, [r7, #0]
  assert_param(IS_TIM_MASTER_INSTANCE(htim->Instance));
  assert_param(IS_TIM_TRGO_SOURCE(sMasterConfig->MasterOutputTrigger));
  assert_param(IS_TIM_MSM_STATE(sMasterConfig->MasterSlaveMode));

  /* Check input state */
  __HAL_LOCK(htim);
 800565e:	687b      	ldr	r3, [r7, #4]
 8005660:	f893 303c 	ldrb.w	r3, [r3, #60]	; 0x3c
 8005664:	2b01      	cmp	r3, #1
 8005666:	d101      	bne.n	800566c <HAL_TIMEx_MasterConfigSynchronization+0x18>
 8005668:	2302      	movs	r3, #2
 800566a:	e054      	b.n	8005716 <HAL_TIMEx_MasterConfigSynchronization+0xc2>
 800566c:	687b      	ldr	r3, [r7, #4]
 800566e:	2201      	movs	r2, #1
 8005670:	f883 203c 	strb.w	r2, [r3, #60]	; 0x3c

  /* Change the handler state */
  htim->State = HAL_TIM_STATE_BUSY;
 8005674:	687b      	ldr	r3, [r7, #4]
 8005676:	2202      	movs	r2, #2
 8005678:	f883 203d 	strb.w	r2, [r3, #61]	; 0x3d

  /* Get the TIMx CR2 register value */
  tmpcr2 = htim->Instance->CR2;
 800567c:	687b      	ldr	r3, [r7, #4]
 800567e:	681b      	ldr	r3, [r3, #0]
 8005680:	685b      	ldr	r3, [r3, #4]
 8005682:	60fb      	str	r3, [r7, #12]

  /* Get the TIMx SMCR register value */
  tmpsmcr = htim->Instance->SMCR;
 8005684:	687b      	ldr	r3, [r7, #4]
 8005686:	681b      	ldr	r3, [r3, #0]
 8005688:	689b      	ldr	r3, [r3, #8]
 800568a:	60bb      	str	r3, [r7, #8]

#if defined(TIM_CR2_MMS2)
  /* If the timer supports ADC synchronization through TRGO2, set the master mode selection 2 */
  if (IS_TIM_TRGO2_INSTANCE(htim->Instance))
 800568c:	687b      	ldr	r3, [r7, #4]
 800568e:	681b      	ldr	r3, [r3, #0]
 8005690:	4a24      	ldr	r2, [pc, #144]	; (8005724 <HAL_TIMEx_MasterConfigSynchronization+0xd0>)
 8005692:	4293      	cmp	r3, r2
 8005694:	d108      	bne.n	80056a8 <HAL_TIMEx_MasterConfigSynchronization+0x54>
  {
    /* Check the parameters */
    assert_param(IS_TIM_TRGO2_SOURCE(sMasterConfig->MasterOutputTrigger2));

    /* Clear the MMS2 bits */
    tmpcr2 &= ~TIM_CR2_MMS2;
 8005696:	68fb      	ldr	r3, [r7, #12]
 8005698:	f423 0370 	bic.w	r3, r3, #15728640	; 0xf00000
 800569c:	60fb      	str	r3, [r7, #12]
    /* Select the TRGO2 source*/
    tmpcr2 |= sMasterConfig->MasterOutputTrigger2;
 800569e:	683b      	ldr	r3, [r7, #0]
 80056a0:	685b      	ldr	r3, [r3, #4]
 80056a2:	68fa      	ldr	r2, [r7, #12]
 80056a4:	4313      	orrs	r3, r2
 80056a6:	60fb      	str	r3, [r7, #12]
  }
#endif /* TIM_CR2_MMS2 */

  /* Reset the MMS Bits */
  tmpcr2 &= ~TIM_CR2_MMS;
 80056a8:	68fb      	ldr	r3, [r7, #12]
 80056aa:	f023 0370 	bic.w	r3, r3, #112	; 0x70
 80056ae:	60fb      	str	r3, [r7, #12]
  /* Select the TRGO source */
  tmpcr2 |=  sMasterConfig->MasterOutputTrigger;
 80056b0:	683b      	ldr	r3, [r7, #0]
 80056b2:	681b      	ldr	r3, [r3, #0]
 80056b4:	68fa      	ldr	r2, [r7, #12]
 80056b6:	4313      	orrs	r3, r2
 80056b8:	60fb      	str	r3, [r7, #12]

  /* Update TIMx CR2 */
  htim->Instance->CR2 = tmpcr2;
 80056ba:	687b      	ldr	r3, [r7, #4]
 80056bc:	681b      	ldr	r3, [r3, #0]
 80056be:	68fa      	ldr	r2, [r7, #12]
 80056c0:	605a      	str	r2, [r3, #4]

  if (IS_TIM_SLAVE_INSTANCE(htim->Instance))
 80056c2:	687b      	ldr	r3, [r7, #4]
 80056c4:	681b      	ldr	r3, [r3, #0]
 80056c6:	4a17      	ldr	r2, [pc, #92]	; (8005724 <HAL_TIMEx_MasterConfigSynchronization+0xd0>)
 80056c8:	4293      	cmp	r3, r2
 80056ca:	d00e      	beq.n	80056ea <HAL_TIMEx_MasterConfigSynchronization+0x96>
 80056cc:	687b      	ldr	r3, [r7, #4]
 80056ce:	681b      	ldr	r3, [r3, #0]
 80056d0:	f1b3 4f80 	cmp.w	r3, #1073741824	; 0x40000000
 80056d4:	d009      	beq.n	80056ea <HAL_TIMEx_MasterConfigSynchronization+0x96>
 80056d6:	687b      	ldr	r3, [r7, #4]
 80056d8:	681b      	ldr	r3, [r3, #0]
 80056da:	4a13      	ldr	r2, [pc, #76]	; (8005728 <HAL_TIMEx_MasterConfigSynchronization+0xd4>)
 80056dc:	4293      	cmp	r3, r2
 80056de:	d004      	beq.n	80056ea <HAL_TIMEx_MasterConfigSynchronization+0x96>
 80056e0:	687b      	ldr	r3, [r7, #4]
 80056e2:	681b      	ldr	r3, [r3, #0]
 80056e4:	4a11      	ldr	r2, [pc, #68]	; (800572c <HAL_TIMEx_MasterConfigSynchronization+0xd8>)
 80056e6:	4293      	cmp	r3, r2
 80056e8:	d10c      	bne.n	8005704 <HAL_TIMEx_MasterConfigSynchronization+0xb0>
  {
    /* Reset the MSM Bit */
    tmpsmcr &= ~TIM_SMCR_MSM;
 80056ea:	68bb      	ldr	r3, [r7, #8]
 80056ec:	f023 0380 	bic.w	r3, r3, #128	; 0x80
 80056f0:	60bb      	str	r3, [r7, #8]
    /* Set master mode */
    tmpsmcr |= sMasterConfig->MasterSlaveMode;
 80056f2:	683b      	ldr	r3, [r7, #0]
 80056f4:	689b      	ldr	r3, [r3, #8]
 80056f6:	68ba      	ldr	r2, [r7, #8]
 80056f8:	4313      	orrs	r3, r2
 80056fa:	60bb      	str	r3, [r7, #8]

    /* Update TIMx SMCR */
    htim->Instance->SMCR = tmpsmcr;
 80056fc:	687b      	ldr	r3, [r7, #4]
 80056fe:	681b      	ldr	r3, [r3, #0]
 8005700:	68ba      	ldr	r2, [r7, #8]
 8005702:	609a      	str	r2, [r3, #8]
  }

  /* Change the htim state */
  htim->State = HAL_TIM_STATE_READY;
 8005704:	687b      	ldr	r3, [r7, #4]
 8005706:	2201      	movs	r2, #1
 8005708:	f883 203d 	strb.w	r2, [r3, #61]	; 0x3d

  __HAL_UNLOCK(htim);
 800570c:	687b      	ldr	r3, [r7, #4]
 800570e:	2200      	movs	r2, #0
 8005710:	f883 203c 	strb.w	r2, [r3, #60]	; 0x3c

  return HAL_OK;
 8005714:	2300      	movs	r3, #0
}
 8005716:	4618      	mov	r0, r3
 8005718:	3714      	adds	r7, #20
 800571a:	46bd      	mov	sp, r7
 800571c:	f85d 7b04 	ldr.w	r7, [sp], #4
 8005720:	4770      	bx	lr
 8005722:	bf00      	nop
 8005724:	40012c00 	.word	0x40012c00
 8005728:	40000400 	.word	0x40000400
 800572c:	40014000 	.word	0x40014000

08005730 <__errno>:
 8005730:	4b01      	ldr	r3, [pc, #4]	; (8005738 <__errno+0x8>)
 8005732:	6818      	ldr	r0, [r3, #0]
 8005734:	4770      	bx	lr
 8005736:	bf00      	nop
 8005738:	20000014 	.word	0x20000014

0800573c <__libc_init_array>:
 800573c:	b570      	push	{r4, r5, r6, lr}
 800573e:	4d0d      	ldr	r5, [pc, #52]	; (8005774 <__libc_init_array+0x38>)
 8005740:	4c0d      	ldr	r4, [pc, #52]	; (8005778 <__libc_init_array+0x3c>)
 8005742:	1b64      	subs	r4, r4, r5
 8005744:	10a4      	asrs	r4, r4, #2
 8005746:	2600      	movs	r6, #0
 8005748:	42a6      	cmp	r6, r4
 800574a:	d109      	bne.n	8005760 <__libc_init_array+0x24>
 800574c:	4d0b      	ldr	r5, [pc, #44]	; (800577c <__libc_init_array+0x40>)
 800574e:	4c0c      	ldr	r4, [pc, #48]	; (8005780 <__libc_init_array+0x44>)
 8005750:	f005 fc78 	bl	800b044 <_init>
 8005754:	1b64      	subs	r4, r4, r5
 8005756:	10a4      	asrs	r4, r4, #2
 8005758:	2600      	movs	r6, #0
 800575a:	42a6      	cmp	r6, r4
 800575c:	d105      	bne.n	800576a <__libc_init_array+0x2e>
 800575e:	bd70      	pop	{r4, r5, r6, pc}
 8005760:	f855 3b04 	ldr.w	r3, [r5], #4
 8005764:	4798      	blx	r3
 8005766:	3601      	adds	r6, #1
 8005768:	e7ee      	b.n	8005748 <__libc_init_array+0xc>
 800576a:	f855 3b04 	ldr.w	r3, [r5], #4
 800576e:	4798      	blx	r3
 8005770:	3601      	adds	r6, #1
 8005772:	e7f2      	b.n	800575a <__libc_init_array+0x1e>
 8005774:	0800b640 	.word	0x0800b640
 8005778:	0800b640 	.word	0x0800b640
 800577c:	0800b640 	.word	0x0800b640
 8005780:	0800b644 	.word	0x0800b644

08005784 <memset>:
 8005784:	4402      	add	r2, r0
 8005786:	4603      	mov	r3, r0
 8005788:	4293      	cmp	r3, r2
 800578a:	d100      	bne.n	800578e <memset+0xa>
 800578c:	4770      	bx	lr
 800578e:	f803 1b01 	strb.w	r1, [r3], #1
 8005792:	e7f9      	b.n	8005788 <memset+0x4>

08005794 <__cvt>:
 8005794:	e92d 47ff 	stmdb	sp!, {r0, r1, r2, r3, r4, r5, r6, r7, r8, r9, sl, lr}
 8005798:	ec55 4b10 	vmov	r4, r5, d0
 800579c:	2d00      	cmp	r5, #0
 800579e:	460e      	mov	r6, r1
 80057a0:	4619      	mov	r1, r3
 80057a2:	462b      	mov	r3, r5
 80057a4:	bfbb      	ittet	lt
 80057a6:	f105 4300 	addlt.w	r3, r5, #2147483648	; 0x80000000
 80057aa:	461d      	movlt	r5, r3
 80057ac:	2300      	movge	r3, #0
 80057ae:	232d      	movlt	r3, #45	; 0x2d
 80057b0:	700b      	strb	r3, [r1, #0]
 80057b2:	9b0d      	ldr	r3, [sp, #52]	; 0x34
 80057b4:	f8dd a030 	ldr.w	sl, [sp, #48]	; 0x30
 80057b8:	4691      	mov	r9, r2
 80057ba:	f023 0820 	bic.w	r8, r3, #32
 80057be:	bfbc      	itt	lt
 80057c0:	4622      	movlt	r2, r4
 80057c2:	4614      	movlt	r4, r2
 80057c4:	f1b8 0f46 	cmp.w	r8, #70	; 0x46
 80057c8:	d005      	beq.n	80057d6 <__cvt+0x42>
 80057ca:	f1b8 0f45 	cmp.w	r8, #69	; 0x45
 80057ce:	d100      	bne.n	80057d2 <__cvt+0x3e>
 80057d0:	3601      	adds	r6, #1
 80057d2:	2102      	movs	r1, #2
 80057d4:	e000      	b.n	80057d8 <__cvt+0x44>
 80057d6:	2103      	movs	r1, #3
 80057d8:	ab03      	add	r3, sp, #12
 80057da:	9301      	str	r3, [sp, #4]
 80057dc:	ab02      	add	r3, sp, #8
 80057de:	9300      	str	r3, [sp, #0]
 80057e0:	ec45 4b10 	vmov	d0, r4, r5
 80057e4:	4653      	mov	r3, sl
 80057e6:	4632      	mov	r2, r6
 80057e8:	f001 ff02 	bl	80075f0 <_dtoa_r>
 80057ec:	f1b8 0f47 	cmp.w	r8, #71	; 0x47
 80057f0:	4607      	mov	r7, r0
 80057f2:	d102      	bne.n	80057fa <__cvt+0x66>
 80057f4:	f019 0f01 	tst.w	r9, #1
 80057f8:	d022      	beq.n	8005840 <__cvt+0xac>
 80057fa:	f1b8 0f46 	cmp.w	r8, #70	; 0x46
 80057fe:	eb07 0906 	add.w	r9, r7, r6
 8005802:	d110      	bne.n	8005826 <__cvt+0x92>
 8005804:	783b      	ldrb	r3, [r7, #0]
 8005806:	2b30      	cmp	r3, #48	; 0x30
 8005808:	d10a      	bne.n	8005820 <__cvt+0x8c>
 800580a:	2200      	movs	r2, #0
 800580c:	2300      	movs	r3, #0
 800580e:	4620      	mov	r0, r4
 8005810:	4629      	mov	r1, r5
 8005812:	f7fb f959 	bl	8000ac8 <__aeabi_dcmpeq>
 8005816:	b918      	cbnz	r0, 8005820 <__cvt+0x8c>
 8005818:	f1c6 0601 	rsb	r6, r6, #1
 800581c:	f8ca 6000 	str.w	r6, [sl]
 8005820:	f8da 3000 	ldr.w	r3, [sl]
 8005824:	4499      	add	r9, r3
 8005826:	2200      	movs	r2, #0
 8005828:	2300      	movs	r3, #0
 800582a:	4620      	mov	r0, r4
 800582c:	4629      	mov	r1, r5
 800582e:	f7fb f94b 	bl	8000ac8 <__aeabi_dcmpeq>
 8005832:	b108      	cbz	r0, 8005838 <__cvt+0xa4>
 8005834:	f8cd 900c 	str.w	r9, [sp, #12]
 8005838:	2230      	movs	r2, #48	; 0x30
 800583a:	9b03      	ldr	r3, [sp, #12]
 800583c:	454b      	cmp	r3, r9
 800583e:	d307      	bcc.n	8005850 <__cvt+0xbc>
 8005840:	9b03      	ldr	r3, [sp, #12]
 8005842:	9a0e      	ldr	r2, [sp, #56]	; 0x38
 8005844:	1bdb      	subs	r3, r3, r7
 8005846:	4638      	mov	r0, r7
 8005848:	6013      	str	r3, [r2, #0]
 800584a:	b004      	add	sp, #16
 800584c:	e8bd 87f0 	ldmia.w	sp!, {r4, r5, r6, r7, r8, r9, sl, pc}
 8005850:	1c59      	adds	r1, r3, #1
 8005852:	9103      	str	r1, [sp, #12]
 8005854:	701a      	strb	r2, [r3, #0]
 8005856:	e7f0      	b.n	800583a <__cvt+0xa6>

08005858 <__exponent>:
 8005858:	b5f7      	push	{r0, r1, r2, r4, r5, r6, r7, lr}
 800585a:	4603      	mov	r3, r0
 800585c:	2900      	cmp	r1, #0
 800585e:	bfb8      	it	lt
 8005860:	4249      	neglt	r1, r1
 8005862:	f803 2b02 	strb.w	r2, [r3], #2
 8005866:	bfb4      	ite	lt
 8005868:	222d      	movlt	r2, #45	; 0x2d
 800586a:	222b      	movge	r2, #43	; 0x2b
 800586c:	2909      	cmp	r1, #9
 800586e:	7042      	strb	r2, [r0, #1]
 8005870:	dd2a      	ble.n	80058c8 <__exponent+0x70>
 8005872:	f10d 0407 	add.w	r4, sp, #7
 8005876:	46a4      	mov	ip, r4
 8005878:	270a      	movs	r7, #10
 800587a:	46a6      	mov	lr, r4
 800587c:	460a      	mov	r2, r1
 800587e:	fb91 f6f7 	sdiv	r6, r1, r7
 8005882:	fb07 1516 	mls	r5, r7, r6, r1
 8005886:	3530      	adds	r5, #48	; 0x30
 8005888:	2a63      	cmp	r2, #99	; 0x63
 800588a:	f104 34ff 	add.w	r4, r4, #4294967295
 800588e:	f80e 5c01 	strb.w	r5, [lr, #-1]
 8005892:	4631      	mov	r1, r6
 8005894:	dcf1      	bgt.n	800587a <__exponent+0x22>
 8005896:	3130      	adds	r1, #48	; 0x30
 8005898:	f1ae 0502 	sub.w	r5, lr, #2
 800589c:	f804 1c01 	strb.w	r1, [r4, #-1]
 80058a0:	1c44      	adds	r4, r0, #1
 80058a2:	4629      	mov	r1, r5
 80058a4:	4561      	cmp	r1, ip
 80058a6:	d30a      	bcc.n	80058be <__exponent+0x66>
 80058a8:	f10d 0209 	add.w	r2, sp, #9
 80058ac:	eba2 020e 	sub.w	r2, r2, lr
 80058b0:	4565      	cmp	r5, ip
 80058b2:	bf88      	it	hi
 80058b4:	2200      	movhi	r2, #0
 80058b6:	4413      	add	r3, r2
 80058b8:	1a18      	subs	r0, r3, r0
 80058ba:	b003      	add	sp, #12
 80058bc:	bdf0      	pop	{r4, r5, r6, r7, pc}
 80058be:	f811 2b01 	ldrb.w	r2, [r1], #1
 80058c2:	f804 2f01 	strb.w	r2, [r4, #1]!
 80058c6:	e7ed      	b.n	80058a4 <__exponent+0x4c>
 80058c8:	2330      	movs	r3, #48	; 0x30
 80058ca:	3130      	adds	r1, #48	; 0x30
 80058cc:	7083      	strb	r3, [r0, #2]
 80058ce:	70c1      	strb	r1, [r0, #3]
 80058d0:	1d03      	adds	r3, r0, #4
 80058d2:	e7f1      	b.n	80058b8 <__exponent+0x60>

080058d4 <_printf_float>:
 80058d4:	e92d 4ff0 	stmdb	sp!, {r4, r5, r6, r7, r8, r9, sl, fp, lr}
 80058d8:	ed2d 8b02 	vpush	{d8}
 80058dc:	b08d      	sub	sp, #52	; 0x34
 80058de:	460c      	mov	r4, r1
 80058e0:	f8dd 8060 	ldr.w	r8, [sp, #96]	; 0x60
 80058e4:	4616      	mov	r6, r2
 80058e6:	461f      	mov	r7, r3
 80058e8:	4605      	mov	r5, r0
 80058ea:	f003 f993 	bl	8008c14 <_localeconv_r>
 80058ee:	f8d0 a000 	ldr.w	sl, [r0]
 80058f2:	4650      	mov	r0, sl
 80058f4:	f7fa fc6c 	bl	80001d0 <strlen>
 80058f8:	2300      	movs	r3, #0
 80058fa:	930a      	str	r3, [sp, #40]	; 0x28
 80058fc:	6823      	ldr	r3, [r4, #0]
 80058fe:	9305      	str	r3, [sp, #20]
 8005900:	f8d8 3000 	ldr.w	r3, [r8]
 8005904:	f894 b018 	ldrb.w	fp, [r4, #24]
 8005908:	3307      	adds	r3, #7
 800590a:	f023 0307 	bic.w	r3, r3, #7
 800590e:	f103 0208 	add.w	r2, r3, #8
 8005912:	f8c8 2000 	str.w	r2, [r8]
 8005916:	e9d3 2300 	ldrd	r2, r3, [r3]
 800591a:	e9c4 2312 	strd	r2, r3, [r4, #72]	; 0x48
 800591e:	e9d4 8912 	ldrd	r8, r9, [r4, #72]	; 0x48
 8005922:	f029 4300 	bic.w	r3, r9, #2147483648	; 0x80000000
 8005926:	9307      	str	r3, [sp, #28]
 8005928:	f8cd 8018 	str.w	r8, [sp, #24]
 800592c:	ee08 0a10 	vmov	s16, r0
 8005930:	4b9f      	ldr	r3, [pc, #636]	; (8005bb0 <_printf_float+0x2dc>)
 8005932:	e9dd 0106 	ldrd	r0, r1, [sp, #24]
 8005936:	f04f 32ff 	mov.w	r2, #4294967295
 800593a:	f7fb f8f7 	bl	8000b2c <__aeabi_dcmpun>
 800593e:	bb88      	cbnz	r0, 80059a4 <_printf_float+0xd0>
 8005940:	e9dd 0106 	ldrd	r0, r1, [sp, #24]
 8005944:	4b9a      	ldr	r3, [pc, #616]	; (8005bb0 <_printf_float+0x2dc>)
 8005946:	f04f 32ff 	mov.w	r2, #4294967295
 800594a:	f7fb f8d1 	bl	8000af0 <__aeabi_dcmple>
 800594e:	bb48      	cbnz	r0, 80059a4 <_printf_float+0xd0>
 8005950:	2200      	movs	r2, #0
 8005952:	2300      	movs	r3, #0
 8005954:	4640      	mov	r0, r8
 8005956:	4649      	mov	r1, r9
 8005958:	f7fb f8c0 	bl	8000adc <__aeabi_dcmplt>
 800595c:	b110      	cbz	r0, 8005964 <_printf_float+0x90>
 800595e:	232d      	movs	r3, #45	; 0x2d
 8005960:	f884 3043 	strb.w	r3, [r4, #67]	; 0x43
 8005964:	4b93      	ldr	r3, [pc, #588]	; (8005bb4 <_printf_float+0x2e0>)
 8005966:	4894      	ldr	r0, [pc, #592]	; (8005bb8 <_printf_float+0x2e4>)
 8005968:	f1bb 0f47 	cmp.w	fp, #71	; 0x47
 800596c:	bf94      	ite	ls
 800596e:	4698      	movls	r8, r3
 8005970:	4680      	movhi	r8, r0
 8005972:	2303      	movs	r3, #3
 8005974:	6123      	str	r3, [r4, #16]
 8005976:	9b05      	ldr	r3, [sp, #20]
 8005978:	f023 0204 	bic.w	r2, r3, #4
 800597c:	6022      	str	r2, [r4, #0]
 800597e:	f04f 0900 	mov.w	r9, #0
 8005982:	9700      	str	r7, [sp, #0]
 8005984:	4633      	mov	r3, r6
 8005986:	aa0b      	add	r2, sp, #44	; 0x2c
 8005988:	4621      	mov	r1, r4
 800598a:	4628      	mov	r0, r5
 800598c:	f000 f9d8 	bl	8005d40 <_printf_common>
 8005990:	3001      	adds	r0, #1
 8005992:	f040 8090 	bne.w	8005ab6 <_printf_float+0x1e2>
 8005996:	f04f 30ff 	mov.w	r0, #4294967295
 800599a:	b00d      	add	sp, #52	; 0x34
 800599c:	ecbd 8b02 	vpop	{d8}
 80059a0:	e8bd 8ff0 	ldmia.w	sp!, {r4, r5, r6, r7, r8, r9, sl, fp, pc}
 80059a4:	4642      	mov	r2, r8
 80059a6:	464b      	mov	r3, r9
 80059a8:	4640      	mov	r0, r8
 80059aa:	4649      	mov	r1, r9
 80059ac:	f7fb f8be 	bl	8000b2c <__aeabi_dcmpun>
 80059b0:	b140      	cbz	r0, 80059c4 <_printf_float+0xf0>
 80059b2:	464b      	mov	r3, r9
 80059b4:	2b00      	cmp	r3, #0
 80059b6:	bfbc      	itt	lt
 80059b8:	232d      	movlt	r3, #45	; 0x2d
 80059ba:	f884 3043 	strblt.w	r3, [r4, #67]	; 0x43
 80059be:	487f      	ldr	r0, [pc, #508]	; (8005bbc <_printf_float+0x2e8>)
 80059c0:	4b7f      	ldr	r3, [pc, #508]	; (8005bc0 <_printf_float+0x2ec>)
 80059c2:	e7d1      	b.n	8005968 <_printf_float+0x94>
 80059c4:	6863      	ldr	r3, [r4, #4]
 80059c6:	f00b 02df 	and.w	r2, fp, #223	; 0xdf
 80059ca:	9206      	str	r2, [sp, #24]
 80059cc:	1c5a      	adds	r2, r3, #1
 80059ce:	d13f      	bne.n	8005a50 <_printf_float+0x17c>
 80059d0:	2306      	movs	r3, #6
 80059d2:	6063      	str	r3, [r4, #4]
 80059d4:	9b05      	ldr	r3, [sp, #20]
 80059d6:	6861      	ldr	r1, [r4, #4]
 80059d8:	f443 6280 	orr.w	r2, r3, #1024	; 0x400
 80059dc:	2300      	movs	r3, #0
 80059de:	9303      	str	r3, [sp, #12]
 80059e0:	ab0a      	add	r3, sp, #40	; 0x28
 80059e2:	e9cd b301 	strd	fp, r3, [sp, #4]
 80059e6:	ab09      	add	r3, sp, #36	; 0x24
 80059e8:	ec49 8b10 	vmov	d0, r8, r9
 80059ec:	9300      	str	r3, [sp, #0]
 80059ee:	6022      	str	r2, [r4, #0]
 80059f0:	f10d 0323 	add.w	r3, sp, #35	; 0x23
 80059f4:	4628      	mov	r0, r5
 80059f6:	f7ff fecd 	bl	8005794 <__cvt>
 80059fa:	9b06      	ldr	r3, [sp, #24]
 80059fc:	9909      	ldr	r1, [sp, #36]	; 0x24
 80059fe:	2b47      	cmp	r3, #71	; 0x47
 8005a00:	4680      	mov	r8, r0
 8005a02:	d108      	bne.n	8005a16 <_printf_float+0x142>
 8005a04:	1cc8      	adds	r0, r1, #3
 8005a06:	db02      	blt.n	8005a0e <_printf_float+0x13a>
 8005a08:	6863      	ldr	r3, [r4, #4]
 8005a0a:	4299      	cmp	r1, r3
 8005a0c:	dd41      	ble.n	8005a92 <_printf_float+0x1be>
 8005a0e:	f1ab 0b02 	sub.w	fp, fp, #2
 8005a12:	fa5f fb8b 	uxtb.w	fp, fp
 8005a16:	f1bb 0f65 	cmp.w	fp, #101	; 0x65
 8005a1a:	d820      	bhi.n	8005a5e <_printf_float+0x18a>
 8005a1c:	3901      	subs	r1, #1
 8005a1e:	465a      	mov	r2, fp
 8005a20:	f104 0050 	add.w	r0, r4, #80	; 0x50
 8005a24:	9109      	str	r1, [sp, #36]	; 0x24
 8005a26:	f7ff ff17 	bl	8005858 <__exponent>
 8005a2a:	9a0a      	ldr	r2, [sp, #40]	; 0x28
 8005a2c:	1813      	adds	r3, r2, r0
 8005a2e:	2a01      	cmp	r2, #1
 8005a30:	4681      	mov	r9, r0
 8005a32:	6123      	str	r3, [r4, #16]
 8005a34:	dc02      	bgt.n	8005a3c <_printf_float+0x168>
 8005a36:	6822      	ldr	r2, [r4, #0]
 8005a38:	07d2      	lsls	r2, r2, #31
 8005a3a:	d501      	bpl.n	8005a40 <_printf_float+0x16c>
 8005a3c:	3301      	adds	r3, #1
 8005a3e:	6123      	str	r3, [r4, #16]
 8005a40:	f89d 3023 	ldrb.w	r3, [sp, #35]	; 0x23
 8005a44:	2b00      	cmp	r3, #0
 8005a46:	d09c      	beq.n	8005982 <_printf_float+0xae>
 8005a48:	232d      	movs	r3, #45	; 0x2d
 8005a4a:	f884 3043 	strb.w	r3, [r4, #67]	; 0x43
 8005a4e:	e798      	b.n	8005982 <_printf_float+0xae>
 8005a50:	9a06      	ldr	r2, [sp, #24]
 8005a52:	2a47      	cmp	r2, #71	; 0x47
 8005a54:	d1be      	bne.n	80059d4 <_printf_float+0x100>
 8005a56:	2b00      	cmp	r3, #0
 8005a58:	d1bc      	bne.n	80059d4 <_printf_float+0x100>
 8005a5a:	2301      	movs	r3, #1
 8005a5c:	e7b9      	b.n	80059d2 <_printf_float+0xfe>
 8005a5e:	f1bb 0f66 	cmp.w	fp, #102	; 0x66
 8005a62:	d118      	bne.n	8005a96 <_printf_float+0x1c2>
 8005a64:	2900      	cmp	r1, #0
 8005a66:	6863      	ldr	r3, [r4, #4]
 8005a68:	dd0b      	ble.n	8005a82 <_printf_float+0x1ae>
 8005a6a:	6121      	str	r1, [r4, #16]
 8005a6c:	b913      	cbnz	r3, 8005a74 <_printf_float+0x1a0>
 8005a6e:	6822      	ldr	r2, [r4, #0]
 8005a70:	07d0      	lsls	r0, r2, #31
 8005a72:	d502      	bpl.n	8005a7a <_printf_float+0x1a6>
 8005a74:	3301      	adds	r3, #1
 8005a76:	440b      	add	r3, r1
 8005a78:	6123      	str	r3, [r4, #16]
 8005a7a:	65a1      	str	r1, [r4, #88]	; 0x58
 8005a7c:	f04f 0900 	mov.w	r9, #0
 8005a80:	e7de      	b.n	8005a40 <_printf_float+0x16c>
 8005a82:	b913      	cbnz	r3, 8005a8a <_printf_float+0x1b6>
 8005a84:	6822      	ldr	r2, [r4, #0]
 8005a86:	07d2      	lsls	r2, r2, #31
 8005a88:	d501      	bpl.n	8005a8e <_printf_float+0x1ba>
 8005a8a:	3302      	adds	r3, #2
 8005a8c:	e7f4      	b.n	8005a78 <_printf_float+0x1a4>
 8005a8e:	2301      	movs	r3, #1
 8005a90:	e7f2      	b.n	8005a78 <_printf_float+0x1a4>
 8005a92:	f04f 0b67 	mov.w	fp, #103	; 0x67
 8005a96:	9b0a      	ldr	r3, [sp, #40]	; 0x28
 8005a98:	4299      	cmp	r1, r3
 8005a9a:	db05      	blt.n	8005aa8 <_printf_float+0x1d4>
 8005a9c:	6823      	ldr	r3, [r4, #0]
 8005a9e:	6121      	str	r1, [r4, #16]
 8005aa0:	07d8      	lsls	r0, r3, #31
 8005aa2:	d5ea      	bpl.n	8005a7a <_printf_float+0x1a6>
 8005aa4:	1c4b      	adds	r3, r1, #1
 8005aa6:	e7e7      	b.n	8005a78 <_printf_float+0x1a4>
 8005aa8:	2900      	cmp	r1, #0
 8005aaa:	bfd4      	ite	le
 8005aac:	f1c1 0202 	rsble	r2, r1, #2
 8005ab0:	2201      	movgt	r2, #1
 8005ab2:	4413      	add	r3, r2
 8005ab4:	e7e0      	b.n	8005a78 <_printf_float+0x1a4>
 8005ab6:	6823      	ldr	r3, [r4, #0]
 8005ab8:	055a      	lsls	r2, r3, #21
 8005aba:	d407      	bmi.n	8005acc <_printf_float+0x1f8>
 8005abc:	6923      	ldr	r3, [r4, #16]
 8005abe:	4642      	mov	r2, r8
 8005ac0:	4631      	mov	r1, r6
 8005ac2:	4628      	mov	r0, r5
 8005ac4:	47b8      	blx	r7
 8005ac6:	3001      	adds	r0, #1
 8005ac8:	d12c      	bne.n	8005b24 <_printf_float+0x250>
 8005aca:	e764      	b.n	8005996 <_printf_float+0xc2>
 8005acc:	f1bb 0f65 	cmp.w	fp, #101	; 0x65
 8005ad0:	f240 80e0 	bls.w	8005c94 <_printf_float+0x3c0>
 8005ad4:	e9d4 0112 	ldrd	r0, r1, [r4, #72]	; 0x48
 8005ad8:	2200      	movs	r2, #0
 8005ada:	2300      	movs	r3, #0
 8005adc:	f7fa fff4 	bl	8000ac8 <__aeabi_dcmpeq>
 8005ae0:	2800      	cmp	r0, #0
 8005ae2:	d034      	beq.n	8005b4e <_printf_float+0x27a>
 8005ae4:	4a37      	ldr	r2, [pc, #220]	; (8005bc4 <_printf_float+0x2f0>)
 8005ae6:	2301      	movs	r3, #1
 8005ae8:	4631      	mov	r1, r6
 8005aea:	4628      	mov	r0, r5
 8005aec:	47b8      	blx	r7
 8005aee:	3001      	adds	r0, #1
 8005af0:	f43f af51 	beq.w	8005996 <_printf_float+0xc2>
 8005af4:	e9dd 2309 	ldrd	r2, r3, [sp, #36]	; 0x24
 8005af8:	429a      	cmp	r2, r3
 8005afa:	db02      	blt.n	8005b02 <_printf_float+0x22e>
 8005afc:	6823      	ldr	r3, [r4, #0]
 8005afe:	07d8      	lsls	r0, r3, #31
 8005b00:	d510      	bpl.n	8005b24 <_printf_float+0x250>
 8005b02:	ee18 3a10 	vmov	r3, s16
 8005b06:	4652      	mov	r2, sl
 8005b08:	4631      	mov	r1, r6
 8005b0a:	4628      	mov	r0, r5
 8005b0c:	47b8      	blx	r7
 8005b0e:	3001      	adds	r0, #1
 8005b10:	f43f af41 	beq.w	8005996 <_printf_float+0xc2>
 8005b14:	f04f 0800 	mov.w	r8, #0
 8005b18:	f104 091a 	add.w	r9, r4, #26
 8005b1c:	9b0a      	ldr	r3, [sp, #40]	; 0x28
 8005b1e:	3b01      	subs	r3, #1
 8005b20:	4543      	cmp	r3, r8
 8005b22:	dc09      	bgt.n	8005b38 <_printf_float+0x264>
 8005b24:	6823      	ldr	r3, [r4, #0]
 8005b26:	079b      	lsls	r3, r3, #30
 8005b28:	f100 8105 	bmi.w	8005d36 <_printf_float+0x462>
 8005b2c:	68e0      	ldr	r0, [r4, #12]
 8005b2e:	9b0b      	ldr	r3, [sp, #44]	; 0x2c
 8005b30:	4298      	cmp	r0, r3
 8005b32:	bfb8      	it	lt
 8005b34:	4618      	movlt	r0, r3
 8005b36:	e730      	b.n	800599a <_printf_float+0xc6>
 8005b38:	2301      	movs	r3, #1
 8005b3a:	464a      	mov	r2, r9
 8005b3c:	4631      	mov	r1, r6
 8005b3e:	4628      	mov	r0, r5
 8005b40:	47b8      	blx	r7
 8005b42:	3001      	adds	r0, #1
 8005b44:	f43f af27 	beq.w	8005996 <_printf_float+0xc2>
 8005b48:	f108 0801 	add.w	r8, r8, #1
 8005b4c:	e7e6      	b.n	8005b1c <_printf_float+0x248>
 8005b4e:	9b09      	ldr	r3, [sp, #36]	; 0x24
 8005b50:	2b00      	cmp	r3, #0
 8005b52:	dc39      	bgt.n	8005bc8 <_printf_float+0x2f4>
 8005b54:	4a1b      	ldr	r2, [pc, #108]	; (8005bc4 <_printf_float+0x2f0>)
 8005b56:	2301      	movs	r3, #1
 8005b58:	4631      	mov	r1, r6
 8005b5a:	4628      	mov	r0, r5
 8005b5c:	47b8      	blx	r7
 8005b5e:	3001      	adds	r0, #1
 8005b60:	f43f af19 	beq.w	8005996 <_printf_float+0xc2>
 8005b64:	e9dd 2309 	ldrd	r2, r3, [sp, #36]	; 0x24
 8005b68:	4313      	orrs	r3, r2
 8005b6a:	d102      	bne.n	8005b72 <_printf_float+0x29e>
 8005b6c:	6823      	ldr	r3, [r4, #0]
 8005b6e:	07d9      	lsls	r1, r3, #31
 8005b70:	d5d8      	bpl.n	8005b24 <_printf_float+0x250>
 8005b72:	ee18 3a10 	vmov	r3, s16
 8005b76:	4652      	mov	r2, sl
 8005b78:	4631      	mov	r1, r6
 8005b7a:	4628      	mov	r0, r5
 8005b7c:	47b8      	blx	r7
 8005b7e:	3001      	adds	r0, #1
 8005b80:	f43f af09 	beq.w	8005996 <_printf_float+0xc2>
 8005b84:	f04f 0900 	mov.w	r9, #0
 8005b88:	f104 0a1a 	add.w	sl, r4, #26
 8005b8c:	9b09      	ldr	r3, [sp, #36]	; 0x24
 8005b8e:	425b      	negs	r3, r3
 8005b90:	454b      	cmp	r3, r9
 8005b92:	dc01      	bgt.n	8005b98 <_printf_float+0x2c4>
 8005b94:	9b0a      	ldr	r3, [sp, #40]	; 0x28
 8005b96:	e792      	b.n	8005abe <_printf_float+0x1ea>
 8005b98:	2301      	movs	r3, #1
 8005b9a:	4652      	mov	r2, sl
 8005b9c:	4631      	mov	r1, r6
 8005b9e:	4628      	mov	r0, r5
 8005ba0:	47b8      	blx	r7
 8005ba2:	3001      	adds	r0, #1
 8005ba4:	f43f aef7 	beq.w	8005996 <_printf_float+0xc2>
 8005ba8:	f109 0901 	add.w	r9, r9, #1
 8005bac:	e7ee      	b.n	8005b8c <_printf_float+0x2b8>
 8005bae:	bf00      	nop
 8005bb0:	7fefffff 	.word	0x7fefffff
 8005bb4:	0800b14c 	.word	0x0800b14c
 8005bb8:	0800b150 	.word	0x0800b150
 8005bbc:	0800b158 	.word	0x0800b158
 8005bc0:	0800b154 	.word	0x0800b154
 8005bc4:	0800b15c 	.word	0x0800b15c
 8005bc8:	9a0a      	ldr	r2, [sp, #40]	; 0x28
 8005bca:	6da3      	ldr	r3, [r4, #88]	; 0x58
 8005bcc:	429a      	cmp	r2, r3
 8005bce:	bfa8      	it	ge
 8005bd0:	461a      	movge	r2, r3
 8005bd2:	2a00      	cmp	r2, #0
 8005bd4:	4691      	mov	r9, r2
 8005bd6:	dc37      	bgt.n	8005c48 <_printf_float+0x374>
 8005bd8:	f04f 0b00 	mov.w	fp, #0
 8005bdc:	ea29 79e9 	bic.w	r9, r9, r9, asr #31
 8005be0:	f104 021a 	add.w	r2, r4, #26
 8005be4:	6da3      	ldr	r3, [r4, #88]	; 0x58
 8005be6:	9305      	str	r3, [sp, #20]
 8005be8:	eba3 0309 	sub.w	r3, r3, r9
 8005bec:	455b      	cmp	r3, fp
 8005bee:	dc33      	bgt.n	8005c58 <_printf_float+0x384>
 8005bf0:	e9dd 2309 	ldrd	r2, r3, [sp, #36]	; 0x24
 8005bf4:	429a      	cmp	r2, r3
 8005bf6:	db3b      	blt.n	8005c70 <_printf_float+0x39c>
 8005bf8:	6823      	ldr	r3, [r4, #0]
 8005bfa:	07da      	lsls	r2, r3, #31
 8005bfc:	d438      	bmi.n	8005c70 <_printf_float+0x39c>
 8005bfe:	9a0a      	ldr	r2, [sp, #40]	; 0x28
 8005c00:	9b05      	ldr	r3, [sp, #20]
 8005c02:	9909      	ldr	r1, [sp, #36]	; 0x24
 8005c04:	1ad3      	subs	r3, r2, r3
 8005c06:	eba2 0901 	sub.w	r9, r2, r1
 8005c0a:	4599      	cmp	r9, r3
 8005c0c:	bfa8      	it	ge
 8005c0e:	4699      	movge	r9, r3
 8005c10:	f1b9 0f00 	cmp.w	r9, #0
 8005c14:	dc35      	bgt.n	8005c82 <_printf_float+0x3ae>
 8005c16:	f04f 0800 	mov.w	r8, #0
 8005c1a:	ea29 79e9 	bic.w	r9, r9, r9, asr #31
 8005c1e:	f104 0a1a 	add.w	sl, r4, #26
 8005c22:	e9dd 2309 	ldrd	r2, r3, [sp, #36]	; 0x24
 8005c26:	1a9b      	subs	r3, r3, r2
 8005c28:	eba3 0309 	sub.w	r3, r3, r9
 8005c2c:	4543      	cmp	r3, r8
 8005c2e:	f77f af79 	ble.w	8005b24 <_printf_float+0x250>
 8005c32:	2301      	movs	r3, #1
 8005c34:	4652      	mov	r2, sl
 8005c36:	4631      	mov	r1, r6
 8005c38:	4628      	mov	r0, r5
 8005c3a:	47b8      	blx	r7
 8005c3c:	3001      	adds	r0, #1
 8005c3e:	f43f aeaa 	beq.w	8005996 <_printf_float+0xc2>
 8005c42:	f108 0801 	add.w	r8, r8, #1
 8005c46:	e7ec      	b.n	8005c22 <_printf_float+0x34e>
 8005c48:	4613      	mov	r3, r2
 8005c4a:	4631      	mov	r1, r6
 8005c4c:	4642      	mov	r2, r8
 8005c4e:	4628      	mov	r0, r5
 8005c50:	47b8      	blx	r7
 8005c52:	3001      	adds	r0, #1
 8005c54:	d1c0      	bne.n	8005bd8 <_printf_float+0x304>
 8005c56:	e69e      	b.n	8005996 <_printf_float+0xc2>
 8005c58:	2301      	movs	r3, #1
 8005c5a:	4631      	mov	r1, r6
 8005c5c:	4628      	mov	r0, r5
 8005c5e:	9205      	str	r2, [sp, #20]
 8005c60:	47b8      	blx	r7
 8005c62:	3001      	adds	r0, #1
 8005c64:	f43f ae97 	beq.w	8005996 <_printf_float+0xc2>
 8005c68:	9a05      	ldr	r2, [sp, #20]
 8005c6a:	f10b 0b01 	add.w	fp, fp, #1
 8005c6e:	e7b9      	b.n	8005be4 <_printf_float+0x310>
 8005c70:	ee18 3a10 	vmov	r3, s16
 8005c74:	4652      	mov	r2, sl
 8005c76:	4631      	mov	r1, r6
 8005c78:	4628      	mov	r0, r5
 8005c7a:	47b8      	blx	r7
 8005c7c:	3001      	adds	r0, #1
 8005c7e:	d1be      	bne.n	8005bfe <_printf_float+0x32a>
 8005c80:	e689      	b.n	8005996 <_printf_float+0xc2>
 8005c82:	9a05      	ldr	r2, [sp, #20]
 8005c84:	464b      	mov	r3, r9
 8005c86:	4442      	add	r2, r8
 8005c88:	4631      	mov	r1, r6
 8005c8a:	4628      	mov	r0, r5
 8005c8c:	47b8      	blx	r7
 8005c8e:	3001      	adds	r0, #1
 8005c90:	d1c1      	bne.n	8005c16 <_printf_float+0x342>
 8005c92:	e680      	b.n	8005996 <_printf_float+0xc2>
 8005c94:	9a0a      	ldr	r2, [sp, #40]	; 0x28
 8005c96:	2a01      	cmp	r2, #1
 8005c98:	dc01      	bgt.n	8005c9e <_printf_float+0x3ca>
 8005c9a:	07db      	lsls	r3, r3, #31
 8005c9c:	d538      	bpl.n	8005d10 <_printf_float+0x43c>
 8005c9e:	2301      	movs	r3, #1
 8005ca0:	4642      	mov	r2, r8
 8005ca2:	4631      	mov	r1, r6
 8005ca4:	4628      	mov	r0, r5
 8005ca6:	47b8      	blx	r7
 8005ca8:	3001      	adds	r0, #1
 8005caa:	f43f ae74 	beq.w	8005996 <_printf_float+0xc2>
 8005cae:	ee18 3a10 	vmov	r3, s16
 8005cb2:	4652      	mov	r2, sl
 8005cb4:	4631      	mov	r1, r6
 8005cb6:	4628      	mov	r0, r5
 8005cb8:	47b8      	blx	r7
 8005cba:	3001      	adds	r0, #1
 8005cbc:	f43f ae6b 	beq.w	8005996 <_printf_float+0xc2>
 8005cc0:	e9d4 0112 	ldrd	r0, r1, [r4, #72]	; 0x48
 8005cc4:	2200      	movs	r2, #0
 8005cc6:	2300      	movs	r3, #0
 8005cc8:	f7fa fefe 	bl	8000ac8 <__aeabi_dcmpeq>
 8005ccc:	b9d8      	cbnz	r0, 8005d06 <_printf_float+0x432>
 8005cce:	9b0a      	ldr	r3, [sp, #40]	; 0x28
 8005cd0:	f108 0201 	add.w	r2, r8, #1
 8005cd4:	3b01      	subs	r3, #1
 8005cd6:	4631      	mov	r1, r6
 8005cd8:	4628      	mov	r0, r5
 8005cda:	47b8      	blx	r7
 8005cdc:	3001      	adds	r0, #1
 8005cde:	d10e      	bne.n	8005cfe <_printf_float+0x42a>
 8005ce0:	e659      	b.n	8005996 <_printf_float+0xc2>
 8005ce2:	2301      	movs	r3, #1
 8005ce4:	4652      	mov	r2, sl
 8005ce6:	4631      	mov	r1, r6
 8005ce8:	4628      	mov	r0, r5
 8005cea:	47b8      	blx	r7
 8005cec:	3001      	adds	r0, #1
 8005cee:	f43f ae52 	beq.w	8005996 <_printf_float+0xc2>
 8005cf2:	f108 0801 	add.w	r8, r8, #1
 8005cf6:	9b0a      	ldr	r3, [sp, #40]	; 0x28
 8005cf8:	3b01      	subs	r3, #1
 8005cfa:	4543      	cmp	r3, r8
 8005cfc:	dcf1      	bgt.n	8005ce2 <_printf_float+0x40e>
 8005cfe:	464b      	mov	r3, r9
 8005d00:	f104 0250 	add.w	r2, r4, #80	; 0x50
 8005d04:	e6dc      	b.n	8005ac0 <_printf_float+0x1ec>
 8005d06:	f04f 0800 	mov.w	r8, #0
 8005d0a:	f104 0a1a 	add.w	sl, r4, #26
 8005d0e:	e7f2      	b.n	8005cf6 <_printf_float+0x422>
 8005d10:	2301      	movs	r3, #1
 8005d12:	4642      	mov	r2, r8
 8005d14:	e7df      	b.n	8005cd6 <_printf_float+0x402>
 8005d16:	2301      	movs	r3, #1
 8005d18:	464a      	mov	r2, r9
 8005d1a:	4631      	mov	r1, r6
 8005d1c:	4628      	mov	r0, r5
 8005d1e:	47b8      	blx	r7
 8005d20:	3001      	adds	r0, #1
 8005d22:	f43f ae38 	beq.w	8005996 <_printf_float+0xc2>
 8005d26:	f108 0801 	add.w	r8, r8, #1
 8005d2a:	68e3      	ldr	r3, [r4, #12]
 8005d2c:	990b      	ldr	r1, [sp, #44]	; 0x2c
 8005d2e:	1a5b      	subs	r3, r3, r1
 8005d30:	4543      	cmp	r3, r8
 8005d32:	dcf0      	bgt.n	8005d16 <_printf_float+0x442>
 8005d34:	e6fa      	b.n	8005b2c <_printf_float+0x258>
 8005d36:	f04f 0800 	mov.w	r8, #0
 8005d3a:	f104 0919 	add.w	r9, r4, #25
 8005d3e:	e7f4      	b.n	8005d2a <_printf_float+0x456>

08005d40 <_printf_common>:
 8005d40:	e92d 47f0 	stmdb	sp!, {r4, r5, r6, r7, r8, r9, sl, lr}
 8005d44:	4616      	mov	r6, r2
 8005d46:	4699      	mov	r9, r3
 8005d48:	688a      	ldr	r2, [r1, #8]
 8005d4a:	690b      	ldr	r3, [r1, #16]
 8005d4c:	f8dd 8020 	ldr.w	r8, [sp, #32]
 8005d50:	4293      	cmp	r3, r2
 8005d52:	bfb8      	it	lt
 8005d54:	4613      	movlt	r3, r2
 8005d56:	6033      	str	r3, [r6, #0]
 8005d58:	f891 2043 	ldrb.w	r2, [r1, #67]	; 0x43
 8005d5c:	4607      	mov	r7, r0
 8005d5e:	460c      	mov	r4, r1
 8005d60:	b10a      	cbz	r2, 8005d66 <_printf_common+0x26>
 8005d62:	3301      	adds	r3, #1
 8005d64:	6033      	str	r3, [r6, #0]
 8005d66:	6823      	ldr	r3, [r4, #0]
 8005d68:	0699      	lsls	r1, r3, #26
 8005d6a:	bf42      	ittt	mi
 8005d6c:	6833      	ldrmi	r3, [r6, #0]
 8005d6e:	3302      	addmi	r3, #2
 8005d70:	6033      	strmi	r3, [r6, #0]
 8005d72:	6825      	ldr	r5, [r4, #0]
 8005d74:	f015 0506 	ands.w	r5, r5, #6
 8005d78:	d106      	bne.n	8005d88 <_printf_common+0x48>
 8005d7a:	f104 0a19 	add.w	sl, r4, #25
 8005d7e:	68e3      	ldr	r3, [r4, #12]
 8005d80:	6832      	ldr	r2, [r6, #0]
 8005d82:	1a9b      	subs	r3, r3, r2
 8005d84:	42ab      	cmp	r3, r5
 8005d86:	dc26      	bgt.n	8005dd6 <_printf_common+0x96>
 8005d88:	f894 2043 	ldrb.w	r2, [r4, #67]	; 0x43
 8005d8c:	1e13      	subs	r3, r2, #0
 8005d8e:	6822      	ldr	r2, [r4, #0]
 8005d90:	bf18      	it	ne
 8005d92:	2301      	movne	r3, #1
 8005d94:	0692      	lsls	r2, r2, #26
 8005d96:	d42b      	bmi.n	8005df0 <_printf_common+0xb0>
 8005d98:	f104 0243 	add.w	r2, r4, #67	; 0x43
 8005d9c:	4649      	mov	r1, r9
 8005d9e:	4638      	mov	r0, r7
 8005da0:	47c0      	blx	r8
 8005da2:	3001      	adds	r0, #1
 8005da4:	d01e      	beq.n	8005de4 <_printf_common+0xa4>
 8005da6:	6823      	ldr	r3, [r4, #0]
 8005da8:	68e5      	ldr	r5, [r4, #12]
 8005daa:	6832      	ldr	r2, [r6, #0]
 8005dac:	f003 0306 	and.w	r3, r3, #6
 8005db0:	2b04      	cmp	r3, #4
 8005db2:	bf08      	it	eq
 8005db4:	1aad      	subeq	r5, r5, r2
 8005db6:	68a3      	ldr	r3, [r4, #8]
 8005db8:	6922      	ldr	r2, [r4, #16]
 8005dba:	bf0c      	ite	eq
 8005dbc:	ea25 75e5 	biceq.w	r5, r5, r5, asr #31
 8005dc0:	2500      	movne	r5, #0
 8005dc2:	4293      	cmp	r3, r2
 8005dc4:	bfc4      	itt	gt
 8005dc6:	1a9b      	subgt	r3, r3, r2
 8005dc8:	18ed      	addgt	r5, r5, r3
 8005dca:	2600      	movs	r6, #0
 8005dcc:	341a      	adds	r4, #26
 8005dce:	42b5      	cmp	r5, r6
 8005dd0:	d11a      	bne.n	8005e08 <_printf_common+0xc8>
 8005dd2:	2000      	movs	r0, #0
 8005dd4:	e008      	b.n	8005de8 <_printf_common+0xa8>
 8005dd6:	2301      	movs	r3, #1
 8005dd8:	4652      	mov	r2, sl
 8005dda:	4649      	mov	r1, r9
 8005ddc:	4638      	mov	r0, r7
 8005dde:	47c0      	blx	r8
 8005de0:	3001      	adds	r0, #1
 8005de2:	d103      	bne.n	8005dec <_printf_common+0xac>
 8005de4:	f04f 30ff 	mov.w	r0, #4294967295
 8005de8:	e8bd 87f0 	ldmia.w	sp!, {r4, r5, r6, r7, r8, r9, sl, pc}
 8005dec:	3501      	adds	r5, #1
 8005dee:	e7c6      	b.n	8005d7e <_printf_common+0x3e>
 8005df0:	18e1      	adds	r1, r4, r3
 8005df2:	1c5a      	adds	r2, r3, #1
 8005df4:	2030      	movs	r0, #48	; 0x30
 8005df6:	f881 0043 	strb.w	r0, [r1, #67]	; 0x43
 8005dfa:	4422      	add	r2, r4
 8005dfc:	f894 1045 	ldrb.w	r1, [r4, #69]	; 0x45
 8005e00:	f882 1043 	strb.w	r1, [r2, #67]	; 0x43
 8005e04:	3302      	adds	r3, #2
 8005e06:	e7c7      	b.n	8005d98 <_printf_common+0x58>
 8005e08:	2301      	movs	r3, #1
 8005e0a:	4622      	mov	r2, r4
 8005e0c:	4649      	mov	r1, r9
 8005e0e:	4638      	mov	r0, r7
 8005e10:	47c0      	blx	r8
 8005e12:	3001      	adds	r0, #1
 8005e14:	d0e6      	beq.n	8005de4 <_printf_common+0xa4>
 8005e16:	3601      	adds	r6, #1
 8005e18:	e7d9      	b.n	8005dce <_printf_common+0x8e>
	...

08005e1c <_printf_i>:
 8005e1c:	e92d 47ff 	stmdb	sp!, {r0, r1, r2, r3, r4, r5, r6, r7, r8, r9, sl, lr}
 8005e20:	460c      	mov	r4, r1
 8005e22:	4691      	mov	r9, r2
 8005e24:	7e27      	ldrb	r7, [r4, #24]
 8005e26:	990c      	ldr	r1, [sp, #48]	; 0x30
 8005e28:	2f78      	cmp	r7, #120	; 0x78
 8005e2a:	4680      	mov	r8, r0
 8005e2c:	469a      	mov	sl, r3
 8005e2e:	f104 0243 	add.w	r2, r4, #67	; 0x43
 8005e32:	d807      	bhi.n	8005e44 <_printf_i+0x28>
 8005e34:	2f62      	cmp	r7, #98	; 0x62
 8005e36:	d80a      	bhi.n	8005e4e <_printf_i+0x32>
 8005e38:	2f00      	cmp	r7, #0
 8005e3a:	f000 80d8 	beq.w	8005fee <_printf_i+0x1d2>
 8005e3e:	2f58      	cmp	r7, #88	; 0x58
 8005e40:	f000 80a3 	beq.w	8005f8a <_printf_i+0x16e>
 8005e44:	f104 0642 	add.w	r6, r4, #66	; 0x42
 8005e48:	f884 7042 	strb.w	r7, [r4, #66]	; 0x42
 8005e4c:	e03a      	b.n	8005ec4 <_printf_i+0xa8>
 8005e4e:	f1a7 0363 	sub.w	r3, r7, #99	; 0x63
 8005e52:	2b15      	cmp	r3, #21
 8005e54:	d8f6      	bhi.n	8005e44 <_printf_i+0x28>
 8005e56:	a001      	add	r0, pc, #4	; (adr r0, 8005e5c <_printf_i+0x40>)
 8005e58:	f850 f023 	ldr.w	pc, [r0, r3, lsl #2]
 8005e5c:	08005eb5 	.word	0x08005eb5
 8005e60:	08005ec9 	.word	0x08005ec9
 8005e64:	08005e45 	.word	0x08005e45
 8005e68:	08005e45 	.word	0x08005e45
 8005e6c:	08005e45 	.word	0x08005e45
 8005e70:	08005e45 	.word	0x08005e45
 8005e74:	08005ec9 	.word	0x08005ec9
 8005e78:	08005e45 	.word	0x08005e45
 8005e7c:	08005e45 	.word	0x08005e45
 8005e80:	08005e45 	.word	0x08005e45
 8005e84:	08005e45 	.word	0x08005e45
 8005e88:	08005fd5 	.word	0x08005fd5
 8005e8c:	08005ef9 	.word	0x08005ef9
 8005e90:	08005fb7 	.word	0x08005fb7
 8005e94:	08005e45 	.word	0x08005e45
 8005e98:	08005e45 	.word	0x08005e45
 8005e9c:	08005ff7 	.word	0x08005ff7
 8005ea0:	08005e45 	.word	0x08005e45
 8005ea4:	08005ef9 	.word	0x08005ef9
 8005ea8:	08005e45 	.word	0x08005e45
 8005eac:	08005e45 	.word	0x08005e45
 8005eb0:	08005fbf 	.word	0x08005fbf
 8005eb4:	680b      	ldr	r3, [r1, #0]
 8005eb6:	1d1a      	adds	r2, r3, #4
 8005eb8:	681b      	ldr	r3, [r3, #0]
 8005eba:	600a      	str	r2, [r1, #0]
 8005ebc:	f104 0642 	add.w	r6, r4, #66	; 0x42
 8005ec0:	f884 3042 	strb.w	r3, [r4, #66]	; 0x42
 8005ec4:	2301      	movs	r3, #1
 8005ec6:	e0a3      	b.n	8006010 <_printf_i+0x1f4>
 8005ec8:	6825      	ldr	r5, [r4, #0]
 8005eca:	6808      	ldr	r0, [r1, #0]
 8005ecc:	062e      	lsls	r6, r5, #24
 8005ece:	f100 0304 	add.w	r3, r0, #4
 8005ed2:	d50a      	bpl.n	8005eea <_printf_i+0xce>
 8005ed4:	6805      	ldr	r5, [r0, #0]
 8005ed6:	600b      	str	r3, [r1, #0]
 8005ed8:	2d00      	cmp	r5, #0
 8005eda:	da03      	bge.n	8005ee4 <_printf_i+0xc8>
 8005edc:	232d      	movs	r3, #45	; 0x2d
 8005ede:	426d      	negs	r5, r5
 8005ee0:	f884 3043 	strb.w	r3, [r4, #67]	; 0x43
 8005ee4:	485e      	ldr	r0, [pc, #376]	; (8006060 <_printf_i+0x244>)
 8005ee6:	230a      	movs	r3, #10
 8005ee8:	e019      	b.n	8005f1e <_printf_i+0x102>
 8005eea:	f015 0f40 	tst.w	r5, #64	; 0x40
 8005eee:	6805      	ldr	r5, [r0, #0]
 8005ef0:	600b      	str	r3, [r1, #0]
 8005ef2:	bf18      	it	ne
 8005ef4:	b22d      	sxthne	r5, r5
 8005ef6:	e7ef      	b.n	8005ed8 <_printf_i+0xbc>
 8005ef8:	680b      	ldr	r3, [r1, #0]
 8005efa:	6825      	ldr	r5, [r4, #0]
 8005efc:	1d18      	adds	r0, r3, #4
 8005efe:	6008      	str	r0, [r1, #0]
 8005f00:	0628      	lsls	r0, r5, #24
 8005f02:	d501      	bpl.n	8005f08 <_printf_i+0xec>
 8005f04:	681d      	ldr	r5, [r3, #0]
 8005f06:	e002      	b.n	8005f0e <_printf_i+0xf2>
 8005f08:	0669      	lsls	r1, r5, #25
 8005f0a:	d5fb      	bpl.n	8005f04 <_printf_i+0xe8>
 8005f0c:	881d      	ldrh	r5, [r3, #0]
 8005f0e:	4854      	ldr	r0, [pc, #336]	; (8006060 <_printf_i+0x244>)
 8005f10:	2f6f      	cmp	r7, #111	; 0x6f
 8005f12:	bf0c      	ite	eq
 8005f14:	2308      	moveq	r3, #8
 8005f16:	230a      	movne	r3, #10
 8005f18:	2100      	movs	r1, #0
 8005f1a:	f884 1043 	strb.w	r1, [r4, #67]	; 0x43
 8005f1e:	6866      	ldr	r6, [r4, #4]
 8005f20:	60a6      	str	r6, [r4, #8]
 8005f22:	2e00      	cmp	r6, #0
 8005f24:	bfa2      	ittt	ge
 8005f26:	6821      	ldrge	r1, [r4, #0]
 8005f28:	f021 0104 	bicge.w	r1, r1, #4
 8005f2c:	6021      	strge	r1, [r4, #0]
 8005f2e:	b90d      	cbnz	r5, 8005f34 <_printf_i+0x118>
 8005f30:	2e00      	cmp	r6, #0
 8005f32:	d04d      	beq.n	8005fd0 <_printf_i+0x1b4>
 8005f34:	4616      	mov	r6, r2
 8005f36:	fbb5 f1f3 	udiv	r1, r5, r3
 8005f3a:	fb03 5711 	mls	r7, r3, r1, r5
 8005f3e:	5dc7      	ldrb	r7, [r0, r7]
 8005f40:	f806 7d01 	strb.w	r7, [r6, #-1]!
 8005f44:	462f      	mov	r7, r5
 8005f46:	42bb      	cmp	r3, r7
 8005f48:	460d      	mov	r5, r1
 8005f4a:	d9f4      	bls.n	8005f36 <_printf_i+0x11a>
 8005f4c:	2b08      	cmp	r3, #8
 8005f4e:	d10b      	bne.n	8005f68 <_printf_i+0x14c>
 8005f50:	6823      	ldr	r3, [r4, #0]
 8005f52:	07df      	lsls	r7, r3, #31
 8005f54:	d508      	bpl.n	8005f68 <_printf_i+0x14c>
 8005f56:	6923      	ldr	r3, [r4, #16]
 8005f58:	6861      	ldr	r1, [r4, #4]
 8005f5a:	4299      	cmp	r1, r3
 8005f5c:	bfde      	ittt	le
 8005f5e:	2330      	movle	r3, #48	; 0x30
 8005f60:	f806 3c01 	strble.w	r3, [r6, #-1]
 8005f64:	f106 36ff 	addle.w	r6, r6, #4294967295
 8005f68:	1b92      	subs	r2, r2, r6
 8005f6a:	6122      	str	r2, [r4, #16]
 8005f6c:	f8cd a000 	str.w	sl, [sp]
 8005f70:	464b      	mov	r3, r9
 8005f72:	aa03      	add	r2, sp, #12
 8005f74:	4621      	mov	r1, r4
 8005f76:	4640      	mov	r0, r8
 8005f78:	f7ff fee2 	bl	8005d40 <_printf_common>
 8005f7c:	3001      	adds	r0, #1
 8005f7e:	d14c      	bne.n	800601a <_printf_i+0x1fe>
 8005f80:	f04f 30ff 	mov.w	r0, #4294967295
 8005f84:	b004      	add	sp, #16
 8005f86:	e8bd 87f0 	ldmia.w	sp!, {r4, r5, r6, r7, r8, r9, sl, pc}
 8005f8a:	4835      	ldr	r0, [pc, #212]	; (8006060 <_printf_i+0x244>)
 8005f8c:	f884 7045 	strb.w	r7, [r4, #69]	; 0x45
 8005f90:	6823      	ldr	r3, [r4, #0]
 8005f92:	680e      	ldr	r6, [r1, #0]
 8005f94:	061f      	lsls	r7, r3, #24
 8005f96:	f856 5b04 	ldr.w	r5, [r6], #4
 8005f9a:	600e      	str	r6, [r1, #0]
 8005f9c:	d514      	bpl.n	8005fc8 <_printf_i+0x1ac>
 8005f9e:	07d9      	lsls	r1, r3, #31
 8005fa0:	bf44      	itt	mi
 8005fa2:	f043 0320 	orrmi.w	r3, r3, #32
 8005fa6:	6023      	strmi	r3, [r4, #0]
 8005fa8:	b91d      	cbnz	r5, 8005fb2 <_printf_i+0x196>
 8005faa:	6823      	ldr	r3, [r4, #0]
 8005fac:	f023 0320 	bic.w	r3, r3, #32
 8005fb0:	6023      	str	r3, [r4, #0]
 8005fb2:	2310      	movs	r3, #16
 8005fb4:	e7b0      	b.n	8005f18 <_printf_i+0xfc>
 8005fb6:	6823      	ldr	r3, [r4, #0]
 8005fb8:	f043 0320 	orr.w	r3, r3, #32
 8005fbc:	6023      	str	r3, [r4, #0]
 8005fbe:	2378      	movs	r3, #120	; 0x78
 8005fc0:	4828      	ldr	r0, [pc, #160]	; (8006064 <_printf_i+0x248>)
 8005fc2:	f884 3045 	strb.w	r3, [r4, #69]	; 0x45
 8005fc6:	e7e3      	b.n	8005f90 <_printf_i+0x174>
 8005fc8:	065e      	lsls	r6, r3, #25
 8005fca:	bf48      	it	mi
 8005fcc:	b2ad      	uxthmi	r5, r5
 8005fce:	e7e6      	b.n	8005f9e <_printf_i+0x182>
 8005fd0:	4616      	mov	r6, r2
 8005fd2:	e7bb      	b.n	8005f4c <_printf_i+0x130>
 8005fd4:	680b      	ldr	r3, [r1, #0]
 8005fd6:	6826      	ldr	r6, [r4, #0]
 8005fd8:	6960      	ldr	r0, [r4, #20]
 8005fda:	1d1d      	adds	r5, r3, #4
 8005fdc:	600d      	str	r5, [r1, #0]
 8005fde:	0635      	lsls	r5, r6, #24
 8005fe0:	681b      	ldr	r3, [r3, #0]
 8005fe2:	d501      	bpl.n	8005fe8 <_printf_i+0x1cc>
 8005fe4:	6018      	str	r0, [r3, #0]
 8005fe6:	e002      	b.n	8005fee <_printf_i+0x1d2>
 8005fe8:	0671      	lsls	r1, r6, #25
 8005fea:	d5fb      	bpl.n	8005fe4 <_printf_i+0x1c8>
 8005fec:	8018      	strh	r0, [r3, #0]
 8005fee:	2300      	movs	r3, #0
 8005ff0:	6123      	str	r3, [r4, #16]
 8005ff2:	4616      	mov	r6, r2
 8005ff4:	e7ba      	b.n	8005f6c <_printf_i+0x150>
 8005ff6:	680b      	ldr	r3, [r1, #0]
 8005ff8:	1d1a      	adds	r2, r3, #4
 8005ffa:	600a      	str	r2, [r1, #0]
 8005ffc:	681e      	ldr	r6, [r3, #0]
 8005ffe:	6862      	ldr	r2, [r4, #4]
 8006000:	2100      	movs	r1, #0
 8006002:	4630      	mov	r0, r6
 8006004:	f7fa f8ec 	bl	80001e0 <memchr>
 8006008:	b108      	cbz	r0, 800600e <_printf_i+0x1f2>
 800600a:	1b80      	subs	r0, r0, r6
 800600c:	6060      	str	r0, [r4, #4]
 800600e:	6863      	ldr	r3, [r4, #4]
 8006010:	6123      	str	r3, [r4, #16]
 8006012:	2300      	movs	r3, #0
 8006014:	f884 3043 	strb.w	r3, [r4, #67]	; 0x43
 8006018:	e7a8      	b.n	8005f6c <_printf_i+0x150>
 800601a:	6923      	ldr	r3, [r4, #16]
 800601c:	4632      	mov	r2, r6
 800601e:	4649      	mov	r1, r9
 8006020:	4640      	mov	r0, r8
 8006022:	47d0      	blx	sl
 8006024:	3001      	adds	r0, #1
 8006026:	d0ab      	beq.n	8005f80 <_printf_i+0x164>
 8006028:	6823      	ldr	r3, [r4, #0]
 800602a:	079b      	lsls	r3, r3, #30
 800602c:	d413      	bmi.n	8006056 <_printf_i+0x23a>
 800602e:	68e0      	ldr	r0, [r4, #12]
 8006030:	9b03      	ldr	r3, [sp, #12]
 8006032:	4298      	cmp	r0, r3
 8006034:	bfb8      	it	lt
 8006036:	4618      	movlt	r0, r3
 8006038:	e7a4      	b.n	8005f84 <_printf_i+0x168>
 800603a:	2301      	movs	r3, #1
 800603c:	4632      	mov	r2, r6
 800603e:	4649      	mov	r1, r9
 8006040:	4640      	mov	r0, r8
 8006042:	47d0      	blx	sl
 8006044:	3001      	adds	r0, #1
 8006046:	d09b      	beq.n	8005f80 <_printf_i+0x164>
 8006048:	3501      	adds	r5, #1
 800604a:	68e3      	ldr	r3, [r4, #12]
 800604c:	9903      	ldr	r1, [sp, #12]
 800604e:	1a5b      	subs	r3, r3, r1
 8006050:	42ab      	cmp	r3, r5
 8006052:	dcf2      	bgt.n	800603a <_printf_i+0x21e>
 8006054:	e7eb      	b.n	800602e <_printf_i+0x212>
 8006056:	2500      	movs	r5, #0
 8006058:	f104 0619 	add.w	r6, r4, #25
 800605c:	e7f5      	b.n	800604a <_printf_i+0x22e>
 800605e:	bf00      	nop
 8006060:	0800b15e 	.word	0x0800b15e
 8006064:	0800b16f 	.word	0x0800b16f

08006068 <_scanf_float>:
 8006068:	e92d 4ff0 	stmdb	sp!, {r4, r5, r6, r7, r8, r9, sl, fp, lr}
 800606c:	b087      	sub	sp, #28
 800606e:	4617      	mov	r7, r2
 8006070:	9303      	str	r3, [sp, #12]
 8006072:	688b      	ldr	r3, [r1, #8]
 8006074:	1e5a      	subs	r2, r3, #1
 8006076:	f5b2 7fae 	cmp.w	r2, #348	; 0x15c
 800607a:	bf83      	ittte	hi
 800607c:	f46f 75ae 	mvnhi.w	r5, #348	; 0x15c
 8006080:	195b      	addhi	r3, r3, r5
 8006082:	9302      	strhi	r3, [sp, #8]
 8006084:	2300      	movls	r3, #0
 8006086:	bf86      	itte	hi
 8006088:	f240 135d 	movwhi	r3, #349	; 0x15d
 800608c:	608b      	strhi	r3, [r1, #8]
 800608e:	9302      	strls	r3, [sp, #8]
 8006090:	680b      	ldr	r3, [r1, #0]
 8006092:	468b      	mov	fp, r1
 8006094:	2500      	movs	r5, #0
 8006096:	f443 63f0 	orr.w	r3, r3, #1920	; 0x780
 800609a:	f84b 3b1c 	str.w	r3, [fp], #28
 800609e:	e9cd 5504 	strd	r5, r5, [sp, #16]
 80060a2:	4680      	mov	r8, r0
 80060a4:	460c      	mov	r4, r1
 80060a6:	465e      	mov	r6, fp
 80060a8:	46aa      	mov	sl, r5
 80060aa:	46a9      	mov	r9, r5
 80060ac:	9501      	str	r5, [sp, #4]
 80060ae:	68a2      	ldr	r2, [r4, #8]
 80060b0:	b152      	cbz	r2, 80060c8 <_scanf_float+0x60>
 80060b2:	683b      	ldr	r3, [r7, #0]
 80060b4:	781b      	ldrb	r3, [r3, #0]
 80060b6:	2b4e      	cmp	r3, #78	; 0x4e
 80060b8:	d864      	bhi.n	8006184 <_scanf_float+0x11c>
 80060ba:	2b40      	cmp	r3, #64	; 0x40
 80060bc:	d83c      	bhi.n	8006138 <_scanf_float+0xd0>
 80060be:	f1a3 012b 	sub.w	r1, r3, #43	; 0x2b
 80060c2:	b2c8      	uxtb	r0, r1
 80060c4:	280e      	cmp	r0, #14
 80060c6:	d93a      	bls.n	800613e <_scanf_float+0xd6>
 80060c8:	f1b9 0f00 	cmp.w	r9, #0
 80060cc:	d003      	beq.n	80060d6 <_scanf_float+0x6e>
 80060ce:	6823      	ldr	r3, [r4, #0]
 80060d0:	f423 7380 	bic.w	r3, r3, #256	; 0x100
 80060d4:	6023      	str	r3, [r4, #0]
 80060d6:	f10a 3aff 	add.w	sl, sl, #4294967295
 80060da:	f1ba 0f01 	cmp.w	sl, #1
 80060de:	f200 8113 	bhi.w	8006308 <_scanf_float+0x2a0>
 80060e2:	455e      	cmp	r6, fp
 80060e4:	f200 8105 	bhi.w	80062f2 <_scanf_float+0x28a>
 80060e8:	2501      	movs	r5, #1
 80060ea:	4628      	mov	r0, r5
 80060ec:	b007      	add	sp, #28
 80060ee:	e8bd 8ff0 	ldmia.w	sp!, {r4, r5, r6, r7, r8, r9, sl, fp, pc}
 80060f2:	f1a3 0261 	sub.w	r2, r3, #97	; 0x61
 80060f6:	2a0d      	cmp	r2, #13
 80060f8:	d8e6      	bhi.n	80060c8 <_scanf_float+0x60>
 80060fa:	a101      	add	r1, pc, #4	; (adr r1, 8006100 <_scanf_float+0x98>)
 80060fc:	f851 f022 	ldr.w	pc, [r1, r2, lsl #2]
 8006100:	0800623f 	.word	0x0800623f
 8006104:	080060c9 	.word	0x080060c9
 8006108:	080060c9 	.word	0x080060c9
 800610c:	080060c9 	.word	0x080060c9
 8006110:	0800629f 	.word	0x0800629f
 8006114:	08006277 	.word	0x08006277
 8006118:	080060c9 	.word	0x080060c9
 800611c:	080060c9 	.word	0x080060c9
 8006120:	0800624d 	.word	0x0800624d
 8006124:	080060c9 	.word	0x080060c9
 8006128:	080060c9 	.word	0x080060c9
 800612c:	080060c9 	.word	0x080060c9
 8006130:	080060c9 	.word	0x080060c9
 8006134:	08006205 	.word	0x08006205
 8006138:	f1a3 0241 	sub.w	r2, r3, #65	; 0x41
 800613c:	e7db      	b.n	80060f6 <_scanf_float+0x8e>
 800613e:	290e      	cmp	r1, #14
 8006140:	d8c2      	bhi.n	80060c8 <_scanf_float+0x60>
 8006142:	a001      	add	r0, pc, #4	; (adr r0, 8006148 <_scanf_float+0xe0>)
 8006144:	f850 f021 	ldr.w	pc, [r0, r1, lsl #2]
 8006148:	080061f7 	.word	0x080061f7
 800614c:	080060c9 	.word	0x080060c9
 8006150:	080061f7 	.word	0x080061f7
 8006154:	0800628b 	.word	0x0800628b
 8006158:	080060c9 	.word	0x080060c9
 800615c:	080061a5 	.word	0x080061a5
 8006160:	080061e1 	.word	0x080061e1
 8006164:	080061e1 	.word	0x080061e1
 8006168:	080061e1 	.word	0x080061e1
 800616c:	080061e1 	.word	0x080061e1
 8006170:	080061e1 	.word	0x080061e1
 8006174:	080061e1 	.word	0x080061e1
 8006178:	080061e1 	.word	0x080061e1
 800617c:	080061e1 	.word	0x080061e1
 8006180:	080061e1 	.word	0x080061e1
 8006184:	2b6e      	cmp	r3, #110	; 0x6e
 8006186:	d809      	bhi.n	800619c <_scanf_float+0x134>
 8006188:	2b60      	cmp	r3, #96	; 0x60
 800618a:	d8b2      	bhi.n	80060f2 <_scanf_float+0x8a>
 800618c:	2b54      	cmp	r3, #84	; 0x54
 800618e:	d077      	beq.n	8006280 <_scanf_float+0x218>
 8006190:	2b59      	cmp	r3, #89	; 0x59
 8006192:	d199      	bne.n	80060c8 <_scanf_float+0x60>
 8006194:	2d07      	cmp	r5, #7
 8006196:	d197      	bne.n	80060c8 <_scanf_float+0x60>
 8006198:	2508      	movs	r5, #8
 800619a:	e029      	b.n	80061f0 <_scanf_float+0x188>
 800619c:	2b74      	cmp	r3, #116	; 0x74
 800619e:	d06f      	beq.n	8006280 <_scanf_float+0x218>
 80061a0:	2b79      	cmp	r3, #121	; 0x79
 80061a2:	e7f6      	b.n	8006192 <_scanf_float+0x12a>
 80061a4:	6821      	ldr	r1, [r4, #0]
 80061a6:	05c8      	lsls	r0, r1, #23
 80061a8:	d51a      	bpl.n	80061e0 <_scanf_float+0x178>
 80061aa:	9b02      	ldr	r3, [sp, #8]
 80061ac:	f021 0180 	bic.w	r1, r1, #128	; 0x80
 80061b0:	6021      	str	r1, [r4, #0]
 80061b2:	f109 0901 	add.w	r9, r9, #1
 80061b6:	b11b      	cbz	r3, 80061c0 <_scanf_float+0x158>
 80061b8:	3b01      	subs	r3, #1
 80061ba:	3201      	adds	r2, #1
 80061bc:	9302      	str	r3, [sp, #8]
 80061be:	60a2      	str	r2, [r4, #8]
 80061c0:	68a3      	ldr	r3, [r4, #8]
 80061c2:	3b01      	subs	r3, #1
 80061c4:	60a3      	str	r3, [r4, #8]
 80061c6:	6923      	ldr	r3, [r4, #16]
 80061c8:	3301      	adds	r3, #1
 80061ca:	6123      	str	r3, [r4, #16]
 80061cc:	687b      	ldr	r3, [r7, #4]
 80061ce:	3b01      	subs	r3, #1
 80061d0:	2b00      	cmp	r3, #0
 80061d2:	607b      	str	r3, [r7, #4]
 80061d4:	f340 8084 	ble.w	80062e0 <_scanf_float+0x278>
 80061d8:	683b      	ldr	r3, [r7, #0]
 80061da:	3301      	adds	r3, #1
 80061dc:	603b      	str	r3, [r7, #0]
 80061de:	e766      	b.n	80060ae <_scanf_float+0x46>
 80061e0:	eb1a 0f05 	cmn.w	sl, r5
 80061e4:	f47f af70 	bne.w	80060c8 <_scanf_float+0x60>
 80061e8:	6822      	ldr	r2, [r4, #0]
 80061ea:	f422 72c0 	bic.w	r2, r2, #384	; 0x180
 80061ee:	6022      	str	r2, [r4, #0]
 80061f0:	f806 3b01 	strb.w	r3, [r6], #1
 80061f4:	e7e4      	b.n	80061c0 <_scanf_float+0x158>
 80061f6:	6822      	ldr	r2, [r4, #0]
 80061f8:	0610      	lsls	r0, r2, #24
 80061fa:	f57f af65 	bpl.w	80060c8 <_scanf_float+0x60>
 80061fe:	f022 0280 	bic.w	r2, r2, #128	; 0x80
 8006202:	e7f4      	b.n	80061ee <_scanf_float+0x186>
 8006204:	f1ba 0f00 	cmp.w	sl, #0
 8006208:	d10e      	bne.n	8006228 <_scanf_float+0x1c0>
 800620a:	f1b9 0f00 	cmp.w	r9, #0
 800620e:	d10e      	bne.n	800622e <_scanf_float+0x1c6>
 8006210:	6822      	ldr	r2, [r4, #0]
 8006212:	f402 61e0 	and.w	r1, r2, #1792	; 0x700
 8006216:	f5b1 6fe0 	cmp.w	r1, #1792	; 0x700
 800621a:	d108      	bne.n	800622e <_scanf_float+0x1c6>
 800621c:	f422 62f0 	bic.w	r2, r2, #1920	; 0x780
 8006220:	6022      	str	r2, [r4, #0]
 8006222:	f04f 0a01 	mov.w	sl, #1
 8006226:	e7e3      	b.n	80061f0 <_scanf_float+0x188>
 8006228:	f1ba 0f02 	cmp.w	sl, #2
 800622c:	d055      	beq.n	80062da <_scanf_float+0x272>
 800622e:	2d01      	cmp	r5, #1
 8006230:	d002      	beq.n	8006238 <_scanf_float+0x1d0>
 8006232:	2d04      	cmp	r5, #4
 8006234:	f47f af48 	bne.w	80060c8 <_scanf_float+0x60>
 8006238:	3501      	adds	r5, #1
 800623a:	b2ed      	uxtb	r5, r5
 800623c:	e7d8      	b.n	80061f0 <_scanf_float+0x188>
 800623e:	f1ba 0f01 	cmp.w	sl, #1
 8006242:	f47f af41 	bne.w	80060c8 <_scanf_float+0x60>
 8006246:	f04f 0a02 	mov.w	sl, #2
 800624a:	e7d1      	b.n	80061f0 <_scanf_float+0x188>
 800624c:	b97d      	cbnz	r5, 800626e <_scanf_float+0x206>
 800624e:	f1b9 0f00 	cmp.w	r9, #0
 8006252:	f47f af3c 	bne.w	80060ce <_scanf_float+0x66>
 8006256:	6822      	ldr	r2, [r4, #0]
 8006258:	f402 61e0 	and.w	r1, r2, #1792	; 0x700
 800625c:	f5b1 6fe0 	cmp.w	r1, #1792	; 0x700
 8006260:	f47f af39 	bne.w	80060d6 <_scanf_float+0x6e>
 8006264:	f422 62f0 	bic.w	r2, r2, #1920	; 0x780
 8006268:	6022      	str	r2, [r4, #0]
 800626a:	2501      	movs	r5, #1
 800626c:	e7c0      	b.n	80061f0 <_scanf_float+0x188>
 800626e:	2d03      	cmp	r5, #3
 8006270:	d0e2      	beq.n	8006238 <_scanf_float+0x1d0>
 8006272:	2d05      	cmp	r5, #5
 8006274:	e7de      	b.n	8006234 <_scanf_float+0x1cc>
 8006276:	2d02      	cmp	r5, #2
 8006278:	f47f af26 	bne.w	80060c8 <_scanf_float+0x60>
 800627c:	2503      	movs	r5, #3
 800627e:	e7b7      	b.n	80061f0 <_scanf_float+0x188>
 8006280:	2d06      	cmp	r5, #6
 8006282:	f47f af21 	bne.w	80060c8 <_scanf_float+0x60>
 8006286:	2507      	movs	r5, #7
 8006288:	e7b2      	b.n	80061f0 <_scanf_float+0x188>
 800628a:	6822      	ldr	r2, [r4, #0]
 800628c:	0591      	lsls	r1, r2, #22
 800628e:	f57f af1b 	bpl.w	80060c8 <_scanf_float+0x60>
 8006292:	f422 7220 	bic.w	r2, r2, #640	; 0x280
 8006296:	6022      	str	r2, [r4, #0]
 8006298:	f8cd 9004 	str.w	r9, [sp, #4]
 800629c:	e7a8      	b.n	80061f0 <_scanf_float+0x188>
 800629e:	6822      	ldr	r2, [r4, #0]
 80062a0:	f402 61a0 	and.w	r1, r2, #1280	; 0x500
 80062a4:	f5b1 6f80 	cmp.w	r1, #1024	; 0x400
 80062a8:	d006      	beq.n	80062b8 <_scanf_float+0x250>
 80062aa:	0550      	lsls	r0, r2, #21
 80062ac:	f57f af0c 	bpl.w	80060c8 <_scanf_float+0x60>
 80062b0:	f1b9 0f00 	cmp.w	r9, #0
 80062b4:	f43f af0f 	beq.w	80060d6 <_scanf_float+0x6e>
 80062b8:	0591      	lsls	r1, r2, #22
 80062ba:	bf58      	it	pl
 80062bc:	9901      	ldrpl	r1, [sp, #4]
 80062be:	f422 62f0 	bic.w	r2, r2, #1920	; 0x780
 80062c2:	bf58      	it	pl
 80062c4:	eba9 0101 	subpl.w	r1, r9, r1
 80062c8:	f442 72c0 	orr.w	r2, r2, #384	; 0x180
 80062cc:	bf58      	it	pl
 80062ce:	e9cd 1604 	strdpl	r1, r6, [sp, #16]
 80062d2:	6022      	str	r2, [r4, #0]
 80062d4:	f04f 0900 	mov.w	r9, #0
 80062d8:	e78a      	b.n	80061f0 <_scanf_float+0x188>
 80062da:	f04f 0a03 	mov.w	sl, #3
 80062de:	e787      	b.n	80061f0 <_scanf_float+0x188>
 80062e0:	f8d4 3180 	ldr.w	r3, [r4, #384]	; 0x180
 80062e4:	4639      	mov	r1, r7
 80062e6:	4640      	mov	r0, r8
 80062e8:	4798      	blx	r3
 80062ea:	2800      	cmp	r0, #0
 80062ec:	f43f aedf 	beq.w	80060ae <_scanf_float+0x46>
 80062f0:	e6ea      	b.n	80060c8 <_scanf_float+0x60>
 80062f2:	f8d4 317c 	ldr.w	r3, [r4, #380]	; 0x17c
 80062f6:	f816 1d01 	ldrb.w	r1, [r6, #-1]!
 80062fa:	463a      	mov	r2, r7
 80062fc:	4640      	mov	r0, r8
 80062fe:	4798      	blx	r3
 8006300:	6923      	ldr	r3, [r4, #16]
 8006302:	3b01      	subs	r3, #1
 8006304:	6123      	str	r3, [r4, #16]
 8006306:	e6ec      	b.n	80060e2 <_scanf_float+0x7a>
 8006308:	1e6b      	subs	r3, r5, #1
 800630a:	2b06      	cmp	r3, #6
 800630c:	d825      	bhi.n	800635a <_scanf_float+0x2f2>
 800630e:	2d02      	cmp	r5, #2
 8006310:	d836      	bhi.n	8006380 <_scanf_float+0x318>
 8006312:	455e      	cmp	r6, fp
 8006314:	f67f aee8 	bls.w	80060e8 <_scanf_float+0x80>
 8006318:	f8d4 317c 	ldr.w	r3, [r4, #380]	; 0x17c
 800631c:	f816 1d01 	ldrb.w	r1, [r6, #-1]!
 8006320:	463a      	mov	r2, r7
 8006322:	4640      	mov	r0, r8
 8006324:	4798      	blx	r3
 8006326:	6923      	ldr	r3, [r4, #16]
 8006328:	3b01      	subs	r3, #1
 800632a:	6123      	str	r3, [r4, #16]
 800632c:	e7f1      	b.n	8006312 <_scanf_float+0x2aa>
 800632e:	9802      	ldr	r0, [sp, #8]
 8006330:	f8d4 317c 	ldr.w	r3, [r4, #380]	; 0x17c
 8006334:	f810 1d01 	ldrb.w	r1, [r0, #-1]!
 8006338:	9002      	str	r0, [sp, #8]
 800633a:	463a      	mov	r2, r7
 800633c:	4640      	mov	r0, r8
 800633e:	4798      	blx	r3
 8006340:	6923      	ldr	r3, [r4, #16]
 8006342:	3b01      	subs	r3, #1
 8006344:	6123      	str	r3, [r4, #16]
 8006346:	f10a 3aff 	add.w	sl, sl, #4294967295
 800634a:	fa5f fa8a 	uxtb.w	sl, sl
 800634e:	f1ba 0f02 	cmp.w	sl, #2
 8006352:	d1ec      	bne.n	800632e <_scanf_float+0x2c6>
 8006354:	3d03      	subs	r5, #3
 8006356:	b2ed      	uxtb	r5, r5
 8006358:	1b76      	subs	r6, r6, r5
 800635a:	6823      	ldr	r3, [r4, #0]
 800635c:	05da      	lsls	r2, r3, #23
 800635e:	d52f      	bpl.n	80063c0 <_scanf_float+0x358>
 8006360:	055b      	lsls	r3, r3, #21
 8006362:	d510      	bpl.n	8006386 <_scanf_float+0x31e>
 8006364:	455e      	cmp	r6, fp
 8006366:	f67f aebf 	bls.w	80060e8 <_scanf_float+0x80>
 800636a:	f8d4 317c 	ldr.w	r3, [r4, #380]	; 0x17c
 800636e:	f816 1d01 	ldrb.w	r1, [r6, #-1]!
 8006372:	463a      	mov	r2, r7
 8006374:	4640      	mov	r0, r8
 8006376:	4798      	blx	r3
 8006378:	6923      	ldr	r3, [r4, #16]
 800637a:	3b01      	subs	r3, #1
 800637c:	6123      	str	r3, [r4, #16]
 800637e:	e7f1      	b.n	8006364 <_scanf_float+0x2fc>
 8006380:	46aa      	mov	sl, r5
 8006382:	9602      	str	r6, [sp, #8]
 8006384:	e7df      	b.n	8006346 <_scanf_float+0x2de>
 8006386:	f816 1c01 	ldrb.w	r1, [r6, #-1]
 800638a:	6923      	ldr	r3, [r4, #16]
 800638c:	2965      	cmp	r1, #101	; 0x65
 800638e:	f103 33ff 	add.w	r3, r3, #4294967295
 8006392:	f106 35ff 	add.w	r5, r6, #4294967295
 8006396:	6123      	str	r3, [r4, #16]
 8006398:	d00c      	beq.n	80063b4 <_scanf_float+0x34c>
 800639a:	2945      	cmp	r1, #69	; 0x45
 800639c:	d00a      	beq.n	80063b4 <_scanf_float+0x34c>
 800639e:	f8d4 317c 	ldr.w	r3, [r4, #380]	; 0x17c
 80063a2:	463a      	mov	r2, r7
 80063a4:	4640      	mov	r0, r8
 80063a6:	4798      	blx	r3
 80063a8:	6923      	ldr	r3, [r4, #16]
 80063aa:	f816 1c02 	ldrb.w	r1, [r6, #-2]
 80063ae:	3b01      	subs	r3, #1
 80063b0:	1eb5      	subs	r5, r6, #2
 80063b2:	6123      	str	r3, [r4, #16]
 80063b4:	f8d4 317c 	ldr.w	r3, [r4, #380]	; 0x17c
 80063b8:	463a      	mov	r2, r7
 80063ba:	4640      	mov	r0, r8
 80063bc:	4798      	blx	r3
 80063be:	462e      	mov	r6, r5
 80063c0:	6825      	ldr	r5, [r4, #0]
 80063c2:	f015 0510 	ands.w	r5, r5, #16
 80063c6:	d158      	bne.n	800647a <_scanf_float+0x412>
 80063c8:	7035      	strb	r5, [r6, #0]
 80063ca:	6823      	ldr	r3, [r4, #0]
 80063cc:	f403 63c0 	and.w	r3, r3, #1536	; 0x600
 80063d0:	f5b3 6f80 	cmp.w	r3, #1024	; 0x400
 80063d4:	d11c      	bne.n	8006410 <_scanf_float+0x3a8>
 80063d6:	9b01      	ldr	r3, [sp, #4]
 80063d8:	454b      	cmp	r3, r9
 80063da:	eba3 0209 	sub.w	r2, r3, r9
 80063de:	d124      	bne.n	800642a <_scanf_float+0x3c2>
 80063e0:	2200      	movs	r2, #0
 80063e2:	4659      	mov	r1, fp
 80063e4:	4640      	mov	r0, r8
 80063e6:	f000 ff29 	bl	800723c <_strtod_r>
 80063ea:	9b03      	ldr	r3, [sp, #12]
 80063ec:	6821      	ldr	r1, [r4, #0]
 80063ee:	681b      	ldr	r3, [r3, #0]
 80063f0:	f011 0f02 	tst.w	r1, #2
 80063f4:	ec57 6b10 	vmov	r6, r7, d0
 80063f8:	f103 0204 	add.w	r2, r3, #4
 80063fc:	d020      	beq.n	8006440 <_scanf_float+0x3d8>
 80063fe:	9903      	ldr	r1, [sp, #12]
 8006400:	600a      	str	r2, [r1, #0]
 8006402:	681b      	ldr	r3, [r3, #0]
 8006404:	e9c3 6700 	strd	r6, r7, [r3]
 8006408:	68e3      	ldr	r3, [r4, #12]
 800640a:	3301      	adds	r3, #1
 800640c:	60e3      	str	r3, [r4, #12]
 800640e:	e66c      	b.n	80060ea <_scanf_float+0x82>
 8006410:	9b04      	ldr	r3, [sp, #16]
 8006412:	2b00      	cmp	r3, #0
 8006414:	d0e4      	beq.n	80063e0 <_scanf_float+0x378>
 8006416:	9905      	ldr	r1, [sp, #20]
 8006418:	230a      	movs	r3, #10
 800641a:	462a      	mov	r2, r5
 800641c:	3101      	adds	r1, #1
 800641e:	4640      	mov	r0, r8
 8006420:	f000 ff96 	bl	8007350 <_strtol_r>
 8006424:	9b04      	ldr	r3, [sp, #16]
 8006426:	9e05      	ldr	r6, [sp, #20]
 8006428:	1ac2      	subs	r2, r0, r3
 800642a:	f204 136f 	addw	r3, r4, #367	; 0x16f
 800642e:	429e      	cmp	r6, r3
 8006430:	bf28      	it	cs
 8006432:	f504 76b7 	addcs.w	r6, r4, #366	; 0x16e
 8006436:	4912      	ldr	r1, [pc, #72]	; (8006480 <_scanf_float+0x418>)
 8006438:	4630      	mov	r0, r6
 800643a:	f000 f8b9 	bl	80065b0 <siprintf>
 800643e:	e7cf      	b.n	80063e0 <_scanf_float+0x378>
 8006440:	f011 0f04 	tst.w	r1, #4
 8006444:	9903      	ldr	r1, [sp, #12]
 8006446:	600a      	str	r2, [r1, #0]
 8006448:	d1db      	bne.n	8006402 <_scanf_float+0x39a>
 800644a:	f8d3 8000 	ldr.w	r8, [r3]
 800644e:	ee10 2a10 	vmov	r2, s0
 8006452:	ee10 0a10 	vmov	r0, s0
 8006456:	463b      	mov	r3, r7
 8006458:	4639      	mov	r1, r7
 800645a:	f7fa fb67 	bl	8000b2c <__aeabi_dcmpun>
 800645e:	b128      	cbz	r0, 800646c <_scanf_float+0x404>
 8006460:	4808      	ldr	r0, [pc, #32]	; (8006484 <_scanf_float+0x41c>)
 8006462:	f000 f89f 	bl	80065a4 <nanf>
 8006466:	ed88 0a00 	vstr	s0, [r8]
 800646a:	e7cd      	b.n	8006408 <_scanf_float+0x3a0>
 800646c:	4630      	mov	r0, r6
 800646e:	4639      	mov	r1, r7
 8006470:	f7fa fbba 	bl	8000be8 <__aeabi_d2f>
 8006474:	f8c8 0000 	str.w	r0, [r8]
 8006478:	e7c6      	b.n	8006408 <_scanf_float+0x3a0>
 800647a:	2500      	movs	r5, #0
 800647c:	e635      	b.n	80060ea <_scanf_float+0x82>
 800647e:	bf00      	nop
 8006480:	0800b180 	.word	0x0800b180
 8006484:	0800b5f8 	.word	0x0800b5f8

08006488 <iprintf>:
 8006488:	b40f      	push	{r0, r1, r2, r3}
 800648a:	4b0a      	ldr	r3, [pc, #40]	; (80064b4 <iprintf+0x2c>)
 800648c:	b513      	push	{r0, r1, r4, lr}
 800648e:	681c      	ldr	r4, [r3, #0]
 8006490:	b124      	cbz	r4, 800649c <iprintf+0x14>
 8006492:	69a3      	ldr	r3, [r4, #24]
 8006494:	b913      	cbnz	r3, 800649c <iprintf+0x14>
 8006496:	4620      	mov	r0, r4
 8006498:	f001 ffb0 	bl	80083fc <__sinit>
 800649c:	ab05      	add	r3, sp, #20
 800649e:	9a04      	ldr	r2, [sp, #16]
 80064a0:	68a1      	ldr	r1, [r4, #8]
 80064a2:	9301      	str	r3, [sp, #4]
 80064a4:	4620      	mov	r0, r4
 80064a6:	f003 fb43 	bl	8009b30 <_vfiprintf_r>
 80064aa:	b002      	add	sp, #8
 80064ac:	e8bd 4010 	ldmia.w	sp!, {r4, lr}
 80064b0:	b004      	add	sp, #16
 80064b2:	4770      	bx	lr
 80064b4:	20000014 	.word	0x20000014

080064b8 <_puts_r>:
 80064b8:	b570      	push	{r4, r5, r6, lr}
 80064ba:	460e      	mov	r6, r1
 80064bc:	4605      	mov	r5, r0
 80064be:	b118      	cbz	r0, 80064c8 <_puts_r+0x10>
 80064c0:	6983      	ldr	r3, [r0, #24]
 80064c2:	b90b      	cbnz	r3, 80064c8 <_puts_r+0x10>
 80064c4:	f001 ff9a 	bl	80083fc <__sinit>
 80064c8:	69ab      	ldr	r3, [r5, #24]
 80064ca:	68ac      	ldr	r4, [r5, #8]
 80064cc:	b913      	cbnz	r3, 80064d4 <_puts_r+0x1c>
 80064ce:	4628      	mov	r0, r5
 80064d0:	f001 ff94 	bl	80083fc <__sinit>
 80064d4:	4b2c      	ldr	r3, [pc, #176]	; (8006588 <_puts_r+0xd0>)
 80064d6:	429c      	cmp	r4, r3
 80064d8:	d120      	bne.n	800651c <_puts_r+0x64>
 80064da:	686c      	ldr	r4, [r5, #4]
 80064dc:	6e63      	ldr	r3, [r4, #100]	; 0x64
 80064de:	07db      	lsls	r3, r3, #31
 80064e0:	d405      	bmi.n	80064ee <_puts_r+0x36>
 80064e2:	89a3      	ldrh	r3, [r4, #12]
 80064e4:	0598      	lsls	r0, r3, #22
 80064e6:	d402      	bmi.n	80064ee <_puts_r+0x36>
 80064e8:	6da0      	ldr	r0, [r4, #88]	; 0x58
 80064ea:	f002 fb98 	bl	8008c1e <__retarget_lock_acquire_recursive>
 80064ee:	89a3      	ldrh	r3, [r4, #12]
 80064f0:	0719      	lsls	r1, r3, #28
 80064f2:	d51d      	bpl.n	8006530 <_puts_r+0x78>
 80064f4:	6923      	ldr	r3, [r4, #16]
 80064f6:	b1db      	cbz	r3, 8006530 <_puts_r+0x78>
 80064f8:	3e01      	subs	r6, #1
 80064fa:	68a3      	ldr	r3, [r4, #8]
 80064fc:	f816 1f01 	ldrb.w	r1, [r6, #1]!
 8006500:	3b01      	subs	r3, #1
 8006502:	60a3      	str	r3, [r4, #8]
 8006504:	bb39      	cbnz	r1, 8006556 <_puts_r+0x9e>
 8006506:	2b00      	cmp	r3, #0
 8006508:	da38      	bge.n	800657c <_puts_r+0xc4>
 800650a:	4622      	mov	r2, r4
 800650c:	210a      	movs	r1, #10
 800650e:	4628      	mov	r0, r5
 8006510:	f000 ff20 	bl	8007354 <__swbuf_r>
 8006514:	3001      	adds	r0, #1
 8006516:	d011      	beq.n	800653c <_puts_r+0x84>
 8006518:	250a      	movs	r5, #10
 800651a:	e011      	b.n	8006540 <_puts_r+0x88>
 800651c:	4b1b      	ldr	r3, [pc, #108]	; (800658c <_puts_r+0xd4>)
 800651e:	429c      	cmp	r4, r3
 8006520:	d101      	bne.n	8006526 <_puts_r+0x6e>
 8006522:	68ac      	ldr	r4, [r5, #8]
 8006524:	e7da      	b.n	80064dc <_puts_r+0x24>
 8006526:	4b1a      	ldr	r3, [pc, #104]	; (8006590 <_puts_r+0xd8>)
 8006528:	429c      	cmp	r4, r3
 800652a:	bf08      	it	eq
 800652c:	68ec      	ldreq	r4, [r5, #12]
 800652e:	e7d5      	b.n	80064dc <_puts_r+0x24>
 8006530:	4621      	mov	r1, r4
 8006532:	4628      	mov	r0, r5
 8006534:	f000 ff60 	bl	80073f8 <__swsetup_r>
 8006538:	2800      	cmp	r0, #0
 800653a:	d0dd      	beq.n	80064f8 <_puts_r+0x40>
 800653c:	f04f 35ff 	mov.w	r5, #4294967295
 8006540:	6e63      	ldr	r3, [r4, #100]	; 0x64
 8006542:	07da      	lsls	r2, r3, #31
 8006544:	d405      	bmi.n	8006552 <_puts_r+0x9a>
 8006546:	89a3      	ldrh	r3, [r4, #12]
 8006548:	059b      	lsls	r3, r3, #22
 800654a:	d402      	bmi.n	8006552 <_puts_r+0x9a>
 800654c:	6da0      	ldr	r0, [r4, #88]	; 0x58
 800654e:	f002 fb67 	bl	8008c20 <__retarget_lock_release_recursive>
 8006552:	4628      	mov	r0, r5
 8006554:	bd70      	pop	{r4, r5, r6, pc}
 8006556:	2b00      	cmp	r3, #0
 8006558:	da04      	bge.n	8006564 <_puts_r+0xac>
 800655a:	69a2      	ldr	r2, [r4, #24]
 800655c:	429a      	cmp	r2, r3
 800655e:	dc06      	bgt.n	800656e <_puts_r+0xb6>
 8006560:	290a      	cmp	r1, #10
 8006562:	d004      	beq.n	800656e <_puts_r+0xb6>
 8006564:	6823      	ldr	r3, [r4, #0]
 8006566:	1c5a      	adds	r2, r3, #1
 8006568:	6022      	str	r2, [r4, #0]
 800656a:	7019      	strb	r1, [r3, #0]
 800656c:	e7c5      	b.n	80064fa <_puts_r+0x42>
 800656e:	4622      	mov	r2, r4
 8006570:	4628      	mov	r0, r5
 8006572:	f000 feef 	bl	8007354 <__swbuf_r>
 8006576:	3001      	adds	r0, #1
 8006578:	d1bf      	bne.n	80064fa <_puts_r+0x42>
 800657a:	e7df      	b.n	800653c <_puts_r+0x84>
 800657c:	6823      	ldr	r3, [r4, #0]
 800657e:	250a      	movs	r5, #10
 8006580:	1c5a      	adds	r2, r3, #1
 8006582:	6022      	str	r2, [r4, #0]
 8006584:	701d      	strb	r5, [r3, #0]
 8006586:	e7db      	b.n	8006540 <_puts_r+0x88>
 8006588:	0800b390 	.word	0x0800b390
 800658c:	0800b3b0 	.word	0x0800b3b0
 8006590:	0800b370 	.word	0x0800b370

08006594 <puts>:
 8006594:	4b02      	ldr	r3, [pc, #8]	; (80065a0 <puts+0xc>)
 8006596:	4601      	mov	r1, r0
 8006598:	6818      	ldr	r0, [r3, #0]
 800659a:	f7ff bf8d 	b.w	80064b8 <_puts_r>
 800659e:	bf00      	nop
 80065a0:	20000014 	.word	0x20000014

080065a4 <nanf>:
 80065a4:	ed9f 0a01 	vldr	s0, [pc, #4]	; 80065ac <nanf+0x8>
 80065a8:	4770      	bx	lr
 80065aa:	bf00      	nop
 80065ac:	7fc00000 	.word	0x7fc00000

080065b0 <siprintf>:
 80065b0:	b40e      	push	{r1, r2, r3}
 80065b2:	b500      	push	{lr}
 80065b4:	b09c      	sub	sp, #112	; 0x70
 80065b6:	ab1d      	add	r3, sp, #116	; 0x74
 80065b8:	9002      	str	r0, [sp, #8]
 80065ba:	9006      	str	r0, [sp, #24]
 80065bc:	f06f 4100 	mvn.w	r1, #2147483648	; 0x80000000
 80065c0:	4809      	ldr	r0, [pc, #36]	; (80065e8 <siprintf+0x38>)
 80065c2:	9107      	str	r1, [sp, #28]
 80065c4:	9104      	str	r1, [sp, #16]
 80065c6:	4909      	ldr	r1, [pc, #36]	; (80065ec <siprintf+0x3c>)
 80065c8:	f853 2b04 	ldr.w	r2, [r3], #4
 80065cc:	9105      	str	r1, [sp, #20]
 80065ce:	6800      	ldr	r0, [r0, #0]
 80065d0:	9301      	str	r3, [sp, #4]
 80065d2:	a902      	add	r1, sp, #8
 80065d4:	f003 f982 	bl	80098dc <_svfiprintf_r>
 80065d8:	9b02      	ldr	r3, [sp, #8]
 80065da:	2200      	movs	r2, #0
 80065dc:	701a      	strb	r2, [r3, #0]
 80065de:	b01c      	add	sp, #112	; 0x70
 80065e0:	f85d eb04 	ldr.w	lr, [sp], #4
 80065e4:	b003      	add	sp, #12
 80065e6:	4770      	bx	lr
 80065e8:	20000014 	.word	0x20000014
 80065ec:	ffff0208 	.word	0xffff0208

080065f0 <sulp>:
 80065f0:	b570      	push	{r4, r5, r6, lr}
 80065f2:	4604      	mov	r4, r0
 80065f4:	460d      	mov	r5, r1
 80065f6:	ec45 4b10 	vmov	d0, r4, r5
 80065fa:	4616      	mov	r6, r2
 80065fc:	f002 ff0a 	bl	8009414 <__ulp>
 8006600:	ec51 0b10 	vmov	r0, r1, d0
 8006604:	b17e      	cbz	r6, 8006626 <sulp+0x36>
 8006606:	f3c5 530a 	ubfx	r3, r5, #20, #11
 800660a:	f1c3 036b 	rsb	r3, r3, #107	; 0x6b
 800660e:	2b00      	cmp	r3, #0
 8006610:	dd09      	ble.n	8006626 <sulp+0x36>
 8006612:	051b      	lsls	r3, r3, #20
 8006614:	f103 557f 	add.w	r5, r3, #1069547520	; 0x3fc00000
 8006618:	2400      	movs	r4, #0
 800661a:	f505 1540 	add.w	r5, r5, #3145728	; 0x300000
 800661e:	4622      	mov	r2, r4
 8006620:	462b      	mov	r3, r5
 8006622:	f7f9 ffe9 	bl	80005f8 <__aeabi_dmul>
 8006626:	bd70      	pop	{r4, r5, r6, pc}

08006628 <_strtod_l>:
 8006628:	e92d 4ff0 	stmdb	sp!, {r4, r5, r6, r7, r8, r9, sl, fp, lr}
 800662c:	b0a3      	sub	sp, #140	; 0x8c
 800662e:	461f      	mov	r7, r3
 8006630:	2300      	movs	r3, #0
 8006632:	931e      	str	r3, [sp, #120]	; 0x78
 8006634:	4ba4      	ldr	r3, [pc, #656]	; (80068c8 <_strtod_l+0x2a0>)
 8006636:	9219      	str	r2, [sp, #100]	; 0x64
 8006638:	681b      	ldr	r3, [r3, #0]
 800663a:	9307      	str	r3, [sp, #28]
 800663c:	4604      	mov	r4, r0
 800663e:	4618      	mov	r0, r3
 8006640:	4688      	mov	r8, r1
 8006642:	f7f9 fdc5 	bl	80001d0 <strlen>
 8006646:	f04f 0a00 	mov.w	sl, #0
 800664a:	4605      	mov	r5, r0
 800664c:	f04f 0b00 	mov.w	fp, #0
 8006650:	f8cd 8074 	str.w	r8, [sp, #116]	; 0x74
 8006654:	9b1d      	ldr	r3, [sp, #116]	; 0x74
 8006656:	781a      	ldrb	r2, [r3, #0]
 8006658:	2a2b      	cmp	r2, #43	; 0x2b
 800665a:	d04c      	beq.n	80066f6 <_strtod_l+0xce>
 800665c:	d839      	bhi.n	80066d2 <_strtod_l+0xaa>
 800665e:	2a0d      	cmp	r2, #13
 8006660:	d832      	bhi.n	80066c8 <_strtod_l+0xa0>
 8006662:	2a08      	cmp	r2, #8
 8006664:	d832      	bhi.n	80066cc <_strtod_l+0xa4>
 8006666:	2a00      	cmp	r2, #0
 8006668:	d03c      	beq.n	80066e4 <_strtod_l+0xbc>
 800666a:	2300      	movs	r3, #0
 800666c:	930e      	str	r3, [sp, #56]	; 0x38
 800666e:	9e1d      	ldr	r6, [sp, #116]	; 0x74
 8006670:	7833      	ldrb	r3, [r6, #0]
 8006672:	2b30      	cmp	r3, #48	; 0x30
 8006674:	f040 80b4 	bne.w	80067e0 <_strtod_l+0x1b8>
 8006678:	7873      	ldrb	r3, [r6, #1]
 800667a:	f003 03df 	and.w	r3, r3, #223	; 0xdf
 800667e:	2b58      	cmp	r3, #88	; 0x58
 8006680:	d16c      	bne.n	800675c <_strtod_l+0x134>
 8006682:	9b0e      	ldr	r3, [sp, #56]	; 0x38
 8006684:	9301      	str	r3, [sp, #4]
 8006686:	ab1e      	add	r3, sp, #120	; 0x78
 8006688:	9702      	str	r7, [sp, #8]
 800668a:	9300      	str	r3, [sp, #0]
 800668c:	4a8f      	ldr	r2, [pc, #572]	; (80068cc <_strtod_l+0x2a4>)
 800668e:	ab1f      	add	r3, sp, #124	; 0x7c
 8006690:	a91d      	add	r1, sp, #116	; 0x74
 8006692:	4620      	mov	r0, r4
 8006694:	f001 ffb6 	bl	8008604 <__gethex>
 8006698:	f010 0707 	ands.w	r7, r0, #7
 800669c:	4605      	mov	r5, r0
 800669e:	d005      	beq.n	80066ac <_strtod_l+0x84>
 80066a0:	2f06      	cmp	r7, #6
 80066a2:	d12a      	bne.n	80066fa <_strtod_l+0xd2>
 80066a4:	3601      	adds	r6, #1
 80066a6:	2300      	movs	r3, #0
 80066a8:	961d      	str	r6, [sp, #116]	; 0x74
 80066aa:	930e      	str	r3, [sp, #56]	; 0x38
 80066ac:	9b19      	ldr	r3, [sp, #100]	; 0x64
 80066ae:	2b00      	cmp	r3, #0
 80066b0:	f040 8596 	bne.w	80071e0 <_strtod_l+0xbb8>
 80066b4:	9b0e      	ldr	r3, [sp, #56]	; 0x38
 80066b6:	b1db      	cbz	r3, 80066f0 <_strtod_l+0xc8>
 80066b8:	4652      	mov	r2, sl
 80066ba:	f10b 4300 	add.w	r3, fp, #2147483648	; 0x80000000
 80066be:	ec43 2b10 	vmov	d0, r2, r3
 80066c2:	b023      	add	sp, #140	; 0x8c
 80066c4:	e8bd 8ff0 	ldmia.w	sp!, {r4, r5, r6, r7, r8, r9, sl, fp, pc}
 80066c8:	2a20      	cmp	r2, #32
 80066ca:	d1ce      	bne.n	800666a <_strtod_l+0x42>
 80066cc:	3301      	adds	r3, #1
 80066ce:	931d      	str	r3, [sp, #116]	; 0x74
 80066d0:	e7c0      	b.n	8006654 <_strtod_l+0x2c>
 80066d2:	2a2d      	cmp	r2, #45	; 0x2d
 80066d4:	d1c9      	bne.n	800666a <_strtod_l+0x42>
 80066d6:	2201      	movs	r2, #1
 80066d8:	920e      	str	r2, [sp, #56]	; 0x38
 80066da:	1c5a      	adds	r2, r3, #1
 80066dc:	921d      	str	r2, [sp, #116]	; 0x74
 80066de:	785b      	ldrb	r3, [r3, #1]
 80066e0:	2b00      	cmp	r3, #0
 80066e2:	d1c4      	bne.n	800666e <_strtod_l+0x46>
 80066e4:	9b19      	ldr	r3, [sp, #100]	; 0x64
 80066e6:	f8cd 8074 	str.w	r8, [sp, #116]	; 0x74
 80066ea:	2b00      	cmp	r3, #0
 80066ec:	f040 8576 	bne.w	80071dc <_strtod_l+0xbb4>
 80066f0:	4652      	mov	r2, sl
 80066f2:	465b      	mov	r3, fp
 80066f4:	e7e3      	b.n	80066be <_strtod_l+0x96>
 80066f6:	2200      	movs	r2, #0
 80066f8:	e7ee      	b.n	80066d8 <_strtod_l+0xb0>
 80066fa:	9a1e      	ldr	r2, [sp, #120]	; 0x78
 80066fc:	b13a      	cbz	r2, 800670e <_strtod_l+0xe6>
 80066fe:	2135      	movs	r1, #53	; 0x35
 8006700:	a820      	add	r0, sp, #128	; 0x80
 8006702:	f002 ff92 	bl	800962a <__copybits>
 8006706:	991e      	ldr	r1, [sp, #120]	; 0x78
 8006708:	4620      	mov	r0, r4
 800670a:	f002 fb57 	bl	8008dbc <_Bfree>
 800670e:	3f01      	subs	r7, #1
 8006710:	2f05      	cmp	r7, #5
 8006712:	d807      	bhi.n	8006724 <_strtod_l+0xfc>
 8006714:	e8df f007 	tbb	[pc, r7]
 8006718:	1d180b0e 	.word	0x1d180b0e
 800671c:	030e      	.short	0x030e
 800671e:	f04f 0b00 	mov.w	fp, #0
 8006722:	46da      	mov	sl, fp
 8006724:	0728      	lsls	r0, r5, #28
 8006726:	d5c1      	bpl.n	80066ac <_strtod_l+0x84>
 8006728:	f04b 4b00 	orr.w	fp, fp, #2147483648	; 0x80000000
 800672c:	e7be      	b.n	80066ac <_strtod_l+0x84>
 800672e:	e9dd ab20 	ldrd	sl, fp, [sp, #128]	; 0x80
 8006732:	e7f7      	b.n	8006724 <_strtod_l+0xfc>
 8006734:	e9dd a320 	ldrd	sl, r3, [sp, #128]	; 0x80
 8006738:	9a1f      	ldr	r2, [sp, #124]	; 0x7c
 800673a:	f423 1380 	bic.w	r3, r3, #1048576	; 0x100000
 800673e:	f202 4233 	addw	r2, r2, #1075	; 0x433
 8006742:	ea43 5b02 	orr.w	fp, r3, r2, lsl #20
 8006746:	e7ed      	b.n	8006724 <_strtod_l+0xfc>
 8006748:	f8df b184 	ldr.w	fp, [pc, #388]	; 80068d0 <_strtod_l+0x2a8>
 800674c:	f04f 0a00 	mov.w	sl, #0
 8006750:	e7e8      	b.n	8006724 <_strtod_l+0xfc>
 8006752:	f06f 4b00 	mvn.w	fp, #2147483648	; 0x80000000
 8006756:	f04f 3aff 	mov.w	sl, #4294967295
 800675a:	e7e3      	b.n	8006724 <_strtod_l+0xfc>
 800675c:	9b1d      	ldr	r3, [sp, #116]	; 0x74
 800675e:	1c5a      	adds	r2, r3, #1
 8006760:	921d      	str	r2, [sp, #116]	; 0x74
 8006762:	785b      	ldrb	r3, [r3, #1]
 8006764:	2b30      	cmp	r3, #48	; 0x30
 8006766:	d0f9      	beq.n	800675c <_strtod_l+0x134>
 8006768:	2b00      	cmp	r3, #0
 800676a:	d09f      	beq.n	80066ac <_strtod_l+0x84>
 800676c:	2301      	movs	r3, #1
 800676e:	f04f 0900 	mov.w	r9, #0
 8006772:	9304      	str	r3, [sp, #16]
 8006774:	9b1d      	ldr	r3, [sp, #116]	; 0x74
 8006776:	930a      	str	r3, [sp, #40]	; 0x28
 8006778:	f8cd 9024 	str.w	r9, [sp, #36]	; 0x24
 800677c:	464f      	mov	r7, r9
 800677e:	220a      	movs	r2, #10
 8006780:	981d      	ldr	r0, [sp, #116]	; 0x74
 8006782:	7806      	ldrb	r6, [r0, #0]
 8006784:	f1a6 0330 	sub.w	r3, r6, #48	; 0x30
 8006788:	b2d9      	uxtb	r1, r3
 800678a:	2909      	cmp	r1, #9
 800678c:	d92a      	bls.n	80067e4 <_strtod_l+0x1bc>
 800678e:	9907      	ldr	r1, [sp, #28]
 8006790:	462a      	mov	r2, r5
 8006792:	f003 fb58 	bl	8009e46 <strncmp>
 8006796:	b398      	cbz	r0, 8006800 <_strtod_l+0x1d8>
 8006798:	2000      	movs	r0, #0
 800679a:	4633      	mov	r3, r6
 800679c:	463d      	mov	r5, r7
 800679e:	9007      	str	r0, [sp, #28]
 80067a0:	4602      	mov	r2, r0
 80067a2:	2b65      	cmp	r3, #101	; 0x65
 80067a4:	d001      	beq.n	80067aa <_strtod_l+0x182>
 80067a6:	2b45      	cmp	r3, #69	; 0x45
 80067a8:	d118      	bne.n	80067dc <_strtod_l+0x1b4>
 80067aa:	b91d      	cbnz	r5, 80067b4 <_strtod_l+0x18c>
 80067ac:	9b04      	ldr	r3, [sp, #16]
 80067ae:	4303      	orrs	r3, r0
 80067b0:	d098      	beq.n	80066e4 <_strtod_l+0xbc>
 80067b2:	2500      	movs	r5, #0
 80067b4:	f8dd 8074 	ldr.w	r8, [sp, #116]	; 0x74
 80067b8:	f108 0301 	add.w	r3, r8, #1
 80067bc:	931d      	str	r3, [sp, #116]	; 0x74
 80067be:	f898 3001 	ldrb.w	r3, [r8, #1]
 80067c2:	2b2b      	cmp	r3, #43	; 0x2b
 80067c4:	d075      	beq.n	80068b2 <_strtod_l+0x28a>
 80067c6:	2b2d      	cmp	r3, #45	; 0x2d
 80067c8:	d07b      	beq.n	80068c2 <_strtod_l+0x29a>
 80067ca:	f04f 0c00 	mov.w	ip, #0
 80067ce:	f1a3 0130 	sub.w	r1, r3, #48	; 0x30
 80067d2:	2909      	cmp	r1, #9
 80067d4:	f240 8082 	bls.w	80068dc <_strtod_l+0x2b4>
 80067d8:	f8cd 8074 	str.w	r8, [sp, #116]	; 0x74
 80067dc:	2600      	movs	r6, #0
 80067de:	e09d      	b.n	800691c <_strtod_l+0x2f4>
 80067e0:	2300      	movs	r3, #0
 80067e2:	e7c4      	b.n	800676e <_strtod_l+0x146>
 80067e4:	2f08      	cmp	r7, #8
 80067e6:	bfd8      	it	le
 80067e8:	9909      	ldrle	r1, [sp, #36]	; 0x24
 80067ea:	f100 0001 	add.w	r0, r0, #1
 80067ee:	bfda      	itte	le
 80067f0:	fb02 3301 	mlale	r3, r2, r1, r3
 80067f4:	9309      	strle	r3, [sp, #36]	; 0x24
 80067f6:	fb02 3909 	mlagt	r9, r2, r9, r3
 80067fa:	3701      	adds	r7, #1
 80067fc:	901d      	str	r0, [sp, #116]	; 0x74
 80067fe:	e7bf      	b.n	8006780 <_strtod_l+0x158>
 8006800:	9b1d      	ldr	r3, [sp, #116]	; 0x74
 8006802:	195a      	adds	r2, r3, r5
 8006804:	921d      	str	r2, [sp, #116]	; 0x74
 8006806:	5d5b      	ldrb	r3, [r3, r5]
 8006808:	2f00      	cmp	r7, #0
 800680a:	d037      	beq.n	800687c <_strtod_l+0x254>
 800680c:	9007      	str	r0, [sp, #28]
 800680e:	463d      	mov	r5, r7
 8006810:	f1a3 0230 	sub.w	r2, r3, #48	; 0x30
 8006814:	2a09      	cmp	r2, #9
 8006816:	d912      	bls.n	800683e <_strtod_l+0x216>
 8006818:	2201      	movs	r2, #1
 800681a:	e7c2      	b.n	80067a2 <_strtod_l+0x17a>
 800681c:	9b1d      	ldr	r3, [sp, #116]	; 0x74
 800681e:	1c5a      	adds	r2, r3, #1
 8006820:	921d      	str	r2, [sp, #116]	; 0x74
 8006822:	785b      	ldrb	r3, [r3, #1]
 8006824:	3001      	adds	r0, #1
 8006826:	2b30      	cmp	r3, #48	; 0x30
 8006828:	d0f8      	beq.n	800681c <_strtod_l+0x1f4>
 800682a:	f1a3 0231 	sub.w	r2, r3, #49	; 0x31
 800682e:	2a08      	cmp	r2, #8
 8006830:	f200 84db 	bhi.w	80071ea <_strtod_l+0xbc2>
 8006834:	9a1d      	ldr	r2, [sp, #116]	; 0x74
 8006836:	9007      	str	r0, [sp, #28]
 8006838:	2000      	movs	r0, #0
 800683a:	920a      	str	r2, [sp, #40]	; 0x28
 800683c:	4605      	mov	r5, r0
 800683e:	3b30      	subs	r3, #48	; 0x30
 8006840:	f100 0201 	add.w	r2, r0, #1
 8006844:	d014      	beq.n	8006870 <_strtod_l+0x248>
 8006846:	9907      	ldr	r1, [sp, #28]
 8006848:	4411      	add	r1, r2
 800684a:	9107      	str	r1, [sp, #28]
 800684c:	462a      	mov	r2, r5
 800684e:	eb00 0e05 	add.w	lr, r0, r5
 8006852:	210a      	movs	r1, #10
 8006854:	4572      	cmp	r2, lr
 8006856:	d113      	bne.n	8006880 <_strtod_l+0x258>
 8006858:	182a      	adds	r2, r5, r0
 800685a:	2a08      	cmp	r2, #8
 800685c:	f105 0501 	add.w	r5, r5, #1
 8006860:	4405      	add	r5, r0
 8006862:	dc1c      	bgt.n	800689e <_strtod_l+0x276>
 8006864:	9909      	ldr	r1, [sp, #36]	; 0x24
 8006866:	220a      	movs	r2, #10
 8006868:	fb02 3301 	mla	r3, r2, r1, r3
 800686c:	9309      	str	r3, [sp, #36]	; 0x24
 800686e:	2200      	movs	r2, #0
 8006870:	9b1d      	ldr	r3, [sp, #116]	; 0x74
 8006872:	1c59      	adds	r1, r3, #1
 8006874:	911d      	str	r1, [sp, #116]	; 0x74
 8006876:	785b      	ldrb	r3, [r3, #1]
 8006878:	4610      	mov	r0, r2
 800687a:	e7c9      	b.n	8006810 <_strtod_l+0x1e8>
 800687c:	4638      	mov	r0, r7
 800687e:	e7d2      	b.n	8006826 <_strtod_l+0x1fe>
 8006880:	2a08      	cmp	r2, #8
 8006882:	dc04      	bgt.n	800688e <_strtod_l+0x266>
 8006884:	9e09      	ldr	r6, [sp, #36]	; 0x24
 8006886:	434e      	muls	r6, r1
 8006888:	9609      	str	r6, [sp, #36]	; 0x24
 800688a:	3201      	adds	r2, #1
 800688c:	e7e2      	b.n	8006854 <_strtod_l+0x22c>
 800688e:	f102 0c01 	add.w	ip, r2, #1
 8006892:	f1bc 0f10 	cmp.w	ip, #16
 8006896:	bfd8      	it	le
 8006898:	fb01 f909 	mulle.w	r9, r1, r9
 800689c:	e7f5      	b.n	800688a <_strtod_l+0x262>
 800689e:	2d10      	cmp	r5, #16
 80068a0:	bfdc      	itt	le
 80068a2:	220a      	movle	r2, #10
 80068a4:	fb02 3909 	mlale	r9, r2, r9, r3
 80068a8:	e7e1      	b.n	800686e <_strtod_l+0x246>
 80068aa:	2300      	movs	r3, #0
 80068ac:	9307      	str	r3, [sp, #28]
 80068ae:	2201      	movs	r2, #1
 80068b0:	e77c      	b.n	80067ac <_strtod_l+0x184>
 80068b2:	f04f 0c00 	mov.w	ip, #0
 80068b6:	f108 0302 	add.w	r3, r8, #2
 80068ba:	931d      	str	r3, [sp, #116]	; 0x74
 80068bc:	f898 3002 	ldrb.w	r3, [r8, #2]
 80068c0:	e785      	b.n	80067ce <_strtod_l+0x1a6>
 80068c2:	f04f 0c01 	mov.w	ip, #1
 80068c6:	e7f6      	b.n	80068b6 <_strtod_l+0x28e>
 80068c8:	0800b43c 	.word	0x0800b43c
 80068cc:	0800b188 	.word	0x0800b188
 80068d0:	7ff00000 	.word	0x7ff00000
 80068d4:	9b1d      	ldr	r3, [sp, #116]	; 0x74
 80068d6:	1c59      	adds	r1, r3, #1
 80068d8:	911d      	str	r1, [sp, #116]	; 0x74
 80068da:	785b      	ldrb	r3, [r3, #1]
 80068dc:	2b30      	cmp	r3, #48	; 0x30
 80068de:	d0f9      	beq.n	80068d4 <_strtod_l+0x2ac>
 80068e0:	f1a3 0131 	sub.w	r1, r3, #49	; 0x31
 80068e4:	2908      	cmp	r1, #8
 80068e6:	f63f af79 	bhi.w	80067dc <_strtod_l+0x1b4>
 80068ea:	f1a3 0e30 	sub.w	lr, r3, #48	; 0x30
 80068ee:	9b1d      	ldr	r3, [sp, #116]	; 0x74
 80068f0:	9308      	str	r3, [sp, #32]
 80068f2:	9b1d      	ldr	r3, [sp, #116]	; 0x74
 80068f4:	1c59      	adds	r1, r3, #1
 80068f6:	911d      	str	r1, [sp, #116]	; 0x74
 80068f8:	785b      	ldrb	r3, [r3, #1]
 80068fa:	f1a3 0630 	sub.w	r6, r3, #48	; 0x30
 80068fe:	2e09      	cmp	r6, #9
 8006900:	d937      	bls.n	8006972 <_strtod_l+0x34a>
 8006902:	9e08      	ldr	r6, [sp, #32]
 8006904:	1b89      	subs	r1, r1, r6
 8006906:	2908      	cmp	r1, #8
 8006908:	f644 661f 	movw	r6, #19999	; 0x4e1f
 800690c:	dc02      	bgt.n	8006914 <_strtod_l+0x2ec>
 800690e:	4576      	cmp	r6, lr
 8006910:	bfa8      	it	ge
 8006912:	4676      	movge	r6, lr
 8006914:	f1bc 0f00 	cmp.w	ip, #0
 8006918:	d000      	beq.n	800691c <_strtod_l+0x2f4>
 800691a:	4276      	negs	r6, r6
 800691c:	2d00      	cmp	r5, #0
 800691e:	d14f      	bne.n	80069c0 <_strtod_l+0x398>
 8006920:	9904      	ldr	r1, [sp, #16]
 8006922:	4301      	orrs	r1, r0
 8006924:	f47f aec2 	bne.w	80066ac <_strtod_l+0x84>
 8006928:	2a00      	cmp	r2, #0
 800692a:	f47f aedb 	bne.w	80066e4 <_strtod_l+0xbc>
 800692e:	2b69      	cmp	r3, #105	; 0x69
 8006930:	d027      	beq.n	8006982 <_strtod_l+0x35a>
 8006932:	dc24      	bgt.n	800697e <_strtod_l+0x356>
 8006934:	2b49      	cmp	r3, #73	; 0x49
 8006936:	d024      	beq.n	8006982 <_strtod_l+0x35a>
 8006938:	2b4e      	cmp	r3, #78	; 0x4e
 800693a:	f47f aed3 	bne.w	80066e4 <_strtod_l+0xbc>
 800693e:	499e      	ldr	r1, [pc, #632]	; (8006bb8 <_strtod_l+0x590>)
 8006940:	a81d      	add	r0, sp, #116	; 0x74
 8006942:	f002 f8b7 	bl	8008ab4 <__match>
 8006946:	2800      	cmp	r0, #0
 8006948:	f43f aecc 	beq.w	80066e4 <_strtod_l+0xbc>
 800694c:	9b1d      	ldr	r3, [sp, #116]	; 0x74
 800694e:	781b      	ldrb	r3, [r3, #0]
 8006950:	2b28      	cmp	r3, #40	; 0x28
 8006952:	d12d      	bne.n	80069b0 <_strtod_l+0x388>
 8006954:	4999      	ldr	r1, [pc, #612]	; (8006bbc <_strtod_l+0x594>)
 8006956:	aa20      	add	r2, sp, #128	; 0x80
 8006958:	a81d      	add	r0, sp, #116	; 0x74
 800695a:	f002 f8bf 	bl	8008adc <__hexnan>
 800695e:	2805      	cmp	r0, #5
 8006960:	d126      	bne.n	80069b0 <_strtod_l+0x388>
 8006962:	9b21      	ldr	r3, [sp, #132]	; 0x84
 8006964:	f8dd a080 	ldr.w	sl, [sp, #128]	; 0x80
 8006968:	f043 4bff 	orr.w	fp, r3, #2139095040	; 0x7f800000
 800696c:	f44b 0be0 	orr.w	fp, fp, #7340032	; 0x700000
 8006970:	e69c      	b.n	80066ac <_strtod_l+0x84>
 8006972:	210a      	movs	r1, #10
 8006974:	fb01 3e0e 	mla	lr, r1, lr, r3
 8006978:	f1ae 0e30 	sub.w	lr, lr, #48	; 0x30
 800697c:	e7b9      	b.n	80068f2 <_strtod_l+0x2ca>
 800697e:	2b6e      	cmp	r3, #110	; 0x6e
 8006980:	e7db      	b.n	800693a <_strtod_l+0x312>
 8006982:	498f      	ldr	r1, [pc, #572]	; (8006bc0 <_strtod_l+0x598>)
 8006984:	a81d      	add	r0, sp, #116	; 0x74
 8006986:	f002 f895 	bl	8008ab4 <__match>
 800698a:	2800      	cmp	r0, #0
 800698c:	f43f aeaa 	beq.w	80066e4 <_strtod_l+0xbc>
 8006990:	9b1d      	ldr	r3, [sp, #116]	; 0x74
 8006992:	498c      	ldr	r1, [pc, #560]	; (8006bc4 <_strtod_l+0x59c>)
 8006994:	3b01      	subs	r3, #1
 8006996:	a81d      	add	r0, sp, #116	; 0x74
 8006998:	931d      	str	r3, [sp, #116]	; 0x74
 800699a:	f002 f88b 	bl	8008ab4 <__match>
 800699e:	b910      	cbnz	r0, 80069a6 <_strtod_l+0x37e>
 80069a0:	9b1d      	ldr	r3, [sp, #116]	; 0x74
 80069a2:	3301      	adds	r3, #1
 80069a4:	931d      	str	r3, [sp, #116]	; 0x74
 80069a6:	f8df b22c 	ldr.w	fp, [pc, #556]	; 8006bd4 <_strtod_l+0x5ac>
 80069aa:	f04f 0a00 	mov.w	sl, #0
 80069ae:	e67d      	b.n	80066ac <_strtod_l+0x84>
 80069b0:	4885      	ldr	r0, [pc, #532]	; (8006bc8 <_strtod_l+0x5a0>)
 80069b2:	f003 f9ed 	bl	8009d90 <nan>
 80069b6:	ed8d 0b04 	vstr	d0, [sp, #16]
 80069ba:	e9dd ab04 	ldrd	sl, fp, [sp, #16]
 80069be:	e675      	b.n	80066ac <_strtod_l+0x84>
 80069c0:	9b07      	ldr	r3, [sp, #28]
 80069c2:	9809      	ldr	r0, [sp, #36]	; 0x24
 80069c4:	1af3      	subs	r3, r6, r3
 80069c6:	2f00      	cmp	r7, #0
 80069c8:	bf08      	it	eq
 80069ca:	462f      	moveq	r7, r5
 80069cc:	2d10      	cmp	r5, #16
 80069ce:	9308      	str	r3, [sp, #32]
 80069d0:	46a8      	mov	r8, r5
 80069d2:	bfa8      	it	ge
 80069d4:	f04f 0810 	movge.w	r8, #16
 80069d8:	f7f9 fd94 	bl	8000504 <__aeabi_ui2d>
 80069dc:	2d09      	cmp	r5, #9
 80069de:	4682      	mov	sl, r0
 80069e0:	468b      	mov	fp, r1
 80069e2:	dd13      	ble.n	8006a0c <_strtod_l+0x3e4>
 80069e4:	4b79      	ldr	r3, [pc, #484]	; (8006bcc <_strtod_l+0x5a4>)
 80069e6:	eb03 03c8 	add.w	r3, r3, r8, lsl #3
 80069ea:	e953 2312 	ldrd	r2, r3, [r3, #-72]	; 0x48
 80069ee:	f7f9 fe03 	bl	80005f8 <__aeabi_dmul>
 80069f2:	4682      	mov	sl, r0
 80069f4:	4648      	mov	r0, r9
 80069f6:	468b      	mov	fp, r1
 80069f8:	f7f9 fd84 	bl	8000504 <__aeabi_ui2d>
 80069fc:	4602      	mov	r2, r0
 80069fe:	460b      	mov	r3, r1
 8006a00:	4650      	mov	r0, sl
 8006a02:	4659      	mov	r1, fp
 8006a04:	f7f9 fc42 	bl	800028c <__adddf3>
 8006a08:	4682      	mov	sl, r0
 8006a0a:	468b      	mov	fp, r1
 8006a0c:	2d0f      	cmp	r5, #15
 8006a0e:	dc38      	bgt.n	8006a82 <_strtod_l+0x45a>
 8006a10:	9b08      	ldr	r3, [sp, #32]
 8006a12:	2b00      	cmp	r3, #0
 8006a14:	f43f ae4a 	beq.w	80066ac <_strtod_l+0x84>
 8006a18:	dd24      	ble.n	8006a64 <_strtod_l+0x43c>
 8006a1a:	2b16      	cmp	r3, #22
 8006a1c:	dc0b      	bgt.n	8006a36 <_strtod_l+0x40e>
 8006a1e:	4d6b      	ldr	r5, [pc, #428]	; (8006bcc <_strtod_l+0x5a4>)
 8006a20:	eb05 05c3 	add.w	r5, r5, r3, lsl #3
 8006a24:	e9d5 0100 	ldrd	r0, r1, [r5]
 8006a28:	4652      	mov	r2, sl
 8006a2a:	465b      	mov	r3, fp
 8006a2c:	f7f9 fde4 	bl	80005f8 <__aeabi_dmul>
 8006a30:	4682      	mov	sl, r0
 8006a32:	468b      	mov	fp, r1
 8006a34:	e63a      	b.n	80066ac <_strtod_l+0x84>
 8006a36:	9a08      	ldr	r2, [sp, #32]
 8006a38:	f1c5 0325 	rsb	r3, r5, #37	; 0x25
 8006a3c:	4293      	cmp	r3, r2
 8006a3e:	db20      	blt.n	8006a82 <_strtod_l+0x45a>
 8006a40:	4c62      	ldr	r4, [pc, #392]	; (8006bcc <_strtod_l+0x5a4>)
 8006a42:	f1c5 050f 	rsb	r5, r5, #15
 8006a46:	eb04 01c5 	add.w	r1, r4, r5, lsl #3
 8006a4a:	4652      	mov	r2, sl
 8006a4c:	465b      	mov	r3, fp
 8006a4e:	e9d1 0100 	ldrd	r0, r1, [r1]
 8006a52:	f7f9 fdd1 	bl	80005f8 <__aeabi_dmul>
 8006a56:	9b08      	ldr	r3, [sp, #32]
 8006a58:	1b5d      	subs	r5, r3, r5
 8006a5a:	eb04 04c5 	add.w	r4, r4, r5, lsl #3
 8006a5e:	e9d4 2300 	ldrd	r2, r3, [r4]
 8006a62:	e7e3      	b.n	8006a2c <_strtod_l+0x404>
 8006a64:	9b08      	ldr	r3, [sp, #32]
 8006a66:	3316      	adds	r3, #22
 8006a68:	db0b      	blt.n	8006a82 <_strtod_l+0x45a>
 8006a6a:	9b07      	ldr	r3, [sp, #28]
 8006a6c:	4a57      	ldr	r2, [pc, #348]	; (8006bcc <_strtod_l+0x5a4>)
 8006a6e:	1b9e      	subs	r6, r3, r6
 8006a70:	eb02 06c6 	add.w	r6, r2, r6, lsl #3
 8006a74:	e9d6 2300 	ldrd	r2, r3, [r6]
 8006a78:	4650      	mov	r0, sl
 8006a7a:	4659      	mov	r1, fp
 8006a7c:	f7f9 fee6 	bl	800084c <__aeabi_ddiv>
 8006a80:	e7d6      	b.n	8006a30 <_strtod_l+0x408>
 8006a82:	9b08      	ldr	r3, [sp, #32]
 8006a84:	eba5 0808 	sub.w	r8, r5, r8
 8006a88:	4498      	add	r8, r3
 8006a8a:	f1b8 0f00 	cmp.w	r8, #0
 8006a8e:	dd71      	ble.n	8006b74 <_strtod_l+0x54c>
 8006a90:	f018 030f 	ands.w	r3, r8, #15
 8006a94:	d00a      	beq.n	8006aac <_strtod_l+0x484>
 8006a96:	494d      	ldr	r1, [pc, #308]	; (8006bcc <_strtod_l+0x5a4>)
 8006a98:	eb01 01c3 	add.w	r1, r1, r3, lsl #3
 8006a9c:	4652      	mov	r2, sl
 8006a9e:	465b      	mov	r3, fp
 8006aa0:	e9d1 0100 	ldrd	r0, r1, [r1]
 8006aa4:	f7f9 fda8 	bl	80005f8 <__aeabi_dmul>
 8006aa8:	4682      	mov	sl, r0
 8006aaa:	468b      	mov	fp, r1
 8006aac:	f038 080f 	bics.w	r8, r8, #15
 8006ab0:	d04d      	beq.n	8006b4e <_strtod_l+0x526>
 8006ab2:	f5b8 7f9a 	cmp.w	r8, #308	; 0x134
 8006ab6:	dd22      	ble.n	8006afe <_strtod_l+0x4d6>
 8006ab8:	2500      	movs	r5, #0
 8006aba:	462e      	mov	r6, r5
 8006abc:	9509      	str	r5, [sp, #36]	; 0x24
 8006abe:	9507      	str	r5, [sp, #28]
 8006ac0:	2322      	movs	r3, #34	; 0x22
 8006ac2:	f8df b110 	ldr.w	fp, [pc, #272]	; 8006bd4 <_strtod_l+0x5ac>
 8006ac6:	6023      	str	r3, [r4, #0]
 8006ac8:	f04f 0a00 	mov.w	sl, #0
 8006acc:	9b09      	ldr	r3, [sp, #36]	; 0x24
 8006ace:	2b00      	cmp	r3, #0
 8006ad0:	f43f adec 	beq.w	80066ac <_strtod_l+0x84>
 8006ad4:	991e      	ldr	r1, [sp, #120]	; 0x78
 8006ad6:	4620      	mov	r0, r4
 8006ad8:	f002 f970 	bl	8008dbc <_Bfree>
 8006adc:	9907      	ldr	r1, [sp, #28]
 8006ade:	4620      	mov	r0, r4
 8006ae0:	f002 f96c 	bl	8008dbc <_Bfree>
 8006ae4:	4631      	mov	r1, r6
 8006ae6:	4620      	mov	r0, r4
 8006ae8:	f002 f968 	bl	8008dbc <_Bfree>
 8006aec:	9909      	ldr	r1, [sp, #36]	; 0x24
 8006aee:	4620      	mov	r0, r4
 8006af0:	f002 f964 	bl	8008dbc <_Bfree>
 8006af4:	4629      	mov	r1, r5
 8006af6:	4620      	mov	r0, r4
 8006af8:	f002 f960 	bl	8008dbc <_Bfree>
 8006afc:	e5d6      	b.n	80066ac <_strtod_l+0x84>
 8006afe:	2300      	movs	r3, #0
 8006b00:	ea4f 1828 	mov.w	r8, r8, asr #4
 8006b04:	4650      	mov	r0, sl
 8006b06:	4659      	mov	r1, fp
 8006b08:	4699      	mov	r9, r3
 8006b0a:	f1b8 0f01 	cmp.w	r8, #1
 8006b0e:	dc21      	bgt.n	8006b54 <_strtod_l+0x52c>
 8006b10:	b10b      	cbz	r3, 8006b16 <_strtod_l+0x4ee>
 8006b12:	4682      	mov	sl, r0
 8006b14:	468b      	mov	fp, r1
 8006b16:	4b2e      	ldr	r3, [pc, #184]	; (8006bd0 <_strtod_l+0x5a8>)
 8006b18:	f1ab 7b54 	sub.w	fp, fp, #55574528	; 0x3500000
 8006b1c:	eb03 09c9 	add.w	r9, r3, r9, lsl #3
 8006b20:	4652      	mov	r2, sl
 8006b22:	465b      	mov	r3, fp
 8006b24:	e9d9 0100 	ldrd	r0, r1, [r9]
 8006b28:	f7f9 fd66 	bl	80005f8 <__aeabi_dmul>
 8006b2c:	4b29      	ldr	r3, [pc, #164]	; (8006bd4 <_strtod_l+0x5ac>)
 8006b2e:	460a      	mov	r2, r1
 8006b30:	400b      	ands	r3, r1
 8006b32:	4929      	ldr	r1, [pc, #164]	; (8006bd8 <_strtod_l+0x5b0>)
 8006b34:	428b      	cmp	r3, r1
 8006b36:	4682      	mov	sl, r0
 8006b38:	d8be      	bhi.n	8006ab8 <_strtod_l+0x490>
 8006b3a:	f5a1 1180 	sub.w	r1, r1, #1048576	; 0x100000
 8006b3e:	428b      	cmp	r3, r1
 8006b40:	bf86      	itte	hi
 8006b42:	f8df b098 	ldrhi.w	fp, [pc, #152]	; 8006bdc <_strtod_l+0x5b4>
 8006b46:	f04f 3aff 	movhi.w	sl, #4294967295
 8006b4a:	f102 7b54 	addls.w	fp, r2, #55574528	; 0x3500000
 8006b4e:	2300      	movs	r3, #0
 8006b50:	9304      	str	r3, [sp, #16]
 8006b52:	e081      	b.n	8006c58 <_strtod_l+0x630>
 8006b54:	f018 0f01 	tst.w	r8, #1
 8006b58:	d007      	beq.n	8006b6a <_strtod_l+0x542>
 8006b5a:	4b1d      	ldr	r3, [pc, #116]	; (8006bd0 <_strtod_l+0x5a8>)
 8006b5c:	eb03 03c9 	add.w	r3, r3, r9, lsl #3
 8006b60:	e9d3 2300 	ldrd	r2, r3, [r3]
 8006b64:	f7f9 fd48 	bl	80005f8 <__aeabi_dmul>
 8006b68:	2301      	movs	r3, #1
 8006b6a:	f109 0901 	add.w	r9, r9, #1
 8006b6e:	ea4f 0868 	mov.w	r8, r8, asr #1
 8006b72:	e7ca      	b.n	8006b0a <_strtod_l+0x4e2>
 8006b74:	d0eb      	beq.n	8006b4e <_strtod_l+0x526>
 8006b76:	f1c8 0800 	rsb	r8, r8, #0
 8006b7a:	f018 020f 	ands.w	r2, r8, #15
 8006b7e:	d00a      	beq.n	8006b96 <_strtod_l+0x56e>
 8006b80:	4b12      	ldr	r3, [pc, #72]	; (8006bcc <_strtod_l+0x5a4>)
 8006b82:	eb03 03c2 	add.w	r3, r3, r2, lsl #3
 8006b86:	4650      	mov	r0, sl
 8006b88:	4659      	mov	r1, fp
 8006b8a:	e9d3 2300 	ldrd	r2, r3, [r3]
 8006b8e:	f7f9 fe5d 	bl	800084c <__aeabi_ddiv>
 8006b92:	4682      	mov	sl, r0
 8006b94:	468b      	mov	fp, r1
 8006b96:	ea5f 1828 	movs.w	r8, r8, asr #4
 8006b9a:	d0d8      	beq.n	8006b4e <_strtod_l+0x526>
 8006b9c:	f1b8 0f1f 	cmp.w	r8, #31
 8006ba0:	dd1e      	ble.n	8006be0 <_strtod_l+0x5b8>
 8006ba2:	2500      	movs	r5, #0
 8006ba4:	462e      	mov	r6, r5
 8006ba6:	9509      	str	r5, [sp, #36]	; 0x24
 8006ba8:	9507      	str	r5, [sp, #28]
 8006baa:	2322      	movs	r3, #34	; 0x22
 8006bac:	f04f 0a00 	mov.w	sl, #0
 8006bb0:	f04f 0b00 	mov.w	fp, #0
 8006bb4:	6023      	str	r3, [r4, #0]
 8006bb6:	e789      	b.n	8006acc <_strtod_l+0x4a4>
 8006bb8:	0800b159 	.word	0x0800b159
 8006bbc:	0800b19c 	.word	0x0800b19c
 8006bc0:	0800b151 	.word	0x0800b151
 8006bc4:	0800b2dc 	.word	0x0800b2dc
 8006bc8:	0800b5f8 	.word	0x0800b5f8
 8006bcc:	0800b4d8 	.word	0x0800b4d8
 8006bd0:	0800b4b0 	.word	0x0800b4b0
 8006bd4:	7ff00000 	.word	0x7ff00000
 8006bd8:	7ca00000 	.word	0x7ca00000
 8006bdc:	7fefffff 	.word	0x7fefffff
 8006be0:	f018 0310 	ands.w	r3, r8, #16
 8006be4:	bf18      	it	ne
 8006be6:	236a      	movne	r3, #106	; 0x6a
 8006be8:	f8df 93b4 	ldr.w	r9, [pc, #948]	; 8006fa0 <_strtod_l+0x978>
 8006bec:	9304      	str	r3, [sp, #16]
 8006bee:	4650      	mov	r0, sl
 8006bf0:	4659      	mov	r1, fp
 8006bf2:	2300      	movs	r3, #0
 8006bf4:	f018 0f01 	tst.w	r8, #1
 8006bf8:	d004      	beq.n	8006c04 <_strtod_l+0x5dc>
 8006bfa:	e9d9 2300 	ldrd	r2, r3, [r9]
 8006bfe:	f7f9 fcfb 	bl	80005f8 <__aeabi_dmul>
 8006c02:	2301      	movs	r3, #1
 8006c04:	ea5f 0868 	movs.w	r8, r8, asr #1
 8006c08:	f109 0908 	add.w	r9, r9, #8
 8006c0c:	d1f2      	bne.n	8006bf4 <_strtod_l+0x5cc>
 8006c0e:	b10b      	cbz	r3, 8006c14 <_strtod_l+0x5ec>
 8006c10:	4682      	mov	sl, r0
 8006c12:	468b      	mov	fp, r1
 8006c14:	9b04      	ldr	r3, [sp, #16]
 8006c16:	b1bb      	cbz	r3, 8006c48 <_strtod_l+0x620>
 8006c18:	f3cb 530a 	ubfx	r3, fp, #20, #11
 8006c1c:	f1c3 036b 	rsb	r3, r3, #107	; 0x6b
 8006c20:	2b00      	cmp	r3, #0
 8006c22:	4659      	mov	r1, fp
 8006c24:	dd10      	ble.n	8006c48 <_strtod_l+0x620>
 8006c26:	2b1f      	cmp	r3, #31
 8006c28:	f340 8128 	ble.w	8006e7c <_strtod_l+0x854>
 8006c2c:	2b34      	cmp	r3, #52	; 0x34
 8006c2e:	bfde      	ittt	le
 8006c30:	3b20      	suble	r3, #32
 8006c32:	f04f 32ff 	movle.w	r2, #4294967295
 8006c36:	fa02 f303 	lslle.w	r3, r2, r3
 8006c3a:	f04f 0a00 	mov.w	sl, #0
 8006c3e:	bfcc      	ite	gt
 8006c40:	f04f 7b5c 	movgt.w	fp, #57671680	; 0x3700000
 8006c44:	ea03 0b01 	andle.w	fp, r3, r1
 8006c48:	2200      	movs	r2, #0
 8006c4a:	2300      	movs	r3, #0
 8006c4c:	4650      	mov	r0, sl
 8006c4e:	4659      	mov	r1, fp
 8006c50:	f7f9 ff3a 	bl	8000ac8 <__aeabi_dcmpeq>
 8006c54:	2800      	cmp	r0, #0
 8006c56:	d1a4      	bne.n	8006ba2 <_strtod_l+0x57a>
 8006c58:	9b09      	ldr	r3, [sp, #36]	; 0x24
 8006c5a:	9300      	str	r3, [sp, #0]
 8006c5c:	990a      	ldr	r1, [sp, #40]	; 0x28
 8006c5e:	462b      	mov	r3, r5
 8006c60:	463a      	mov	r2, r7
 8006c62:	4620      	mov	r0, r4
 8006c64:	f002 f916 	bl	8008e94 <__s2b>
 8006c68:	9009      	str	r0, [sp, #36]	; 0x24
 8006c6a:	2800      	cmp	r0, #0
 8006c6c:	f43f af24 	beq.w	8006ab8 <_strtod_l+0x490>
 8006c70:	9b07      	ldr	r3, [sp, #28]
 8006c72:	1b9e      	subs	r6, r3, r6
 8006c74:	9b08      	ldr	r3, [sp, #32]
 8006c76:	2b00      	cmp	r3, #0
 8006c78:	bfb4      	ite	lt
 8006c7a:	4633      	movlt	r3, r6
 8006c7c:	2300      	movge	r3, #0
 8006c7e:	9310      	str	r3, [sp, #64]	; 0x40
 8006c80:	9b08      	ldr	r3, [sp, #32]
 8006c82:	2500      	movs	r5, #0
 8006c84:	ea23 73e3 	bic.w	r3, r3, r3, asr #31
 8006c88:	9318      	str	r3, [sp, #96]	; 0x60
 8006c8a:	462e      	mov	r6, r5
 8006c8c:	9b09      	ldr	r3, [sp, #36]	; 0x24
 8006c8e:	4620      	mov	r0, r4
 8006c90:	6859      	ldr	r1, [r3, #4]
 8006c92:	f002 f853 	bl	8008d3c <_Balloc>
 8006c96:	9007      	str	r0, [sp, #28]
 8006c98:	2800      	cmp	r0, #0
 8006c9a:	f43f af11 	beq.w	8006ac0 <_strtod_l+0x498>
 8006c9e:	9b09      	ldr	r3, [sp, #36]	; 0x24
 8006ca0:	691a      	ldr	r2, [r3, #16]
 8006ca2:	3202      	adds	r2, #2
 8006ca4:	f103 010c 	add.w	r1, r3, #12
 8006ca8:	0092      	lsls	r2, r2, #2
 8006caa:	300c      	adds	r0, #12
 8006cac:	f002 f838 	bl	8008d20 <memcpy>
 8006cb0:	ec4b ab10 	vmov	d0, sl, fp
 8006cb4:	aa20      	add	r2, sp, #128	; 0x80
 8006cb6:	a91f      	add	r1, sp, #124	; 0x7c
 8006cb8:	4620      	mov	r0, r4
 8006cba:	e9cd ab0a 	strd	sl, fp, [sp, #40]	; 0x28
 8006cbe:	f002 fc25 	bl	800950c <__d2b>
 8006cc2:	901e      	str	r0, [sp, #120]	; 0x78
 8006cc4:	2800      	cmp	r0, #0
 8006cc6:	f43f aefb 	beq.w	8006ac0 <_strtod_l+0x498>
 8006cca:	2101      	movs	r1, #1
 8006ccc:	4620      	mov	r0, r4
 8006cce:	f002 f97b 	bl	8008fc8 <__i2b>
 8006cd2:	4606      	mov	r6, r0
 8006cd4:	2800      	cmp	r0, #0
 8006cd6:	f43f aef3 	beq.w	8006ac0 <_strtod_l+0x498>
 8006cda:	9b1f      	ldr	r3, [sp, #124]	; 0x7c
 8006cdc:	9904      	ldr	r1, [sp, #16]
 8006cde:	2b00      	cmp	r3, #0
 8006ce0:	bfab      	itete	ge
 8006ce2:	9a10      	ldrge	r2, [sp, #64]	; 0x40
 8006ce4:	9a18      	ldrlt	r2, [sp, #96]	; 0x60
 8006ce6:	9f18      	ldrge	r7, [sp, #96]	; 0x60
 8006ce8:	f8dd 9040 	ldrlt.w	r9, [sp, #64]	; 0x40
 8006cec:	bfac      	ite	ge
 8006cee:	eb03 0902 	addge.w	r9, r3, r2
 8006cf2:	1ad7      	sublt	r7, r2, r3
 8006cf4:	9a20      	ldr	r2, [sp, #128]	; 0x80
 8006cf6:	eba3 0801 	sub.w	r8, r3, r1
 8006cfa:	4490      	add	r8, r2
 8006cfc:	4ba3      	ldr	r3, [pc, #652]	; (8006f8c <_strtod_l+0x964>)
 8006cfe:	f108 38ff 	add.w	r8, r8, #4294967295
 8006d02:	4598      	cmp	r8, r3
 8006d04:	f1c2 0236 	rsb	r2, r2, #54	; 0x36
 8006d08:	f280 80cc 	bge.w	8006ea4 <_strtod_l+0x87c>
 8006d0c:	eba3 0308 	sub.w	r3, r3, r8
 8006d10:	2b1f      	cmp	r3, #31
 8006d12:	eba2 0203 	sub.w	r2, r2, r3
 8006d16:	f04f 0101 	mov.w	r1, #1
 8006d1a:	f300 80b6 	bgt.w	8006e8a <_strtod_l+0x862>
 8006d1e:	fa01 f303 	lsl.w	r3, r1, r3
 8006d22:	9311      	str	r3, [sp, #68]	; 0x44
 8006d24:	2300      	movs	r3, #0
 8006d26:	930c      	str	r3, [sp, #48]	; 0x30
 8006d28:	eb09 0802 	add.w	r8, r9, r2
 8006d2c:	9b04      	ldr	r3, [sp, #16]
 8006d2e:	45c1      	cmp	r9, r8
 8006d30:	4417      	add	r7, r2
 8006d32:	441f      	add	r7, r3
 8006d34:	464b      	mov	r3, r9
 8006d36:	bfa8      	it	ge
 8006d38:	4643      	movge	r3, r8
 8006d3a:	42bb      	cmp	r3, r7
 8006d3c:	bfa8      	it	ge
 8006d3e:	463b      	movge	r3, r7
 8006d40:	2b00      	cmp	r3, #0
 8006d42:	bfc2      	ittt	gt
 8006d44:	eba8 0803 	subgt.w	r8, r8, r3
 8006d48:	1aff      	subgt	r7, r7, r3
 8006d4a:	eba9 0903 	subgt.w	r9, r9, r3
 8006d4e:	9b10      	ldr	r3, [sp, #64]	; 0x40
 8006d50:	2b00      	cmp	r3, #0
 8006d52:	dd17      	ble.n	8006d84 <_strtod_l+0x75c>
 8006d54:	4631      	mov	r1, r6
 8006d56:	461a      	mov	r2, r3
 8006d58:	4620      	mov	r0, r4
 8006d5a:	f002 f9f1 	bl	8009140 <__pow5mult>
 8006d5e:	4606      	mov	r6, r0
 8006d60:	2800      	cmp	r0, #0
 8006d62:	f43f aead 	beq.w	8006ac0 <_strtod_l+0x498>
 8006d66:	4601      	mov	r1, r0
 8006d68:	9a1e      	ldr	r2, [sp, #120]	; 0x78
 8006d6a:	4620      	mov	r0, r4
 8006d6c:	f002 f942 	bl	8008ff4 <__multiply>
 8006d70:	900f      	str	r0, [sp, #60]	; 0x3c
 8006d72:	2800      	cmp	r0, #0
 8006d74:	f43f aea4 	beq.w	8006ac0 <_strtod_l+0x498>
 8006d78:	991e      	ldr	r1, [sp, #120]	; 0x78
 8006d7a:	4620      	mov	r0, r4
 8006d7c:	f002 f81e 	bl	8008dbc <_Bfree>
 8006d80:	9b0f      	ldr	r3, [sp, #60]	; 0x3c
 8006d82:	931e      	str	r3, [sp, #120]	; 0x78
 8006d84:	f1b8 0f00 	cmp.w	r8, #0
 8006d88:	f300 8091 	bgt.w	8006eae <_strtod_l+0x886>
 8006d8c:	9b08      	ldr	r3, [sp, #32]
 8006d8e:	2b00      	cmp	r3, #0
 8006d90:	dd08      	ble.n	8006da4 <_strtod_l+0x77c>
 8006d92:	9a18      	ldr	r2, [sp, #96]	; 0x60
 8006d94:	9907      	ldr	r1, [sp, #28]
 8006d96:	4620      	mov	r0, r4
 8006d98:	f002 f9d2 	bl	8009140 <__pow5mult>
 8006d9c:	9007      	str	r0, [sp, #28]
 8006d9e:	2800      	cmp	r0, #0
 8006da0:	f43f ae8e 	beq.w	8006ac0 <_strtod_l+0x498>
 8006da4:	2f00      	cmp	r7, #0
 8006da6:	dd08      	ble.n	8006dba <_strtod_l+0x792>
 8006da8:	9907      	ldr	r1, [sp, #28]
 8006daa:	463a      	mov	r2, r7
 8006dac:	4620      	mov	r0, r4
 8006dae:	f002 fa21 	bl	80091f4 <__lshift>
 8006db2:	9007      	str	r0, [sp, #28]
 8006db4:	2800      	cmp	r0, #0
 8006db6:	f43f ae83 	beq.w	8006ac0 <_strtod_l+0x498>
 8006dba:	f1b9 0f00 	cmp.w	r9, #0
 8006dbe:	dd08      	ble.n	8006dd2 <_strtod_l+0x7aa>
 8006dc0:	4631      	mov	r1, r6
 8006dc2:	464a      	mov	r2, r9
 8006dc4:	4620      	mov	r0, r4
 8006dc6:	f002 fa15 	bl	80091f4 <__lshift>
 8006dca:	4606      	mov	r6, r0
 8006dcc:	2800      	cmp	r0, #0
 8006dce:	f43f ae77 	beq.w	8006ac0 <_strtod_l+0x498>
 8006dd2:	9a07      	ldr	r2, [sp, #28]
 8006dd4:	991e      	ldr	r1, [sp, #120]	; 0x78
 8006dd6:	4620      	mov	r0, r4
 8006dd8:	f002 fa94 	bl	8009304 <__mdiff>
 8006ddc:	4605      	mov	r5, r0
 8006dde:	2800      	cmp	r0, #0
 8006de0:	f43f ae6e 	beq.w	8006ac0 <_strtod_l+0x498>
 8006de4:	68c3      	ldr	r3, [r0, #12]
 8006de6:	930f      	str	r3, [sp, #60]	; 0x3c
 8006de8:	2300      	movs	r3, #0
 8006dea:	60c3      	str	r3, [r0, #12]
 8006dec:	4631      	mov	r1, r6
 8006dee:	f002 fa6d 	bl	80092cc <__mcmp>
 8006df2:	2800      	cmp	r0, #0
 8006df4:	da65      	bge.n	8006ec2 <_strtod_l+0x89a>
 8006df6:	9b0f      	ldr	r3, [sp, #60]	; 0x3c
 8006df8:	ea53 030a 	orrs.w	r3, r3, sl
 8006dfc:	f040 8087 	bne.w	8006f0e <_strtod_l+0x8e6>
 8006e00:	f3cb 0313 	ubfx	r3, fp, #0, #20
 8006e04:	2b00      	cmp	r3, #0
 8006e06:	f040 8082 	bne.w	8006f0e <_strtod_l+0x8e6>
 8006e0a:	f02b 4300 	bic.w	r3, fp, #2147483648	; 0x80000000
 8006e0e:	0d1b      	lsrs	r3, r3, #20
 8006e10:	051b      	lsls	r3, r3, #20
 8006e12:	f1b3 6fd6 	cmp.w	r3, #112197632	; 0x6b00000
 8006e16:	d97a      	bls.n	8006f0e <_strtod_l+0x8e6>
 8006e18:	696b      	ldr	r3, [r5, #20]
 8006e1a:	b913      	cbnz	r3, 8006e22 <_strtod_l+0x7fa>
 8006e1c:	692b      	ldr	r3, [r5, #16]
 8006e1e:	2b01      	cmp	r3, #1
 8006e20:	dd75      	ble.n	8006f0e <_strtod_l+0x8e6>
 8006e22:	4629      	mov	r1, r5
 8006e24:	2201      	movs	r2, #1
 8006e26:	4620      	mov	r0, r4
 8006e28:	f002 f9e4 	bl	80091f4 <__lshift>
 8006e2c:	4631      	mov	r1, r6
 8006e2e:	4605      	mov	r5, r0
 8006e30:	f002 fa4c 	bl	80092cc <__mcmp>
 8006e34:	2800      	cmp	r0, #0
 8006e36:	dd6a      	ble.n	8006f0e <_strtod_l+0x8e6>
 8006e38:	9904      	ldr	r1, [sp, #16]
 8006e3a:	4a55      	ldr	r2, [pc, #340]	; (8006f90 <_strtod_l+0x968>)
 8006e3c:	465b      	mov	r3, fp
 8006e3e:	2900      	cmp	r1, #0
 8006e40:	f000 8085 	beq.w	8006f4e <_strtod_l+0x926>
 8006e44:	ea02 010b 	and.w	r1, r2, fp
 8006e48:	f1b1 6fd6 	cmp.w	r1, #112197632	; 0x6b00000
 8006e4c:	dc7f      	bgt.n	8006f4e <_strtod_l+0x926>
 8006e4e:	f1b1 7f5c 	cmp.w	r1, #57671680	; 0x3700000
 8006e52:	f77f aeaa 	ble.w	8006baa <_strtod_l+0x582>
 8006e56:	4a4f      	ldr	r2, [pc, #316]	; (8006f94 <_strtod_l+0x96c>)
 8006e58:	2300      	movs	r3, #0
 8006e5a:	e9cd 3216 	strd	r3, r2, [sp, #88]	; 0x58
 8006e5e:	4650      	mov	r0, sl
 8006e60:	e9dd 2316 	ldrd	r2, r3, [sp, #88]	; 0x58
 8006e64:	4659      	mov	r1, fp
 8006e66:	f7f9 fbc7 	bl	80005f8 <__aeabi_dmul>
 8006e6a:	460b      	mov	r3, r1
 8006e6c:	4303      	orrs	r3, r0
 8006e6e:	bf08      	it	eq
 8006e70:	2322      	moveq	r3, #34	; 0x22
 8006e72:	4682      	mov	sl, r0
 8006e74:	468b      	mov	fp, r1
 8006e76:	bf08      	it	eq
 8006e78:	6023      	streq	r3, [r4, #0]
 8006e7a:	e62b      	b.n	8006ad4 <_strtod_l+0x4ac>
 8006e7c:	f04f 32ff 	mov.w	r2, #4294967295
 8006e80:	fa02 f303 	lsl.w	r3, r2, r3
 8006e84:	ea03 0a0a 	and.w	sl, r3, sl
 8006e88:	e6de      	b.n	8006c48 <_strtod_l+0x620>
 8006e8a:	f1c8 487f 	rsb	r8, r8, #4278190080	; 0xff000000
 8006e8e:	f508 087f 	add.w	r8, r8, #16711680	; 0xff0000
 8006e92:	f508 487b 	add.w	r8, r8, #64256	; 0xfb00
 8006e96:	f108 08e2 	add.w	r8, r8, #226	; 0xe2
 8006e9a:	fa01 f308 	lsl.w	r3, r1, r8
 8006e9e:	930c      	str	r3, [sp, #48]	; 0x30
 8006ea0:	9111      	str	r1, [sp, #68]	; 0x44
 8006ea2:	e741      	b.n	8006d28 <_strtod_l+0x700>
 8006ea4:	2300      	movs	r3, #0
 8006ea6:	930c      	str	r3, [sp, #48]	; 0x30
 8006ea8:	2301      	movs	r3, #1
 8006eaa:	9311      	str	r3, [sp, #68]	; 0x44
 8006eac:	e73c      	b.n	8006d28 <_strtod_l+0x700>
 8006eae:	991e      	ldr	r1, [sp, #120]	; 0x78
 8006eb0:	4642      	mov	r2, r8
 8006eb2:	4620      	mov	r0, r4
 8006eb4:	f002 f99e 	bl	80091f4 <__lshift>
 8006eb8:	901e      	str	r0, [sp, #120]	; 0x78
 8006eba:	2800      	cmp	r0, #0
 8006ebc:	f47f af66 	bne.w	8006d8c <_strtod_l+0x764>
 8006ec0:	e5fe      	b.n	8006ac0 <_strtod_l+0x498>
 8006ec2:	465f      	mov	r7, fp
 8006ec4:	d16e      	bne.n	8006fa4 <_strtod_l+0x97c>
 8006ec6:	9a0f      	ldr	r2, [sp, #60]	; 0x3c
 8006ec8:	f3cb 0313 	ubfx	r3, fp, #0, #20
 8006ecc:	b342      	cbz	r2, 8006f20 <_strtod_l+0x8f8>
 8006ece:	4a32      	ldr	r2, [pc, #200]	; (8006f98 <_strtod_l+0x970>)
 8006ed0:	4293      	cmp	r3, r2
 8006ed2:	d128      	bne.n	8006f26 <_strtod_l+0x8fe>
 8006ed4:	9b04      	ldr	r3, [sp, #16]
 8006ed6:	4650      	mov	r0, sl
 8006ed8:	b1eb      	cbz	r3, 8006f16 <_strtod_l+0x8ee>
 8006eda:	4a2d      	ldr	r2, [pc, #180]	; (8006f90 <_strtod_l+0x968>)
 8006edc:	403a      	ands	r2, r7
 8006ede:	f1b2 6fd4 	cmp.w	r2, #111149056	; 0x6a00000
 8006ee2:	f04f 31ff 	mov.w	r1, #4294967295
 8006ee6:	d819      	bhi.n	8006f1c <_strtod_l+0x8f4>
 8006ee8:	0d12      	lsrs	r2, r2, #20
 8006eea:	f1c2 036b 	rsb	r3, r2, #107	; 0x6b
 8006eee:	fa01 f303 	lsl.w	r3, r1, r3
 8006ef2:	4298      	cmp	r0, r3
 8006ef4:	d117      	bne.n	8006f26 <_strtod_l+0x8fe>
 8006ef6:	4b29      	ldr	r3, [pc, #164]	; (8006f9c <_strtod_l+0x974>)
 8006ef8:	429f      	cmp	r7, r3
 8006efa:	d102      	bne.n	8006f02 <_strtod_l+0x8da>
 8006efc:	3001      	adds	r0, #1
 8006efe:	f43f addf 	beq.w	8006ac0 <_strtod_l+0x498>
 8006f02:	4b23      	ldr	r3, [pc, #140]	; (8006f90 <_strtod_l+0x968>)
 8006f04:	403b      	ands	r3, r7
 8006f06:	f503 1b80 	add.w	fp, r3, #1048576	; 0x100000
 8006f0a:	f04f 0a00 	mov.w	sl, #0
 8006f0e:	9b04      	ldr	r3, [sp, #16]
 8006f10:	2b00      	cmp	r3, #0
 8006f12:	d1a0      	bne.n	8006e56 <_strtod_l+0x82e>
 8006f14:	e5de      	b.n	8006ad4 <_strtod_l+0x4ac>
 8006f16:	f04f 33ff 	mov.w	r3, #4294967295
 8006f1a:	e7ea      	b.n	8006ef2 <_strtod_l+0x8ca>
 8006f1c:	460b      	mov	r3, r1
 8006f1e:	e7e8      	b.n	8006ef2 <_strtod_l+0x8ca>
 8006f20:	ea53 030a 	orrs.w	r3, r3, sl
 8006f24:	d088      	beq.n	8006e38 <_strtod_l+0x810>
 8006f26:	9b0c      	ldr	r3, [sp, #48]	; 0x30
 8006f28:	b1db      	cbz	r3, 8006f62 <_strtod_l+0x93a>
 8006f2a:	423b      	tst	r3, r7
 8006f2c:	d0ef      	beq.n	8006f0e <_strtod_l+0x8e6>
 8006f2e:	9b0f      	ldr	r3, [sp, #60]	; 0x3c
 8006f30:	9a04      	ldr	r2, [sp, #16]
 8006f32:	4650      	mov	r0, sl
 8006f34:	4659      	mov	r1, fp
 8006f36:	b1c3      	cbz	r3, 8006f6a <_strtod_l+0x942>
 8006f38:	f7ff fb5a 	bl	80065f0 <sulp>
 8006f3c:	4602      	mov	r2, r0
 8006f3e:	460b      	mov	r3, r1
 8006f40:	e9dd 010a 	ldrd	r0, r1, [sp, #40]	; 0x28
 8006f44:	f7f9 f9a2 	bl	800028c <__adddf3>
 8006f48:	4682      	mov	sl, r0
 8006f4a:	468b      	mov	fp, r1
 8006f4c:	e7df      	b.n	8006f0e <_strtod_l+0x8e6>
 8006f4e:	4013      	ands	r3, r2
 8006f50:	f5a3 1380 	sub.w	r3, r3, #1048576	; 0x100000
 8006f54:	ea6f 5b13 	mvn.w	fp, r3, lsr #20
 8006f58:	ea6f 5b0b 	mvn.w	fp, fp, lsl #20
 8006f5c:	f04f 3aff 	mov.w	sl, #4294967295
 8006f60:	e7d5      	b.n	8006f0e <_strtod_l+0x8e6>
 8006f62:	9b11      	ldr	r3, [sp, #68]	; 0x44
 8006f64:	ea13 0f0a 	tst.w	r3, sl
 8006f68:	e7e0      	b.n	8006f2c <_strtod_l+0x904>
 8006f6a:	f7ff fb41 	bl	80065f0 <sulp>
 8006f6e:	4602      	mov	r2, r0
 8006f70:	460b      	mov	r3, r1
 8006f72:	e9dd 010a 	ldrd	r0, r1, [sp, #40]	; 0x28
 8006f76:	f7f9 f987 	bl	8000288 <__aeabi_dsub>
 8006f7a:	2200      	movs	r2, #0
 8006f7c:	2300      	movs	r3, #0
 8006f7e:	4682      	mov	sl, r0
 8006f80:	468b      	mov	fp, r1
 8006f82:	f7f9 fda1 	bl	8000ac8 <__aeabi_dcmpeq>
 8006f86:	2800      	cmp	r0, #0
 8006f88:	d0c1      	beq.n	8006f0e <_strtod_l+0x8e6>
 8006f8a:	e60e      	b.n	8006baa <_strtod_l+0x582>
 8006f8c:	fffffc02 	.word	0xfffffc02
 8006f90:	7ff00000 	.word	0x7ff00000
 8006f94:	39500000 	.word	0x39500000
 8006f98:	000fffff 	.word	0x000fffff
 8006f9c:	7fefffff 	.word	0x7fefffff
 8006fa0:	0800b1b0 	.word	0x0800b1b0
 8006fa4:	4631      	mov	r1, r6
 8006fa6:	4628      	mov	r0, r5
 8006fa8:	f002 fb0c 	bl	80095c4 <__ratio>
 8006fac:	ec59 8b10 	vmov	r8, r9, d0
 8006fb0:	ee10 0a10 	vmov	r0, s0
 8006fb4:	2200      	movs	r2, #0
 8006fb6:	f04f 4380 	mov.w	r3, #1073741824	; 0x40000000
 8006fba:	4649      	mov	r1, r9
 8006fbc:	f7f9 fd98 	bl	8000af0 <__aeabi_dcmple>
 8006fc0:	2800      	cmp	r0, #0
 8006fc2:	d07c      	beq.n	80070be <_strtod_l+0xa96>
 8006fc4:	9b0f      	ldr	r3, [sp, #60]	; 0x3c
 8006fc6:	2b00      	cmp	r3, #0
 8006fc8:	d04c      	beq.n	8007064 <_strtod_l+0xa3c>
 8006fca:	4b95      	ldr	r3, [pc, #596]	; (8007220 <_strtod_l+0xbf8>)
 8006fcc:	2200      	movs	r2, #0
 8006fce:	e9cd 230c 	strd	r2, r3, [sp, #48]	; 0x30
 8006fd2:	f8df 924c 	ldr.w	r9, [pc, #588]	; 8007220 <_strtod_l+0xbf8>
 8006fd6:	f04f 0800 	mov.w	r8, #0
 8006fda:	4b92      	ldr	r3, [pc, #584]	; (8007224 <_strtod_l+0xbfc>)
 8006fdc:	403b      	ands	r3, r7
 8006fde:	9311      	str	r3, [sp, #68]	; 0x44
 8006fe0:	9a11      	ldr	r2, [sp, #68]	; 0x44
 8006fe2:	4b91      	ldr	r3, [pc, #580]	; (8007228 <_strtod_l+0xc00>)
 8006fe4:	429a      	cmp	r2, r3
 8006fe6:	f040 80b2 	bne.w	800714e <_strtod_l+0xb26>
 8006fea:	e9dd 230a 	ldrd	r2, r3, [sp, #40]	; 0x28
 8006fee:	e9dd 010c 	ldrd	r0, r1, [sp, #48]	; 0x30
 8006ff2:	f1a7 7b54 	sub.w	fp, r7, #55574528	; 0x3500000
 8006ff6:	ec4b ab10 	vmov	d0, sl, fp
 8006ffa:	e9cd 2316 	strd	r2, r3, [sp, #88]	; 0x58
 8006ffe:	e9cd 010c 	strd	r0, r1, [sp, #48]	; 0x30
 8007002:	f002 fa07 	bl	8009414 <__ulp>
 8007006:	e9dd 010c 	ldrd	r0, r1, [sp, #48]	; 0x30
 800700a:	ec53 2b10 	vmov	r2, r3, d0
 800700e:	f7f9 faf3 	bl	80005f8 <__aeabi_dmul>
 8007012:	4652      	mov	r2, sl
 8007014:	465b      	mov	r3, fp
 8007016:	f7f9 f939 	bl	800028c <__adddf3>
 800701a:	460b      	mov	r3, r1
 800701c:	4981      	ldr	r1, [pc, #516]	; (8007224 <_strtod_l+0xbfc>)
 800701e:	4a83      	ldr	r2, [pc, #524]	; (800722c <_strtod_l+0xc04>)
 8007020:	4019      	ands	r1, r3
 8007022:	4291      	cmp	r1, r2
 8007024:	4682      	mov	sl, r0
 8007026:	d95e      	bls.n	80070e6 <_strtod_l+0xabe>
 8007028:	9b0b      	ldr	r3, [sp, #44]	; 0x2c
 800702a:	f102 7254 	add.w	r2, r2, #55574528	; 0x3500000
 800702e:	4293      	cmp	r3, r2
 8007030:	d103      	bne.n	800703a <_strtod_l+0xa12>
 8007032:	9b0a      	ldr	r3, [sp, #40]	; 0x28
 8007034:	3301      	adds	r3, #1
 8007036:	f43f ad43 	beq.w	8006ac0 <_strtod_l+0x498>
 800703a:	f8df b1fc 	ldr.w	fp, [pc, #508]	; 8007238 <_strtod_l+0xc10>
 800703e:	f04f 3aff 	mov.w	sl, #4294967295
 8007042:	991e      	ldr	r1, [sp, #120]	; 0x78
 8007044:	4620      	mov	r0, r4
 8007046:	f001 feb9 	bl	8008dbc <_Bfree>
 800704a:	9907      	ldr	r1, [sp, #28]
 800704c:	4620      	mov	r0, r4
 800704e:	f001 feb5 	bl	8008dbc <_Bfree>
 8007052:	4631      	mov	r1, r6
 8007054:	4620      	mov	r0, r4
 8007056:	f001 feb1 	bl	8008dbc <_Bfree>
 800705a:	4629      	mov	r1, r5
 800705c:	4620      	mov	r0, r4
 800705e:	f001 fead 	bl	8008dbc <_Bfree>
 8007062:	e613      	b.n	8006c8c <_strtod_l+0x664>
 8007064:	f1ba 0f00 	cmp.w	sl, #0
 8007068:	d11b      	bne.n	80070a2 <_strtod_l+0xa7a>
 800706a:	f3cb 0313 	ubfx	r3, fp, #0, #20
 800706e:	b9f3      	cbnz	r3, 80070ae <_strtod_l+0xa86>
 8007070:	4b6b      	ldr	r3, [pc, #428]	; (8007220 <_strtod_l+0xbf8>)
 8007072:	2200      	movs	r2, #0
 8007074:	4640      	mov	r0, r8
 8007076:	4649      	mov	r1, r9
 8007078:	f7f9 fd30 	bl	8000adc <__aeabi_dcmplt>
 800707c:	b9d0      	cbnz	r0, 80070b4 <_strtod_l+0xa8c>
 800707e:	4640      	mov	r0, r8
 8007080:	4649      	mov	r1, r9
 8007082:	4b6b      	ldr	r3, [pc, #428]	; (8007230 <_strtod_l+0xc08>)
 8007084:	2200      	movs	r2, #0
 8007086:	f7f9 fab7 	bl	80005f8 <__aeabi_dmul>
 800708a:	4680      	mov	r8, r0
 800708c:	4689      	mov	r9, r1
 800708e:	f109 4300 	add.w	r3, r9, #2147483648	; 0x80000000
 8007092:	f8cd 8068 	str.w	r8, [sp, #104]	; 0x68
 8007096:	931b      	str	r3, [sp, #108]	; 0x6c
 8007098:	e9dd 231a 	ldrd	r2, r3, [sp, #104]	; 0x68
 800709c:	e9cd 230c 	strd	r2, r3, [sp, #48]	; 0x30
 80070a0:	e79b      	b.n	8006fda <_strtod_l+0x9b2>
 80070a2:	f1ba 0f01 	cmp.w	sl, #1
 80070a6:	d102      	bne.n	80070ae <_strtod_l+0xa86>
 80070a8:	2f00      	cmp	r7, #0
 80070aa:	f43f ad7e 	beq.w	8006baa <_strtod_l+0x582>
 80070ae:	4b61      	ldr	r3, [pc, #388]	; (8007234 <_strtod_l+0xc0c>)
 80070b0:	2200      	movs	r2, #0
 80070b2:	e78c      	b.n	8006fce <_strtod_l+0x9a6>
 80070b4:	f8df 9178 	ldr.w	r9, [pc, #376]	; 8007230 <_strtod_l+0xc08>
 80070b8:	f04f 0800 	mov.w	r8, #0
 80070bc:	e7e7      	b.n	800708e <_strtod_l+0xa66>
 80070be:	4b5c      	ldr	r3, [pc, #368]	; (8007230 <_strtod_l+0xc08>)
 80070c0:	4640      	mov	r0, r8
 80070c2:	4649      	mov	r1, r9
 80070c4:	2200      	movs	r2, #0
 80070c6:	f7f9 fa97 	bl	80005f8 <__aeabi_dmul>
 80070ca:	9b0f      	ldr	r3, [sp, #60]	; 0x3c
 80070cc:	4680      	mov	r8, r0
 80070ce:	4689      	mov	r9, r1
 80070d0:	b933      	cbnz	r3, 80070e0 <_strtod_l+0xab8>
 80070d2:	f101 4300 	add.w	r3, r1, #2147483648	; 0x80000000
 80070d6:	9012      	str	r0, [sp, #72]	; 0x48
 80070d8:	9313      	str	r3, [sp, #76]	; 0x4c
 80070da:	e9dd 2312 	ldrd	r2, r3, [sp, #72]	; 0x48
 80070de:	e7dd      	b.n	800709c <_strtod_l+0xa74>
 80070e0:	e9cd 8912 	strd	r8, r9, [sp, #72]	; 0x48
 80070e4:	e7f9      	b.n	80070da <_strtod_l+0xab2>
 80070e6:	f103 7b54 	add.w	fp, r3, #55574528	; 0x3500000
 80070ea:	9b04      	ldr	r3, [sp, #16]
 80070ec:	2b00      	cmp	r3, #0
 80070ee:	d1a8      	bne.n	8007042 <_strtod_l+0xa1a>
 80070f0:	f02b 4300 	bic.w	r3, fp, #2147483648	; 0x80000000
 80070f4:	9a11      	ldr	r2, [sp, #68]	; 0x44
 80070f6:	0d1b      	lsrs	r3, r3, #20
 80070f8:	051b      	lsls	r3, r3, #20
 80070fa:	429a      	cmp	r2, r3
 80070fc:	d1a1      	bne.n	8007042 <_strtod_l+0xa1a>
 80070fe:	4640      	mov	r0, r8
 8007100:	4649      	mov	r1, r9
 8007102:	f7f9 fdc1 	bl	8000c88 <__aeabi_d2lz>
 8007106:	f7f9 fa49 	bl	800059c <__aeabi_l2d>
 800710a:	4602      	mov	r2, r0
 800710c:	460b      	mov	r3, r1
 800710e:	4640      	mov	r0, r8
 8007110:	4649      	mov	r1, r9
 8007112:	f7f9 f8b9 	bl	8000288 <__aeabi_dsub>
 8007116:	9a0f      	ldr	r2, [sp, #60]	; 0x3c
 8007118:	f3cb 0313 	ubfx	r3, fp, #0, #20
 800711c:	ea43 030a 	orr.w	r3, r3, sl
 8007120:	4313      	orrs	r3, r2
 8007122:	4680      	mov	r8, r0
 8007124:	4689      	mov	r9, r1
 8007126:	d053      	beq.n	80071d0 <_strtod_l+0xba8>
 8007128:	a335      	add	r3, pc, #212	; (adr r3, 8007200 <_strtod_l+0xbd8>)
 800712a:	e9d3 2300 	ldrd	r2, r3, [r3]
 800712e:	f7f9 fcd5 	bl	8000adc <__aeabi_dcmplt>
 8007132:	2800      	cmp	r0, #0
 8007134:	f47f acce 	bne.w	8006ad4 <_strtod_l+0x4ac>
 8007138:	a333      	add	r3, pc, #204	; (adr r3, 8007208 <_strtod_l+0xbe0>)
 800713a:	e9d3 2300 	ldrd	r2, r3, [r3]
 800713e:	4640      	mov	r0, r8
 8007140:	4649      	mov	r1, r9
 8007142:	f7f9 fce9 	bl	8000b18 <__aeabi_dcmpgt>
 8007146:	2800      	cmp	r0, #0
 8007148:	f43f af7b 	beq.w	8007042 <_strtod_l+0xa1a>
 800714c:	e4c2      	b.n	8006ad4 <_strtod_l+0x4ac>
 800714e:	9b04      	ldr	r3, [sp, #16]
 8007150:	b333      	cbz	r3, 80071a0 <_strtod_l+0xb78>
 8007152:	9b11      	ldr	r3, [sp, #68]	; 0x44
 8007154:	f1b3 6fd4 	cmp.w	r3, #111149056	; 0x6a00000
 8007158:	d822      	bhi.n	80071a0 <_strtod_l+0xb78>
 800715a:	a32d      	add	r3, pc, #180	; (adr r3, 8007210 <_strtod_l+0xbe8>)
 800715c:	e9d3 2300 	ldrd	r2, r3, [r3]
 8007160:	4640      	mov	r0, r8
 8007162:	4649      	mov	r1, r9
 8007164:	f7f9 fcc4 	bl	8000af0 <__aeabi_dcmple>
 8007168:	b1a0      	cbz	r0, 8007194 <_strtod_l+0xb6c>
 800716a:	4649      	mov	r1, r9
 800716c:	4640      	mov	r0, r8
 800716e:	f7f9 fd1b 	bl	8000ba8 <__aeabi_d2uiz>
 8007172:	2801      	cmp	r0, #1
 8007174:	bf38      	it	cc
 8007176:	2001      	movcc	r0, #1
 8007178:	f7f9 f9c4 	bl	8000504 <__aeabi_ui2d>
 800717c:	9b0f      	ldr	r3, [sp, #60]	; 0x3c
 800717e:	4680      	mov	r8, r0
 8007180:	4689      	mov	r9, r1
 8007182:	bb13      	cbnz	r3, 80071ca <_strtod_l+0xba2>
 8007184:	f101 4300 	add.w	r3, r1, #2147483648	; 0x80000000
 8007188:	9014      	str	r0, [sp, #80]	; 0x50
 800718a:	9315      	str	r3, [sp, #84]	; 0x54
 800718c:	e9dd 2314 	ldrd	r2, r3, [sp, #80]	; 0x50
 8007190:	e9cd 230c 	strd	r2, r3, [sp, #48]	; 0x30
 8007194:	9b0d      	ldr	r3, [sp, #52]	; 0x34
 8007196:	9a11      	ldr	r2, [sp, #68]	; 0x44
 8007198:	f103 63d6 	add.w	r3, r3, #112197632	; 0x6b00000
 800719c:	1a9b      	subs	r3, r3, r2
 800719e:	930d      	str	r3, [sp, #52]	; 0x34
 80071a0:	e9dd 010c 	ldrd	r0, r1, [sp, #48]	; 0x30
 80071a4:	ed9d 0b0a 	vldr	d0, [sp, #40]	; 0x28
 80071a8:	e9cd 010c 	strd	r0, r1, [sp, #48]	; 0x30
 80071ac:	f002 f932 	bl	8009414 <__ulp>
 80071b0:	e9dd 010c 	ldrd	r0, r1, [sp, #48]	; 0x30
 80071b4:	ec53 2b10 	vmov	r2, r3, d0
 80071b8:	f7f9 fa1e 	bl	80005f8 <__aeabi_dmul>
 80071bc:	e9dd 230a 	ldrd	r2, r3, [sp, #40]	; 0x28
 80071c0:	f7f9 f864 	bl	800028c <__adddf3>
 80071c4:	4682      	mov	sl, r0
 80071c6:	468b      	mov	fp, r1
 80071c8:	e78f      	b.n	80070ea <_strtod_l+0xac2>
 80071ca:	e9cd 8914 	strd	r8, r9, [sp, #80]	; 0x50
 80071ce:	e7dd      	b.n	800718c <_strtod_l+0xb64>
 80071d0:	a311      	add	r3, pc, #68	; (adr r3, 8007218 <_strtod_l+0xbf0>)
 80071d2:	e9d3 2300 	ldrd	r2, r3, [r3]
 80071d6:	f7f9 fc81 	bl	8000adc <__aeabi_dcmplt>
 80071da:	e7b4      	b.n	8007146 <_strtod_l+0xb1e>
 80071dc:	2300      	movs	r3, #0
 80071de:	930e      	str	r3, [sp, #56]	; 0x38
 80071e0:	9a19      	ldr	r2, [sp, #100]	; 0x64
 80071e2:	9b1d      	ldr	r3, [sp, #116]	; 0x74
 80071e4:	6013      	str	r3, [r2, #0]
 80071e6:	f7ff ba65 	b.w	80066b4 <_strtod_l+0x8c>
 80071ea:	2b65      	cmp	r3, #101	; 0x65
 80071ec:	f43f ab5d 	beq.w	80068aa <_strtod_l+0x282>
 80071f0:	2b45      	cmp	r3, #69	; 0x45
 80071f2:	f43f ab5a 	beq.w	80068aa <_strtod_l+0x282>
 80071f6:	2201      	movs	r2, #1
 80071f8:	f7ff bb92 	b.w	8006920 <_strtod_l+0x2f8>
 80071fc:	f3af 8000 	nop.w
 8007200:	94a03595 	.word	0x94a03595
 8007204:	3fdfffff 	.word	0x3fdfffff
 8007208:	35afe535 	.word	0x35afe535
 800720c:	3fe00000 	.word	0x3fe00000
 8007210:	ffc00000 	.word	0xffc00000
 8007214:	41dfffff 	.word	0x41dfffff
 8007218:	94a03595 	.word	0x94a03595
 800721c:	3fcfffff 	.word	0x3fcfffff
 8007220:	3ff00000 	.word	0x3ff00000
 8007224:	7ff00000 	.word	0x7ff00000
 8007228:	7fe00000 	.word	0x7fe00000
 800722c:	7c9fffff 	.word	0x7c9fffff
 8007230:	3fe00000 	.word	0x3fe00000
 8007234:	bff00000 	.word	0xbff00000
 8007238:	7fefffff 	.word	0x7fefffff

0800723c <_strtod_r>:
 800723c:	4b01      	ldr	r3, [pc, #4]	; (8007244 <_strtod_r+0x8>)
 800723e:	f7ff b9f3 	b.w	8006628 <_strtod_l>
 8007242:	bf00      	nop
 8007244:	2000007c 	.word	0x2000007c

08007248 <_strtol_l.isra.0>:
 8007248:	2b01      	cmp	r3, #1
 800724a:	e92d 47f0 	stmdb	sp!, {r4, r5, r6, r7, r8, r9, sl, lr}
 800724e:	d001      	beq.n	8007254 <_strtol_l.isra.0+0xc>
 8007250:	2b24      	cmp	r3, #36	; 0x24
 8007252:	d906      	bls.n	8007262 <_strtol_l.isra.0+0x1a>
 8007254:	f7fe fa6c 	bl	8005730 <__errno>
 8007258:	2316      	movs	r3, #22
 800725a:	6003      	str	r3, [r0, #0]
 800725c:	2000      	movs	r0, #0
 800725e:	e8bd 87f0 	ldmia.w	sp!, {r4, r5, r6, r7, r8, r9, sl, pc}
 8007262:	4f3a      	ldr	r7, [pc, #232]	; (800734c <_strtol_l.isra.0+0x104>)
 8007264:	468e      	mov	lr, r1
 8007266:	4676      	mov	r6, lr
 8007268:	f81e 4b01 	ldrb.w	r4, [lr], #1
 800726c:	5de5      	ldrb	r5, [r4, r7]
 800726e:	f015 0508 	ands.w	r5, r5, #8
 8007272:	d1f8      	bne.n	8007266 <_strtol_l.isra.0+0x1e>
 8007274:	2c2d      	cmp	r4, #45	; 0x2d
 8007276:	d134      	bne.n	80072e2 <_strtol_l.isra.0+0x9a>
 8007278:	f89e 4000 	ldrb.w	r4, [lr]
 800727c:	f04f 0801 	mov.w	r8, #1
 8007280:	f106 0e02 	add.w	lr, r6, #2
 8007284:	2b00      	cmp	r3, #0
 8007286:	d05c      	beq.n	8007342 <_strtol_l.isra.0+0xfa>
 8007288:	2b10      	cmp	r3, #16
 800728a:	d10c      	bne.n	80072a6 <_strtol_l.isra.0+0x5e>
 800728c:	2c30      	cmp	r4, #48	; 0x30
 800728e:	d10a      	bne.n	80072a6 <_strtol_l.isra.0+0x5e>
 8007290:	f89e 4000 	ldrb.w	r4, [lr]
 8007294:	f004 04df 	and.w	r4, r4, #223	; 0xdf
 8007298:	2c58      	cmp	r4, #88	; 0x58
 800729a:	d14d      	bne.n	8007338 <_strtol_l.isra.0+0xf0>
 800729c:	f89e 4001 	ldrb.w	r4, [lr, #1]
 80072a0:	2310      	movs	r3, #16
 80072a2:	f10e 0e02 	add.w	lr, lr, #2
 80072a6:	f108 4c00 	add.w	ip, r8, #2147483648	; 0x80000000
 80072aa:	f10c 3cff 	add.w	ip, ip, #4294967295
 80072ae:	2600      	movs	r6, #0
 80072b0:	fbbc f9f3 	udiv	r9, ip, r3
 80072b4:	4635      	mov	r5, r6
 80072b6:	fb03 ca19 	mls	sl, r3, r9, ip
 80072ba:	f1a4 0730 	sub.w	r7, r4, #48	; 0x30
 80072be:	2f09      	cmp	r7, #9
 80072c0:	d818      	bhi.n	80072f4 <_strtol_l.isra.0+0xac>
 80072c2:	463c      	mov	r4, r7
 80072c4:	42a3      	cmp	r3, r4
 80072c6:	dd24      	ble.n	8007312 <_strtol_l.isra.0+0xca>
 80072c8:	2e00      	cmp	r6, #0
 80072ca:	db1f      	blt.n	800730c <_strtol_l.isra.0+0xc4>
 80072cc:	45a9      	cmp	r9, r5
 80072ce:	d31d      	bcc.n	800730c <_strtol_l.isra.0+0xc4>
 80072d0:	d101      	bne.n	80072d6 <_strtol_l.isra.0+0x8e>
 80072d2:	45a2      	cmp	sl, r4
 80072d4:	db1a      	blt.n	800730c <_strtol_l.isra.0+0xc4>
 80072d6:	fb05 4503 	mla	r5, r5, r3, r4
 80072da:	2601      	movs	r6, #1
 80072dc:	f81e 4b01 	ldrb.w	r4, [lr], #1
 80072e0:	e7eb      	b.n	80072ba <_strtol_l.isra.0+0x72>
 80072e2:	2c2b      	cmp	r4, #43	; 0x2b
 80072e4:	bf08      	it	eq
 80072e6:	f89e 4000 	ldrbeq.w	r4, [lr]
 80072ea:	46a8      	mov	r8, r5
 80072ec:	bf08      	it	eq
 80072ee:	f106 0e02 	addeq.w	lr, r6, #2
 80072f2:	e7c7      	b.n	8007284 <_strtol_l.isra.0+0x3c>
 80072f4:	f1a4 0741 	sub.w	r7, r4, #65	; 0x41
 80072f8:	2f19      	cmp	r7, #25
 80072fa:	d801      	bhi.n	8007300 <_strtol_l.isra.0+0xb8>
 80072fc:	3c37      	subs	r4, #55	; 0x37
 80072fe:	e7e1      	b.n	80072c4 <_strtol_l.isra.0+0x7c>
 8007300:	f1a4 0761 	sub.w	r7, r4, #97	; 0x61
 8007304:	2f19      	cmp	r7, #25
 8007306:	d804      	bhi.n	8007312 <_strtol_l.isra.0+0xca>
 8007308:	3c57      	subs	r4, #87	; 0x57
 800730a:	e7db      	b.n	80072c4 <_strtol_l.isra.0+0x7c>
 800730c:	f04f 36ff 	mov.w	r6, #4294967295
 8007310:	e7e4      	b.n	80072dc <_strtol_l.isra.0+0x94>
 8007312:	2e00      	cmp	r6, #0
 8007314:	da05      	bge.n	8007322 <_strtol_l.isra.0+0xda>
 8007316:	2322      	movs	r3, #34	; 0x22
 8007318:	6003      	str	r3, [r0, #0]
 800731a:	4665      	mov	r5, ip
 800731c:	b942      	cbnz	r2, 8007330 <_strtol_l.isra.0+0xe8>
 800731e:	4628      	mov	r0, r5
 8007320:	e79d      	b.n	800725e <_strtol_l.isra.0+0x16>
 8007322:	f1b8 0f00 	cmp.w	r8, #0
 8007326:	d000      	beq.n	800732a <_strtol_l.isra.0+0xe2>
 8007328:	426d      	negs	r5, r5
 800732a:	2a00      	cmp	r2, #0
 800732c:	d0f7      	beq.n	800731e <_strtol_l.isra.0+0xd6>
 800732e:	b10e      	cbz	r6, 8007334 <_strtol_l.isra.0+0xec>
 8007330:	f10e 31ff 	add.w	r1, lr, #4294967295
 8007334:	6011      	str	r1, [r2, #0]
 8007336:	e7f2      	b.n	800731e <_strtol_l.isra.0+0xd6>
 8007338:	2430      	movs	r4, #48	; 0x30
 800733a:	2b00      	cmp	r3, #0
 800733c:	d1b3      	bne.n	80072a6 <_strtol_l.isra.0+0x5e>
 800733e:	2308      	movs	r3, #8
 8007340:	e7b1      	b.n	80072a6 <_strtol_l.isra.0+0x5e>
 8007342:	2c30      	cmp	r4, #48	; 0x30
 8007344:	d0a4      	beq.n	8007290 <_strtol_l.isra.0+0x48>
 8007346:	230a      	movs	r3, #10
 8007348:	e7ad      	b.n	80072a6 <_strtol_l.isra.0+0x5e>
 800734a:	bf00      	nop
 800734c:	0800b1d9 	.word	0x0800b1d9

08007350 <_strtol_r>:
 8007350:	f7ff bf7a 	b.w	8007248 <_strtol_l.isra.0>

08007354 <__swbuf_r>:
 8007354:	b5f8      	push	{r3, r4, r5, r6, r7, lr}
 8007356:	460e      	mov	r6, r1
 8007358:	4614      	mov	r4, r2
 800735a:	4605      	mov	r5, r0
 800735c:	b118      	cbz	r0, 8007366 <__swbuf_r+0x12>
 800735e:	6983      	ldr	r3, [r0, #24]
 8007360:	b90b      	cbnz	r3, 8007366 <__swbuf_r+0x12>
 8007362:	f001 f84b 	bl	80083fc <__sinit>
 8007366:	4b21      	ldr	r3, [pc, #132]	; (80073ec <__swbuf_r+0x98>)
 8007368:	429c      	cmp	r4, r3
 800736a:	d12b      	bne.n	80073c4 <__swbuf_r+0x70>
 800736c:	686c      	ldr	r4, [r5, #4]
 800736e:	69a3      	ldr	r3, [r4, #24]
 8007370:	60a3      	str	r3, [r4, #8]
 8007372:	89a3      	ldrh	r3, [r4, #12]
 8007374:	071a      	lsls	r2, r3, #28
 8007376:	d52f      	bpl.n	80073d8 <__swbuf_r+0x84>
 8007378:	6923      	ldr	r3, [r4, #16]
 800737a:	b36b      	cbz	r3, 80073d8 <__swbuf_r+0x84>
 800737c:	6923      	ldr	r3, [r4, #16]
 800737e:	6820      	ldr	r0, [r4, #0]
 8007380:	1ac0      	subs	r0, r0, r3
 8007382:	6963      	ldr	r3, [r4, #20]
 8007384:	b2f6      	uxtb	r6, r6
 8007386:	4283      	cmp	r3, r0
 8007388:	4637      	mov	r7, r6
 800738a:	dc04      	bgt.n	8007396 <__swbuf_r+0x42>
 800738c:	4621      	mov	r1, r4
 800738e:	4628      	mov	r0, r5
 8007390:	f000 ffa0 	bl	80082d4 <_fflush_r>
 8007394:	bb30      	cbnz	r0, 80073e4 <__swbuf_r+0x90>
 8007396:	68a3      	ldr	r3, [r4, #8]
 8007398:	3b01      	subs	r3, #1
 800739a:	60a3      	str	r3, [r4, #8]
 800739c:	6823      	ldr	r3, [r4, #0]
 800739e:	1c5a      	adds	r2, r3, #1
 80073a0:	6022      	str	r2, [r4, #0]
 80073a2:	701e      	strb	r6, [r3, #0]
 80073a4:	6963      	ldr	r3, [r4, #20]
 80073a6:	3001      	adds	r0, #1
 80073a8:	4283      	cmp	r3, r0
 80073aa:	d004      	beq.n	80073b6 <__swbuf_r+0x62>
 80073ac:	89a3      	ldrh	r3, [r4, #12]
 80073ae:	07db      	lsls	r3, r3, #31
 80073b0:	d506      	bpl.n	80073c0 <__swbuf_r+0x6c>
 80073b2:	2e0a      	cmp	r6, #10
 80073b4:	d104      	bne.n	80073c0 <__swbuf_r+0x6c>
 80073b6:	4621      	mov	r1, r4
 80073b8:	4628      	mov	r0, r5
 80073ba:	f000 ff8b 	bl	80082d4 <_fflush_r>
 80073be:	b988      	cbnz	r0, 80073e4 <__swbuf_r+0x90>
 80073c0:	4638      	mov	r0, r7
 80073c2:	bdf8      	pop	{r3, r4, r5, r6, r7, pc}
 80073c4:	4b0a      	ldr	r3, [pc, #40]	; (80073f0 <__swbuf_r+0x9c>)
 80073c6:	429c      	cmp	r4, r3
 80073c8:	d101      	bne.n	80073ce <__swbuf_r+0x7a>
 80073ca:	68ac      	ldr	r4, [r5, #8]
 80073cc:	e7cf      	b.n	800736e <__swbuf_r+0x1a>
 80073ce:	4b09      	ldr	r3, [pc, #36]	; (80073f4 <__swbuf_r+0xa0>)
 80073d0:	429c      	cmp	r4, r3
 80073d2:	bf08      	it	eq
 80073d4:	68ec      	ldreq	r4, [r5, #12]
 80073d6:	e7ca      	b.n	800736e <__swbuf_r+0x1a>
 80073d8:	4621      	mov	r1, r4
 80073da:	4628      	mov	r0, r5
 80073dc:	f000 f80c 	bl	80073f8 <__swsetup_r>
 80073e0:	2800      	cmp	r0, #0
 80073e2:	d0cb      	beq.n	800737c <__swbuf_r+0x28>
 80073e4:	f04f 37ff 	mov.w	r7, #4294967295
 80073e8:	e7ea      	b.n	80073c0 <__swbuf_r+0x6c>
 80073ea:	bf00      	nop
 80073ec:	0800b390 	.word	0x0800b390
 80073f0:	0800b3b0 	.word	0x0800b3b0
 80073f4:	0800b370 	.word	0x0800b370

080073f8 <__swsetup_r>:
 80073f8:	4b32      	ldr	r3, [pc, #200]	; (80074c4 <__swsetup_r+0xcc>)
 80073fa:	b570      	push	{r4, r5, r6, lr}
 80073fc:	681d      	ldr	r5, [r3, #0]
 80073fe:	4606      	mov	r6, r0
 8007400:	460c      	mov	r4, r1
 8007402:	b125      	cbz	r5, 800740e <__swsetup_r+0x16>
 8007404:	69ab      	ldr	r3, [r5, #24]
 8007406:	b913      	cbnz	r3, 800740e <__swsetup_r+0x16>
 8007408:	4628      	mov	r0, r5
 800740a:	f000 fff7 	bl	80083fc <__sinit>
 800740e:	4b2e      	ldr	r3, [pc, #184]	; (80074c8 <__swsetup_r+0xd0>)
 8007410:	429c      	cmp	r4, r3
 8007412:	d10f      	bne.n	8007434 <__swsetup_r+0x3c>
 8007414:	686c      	ldr	r4, [r5, #4]
 8007416:	89a3      	ldrh	r3, [r4, #12]
 8007418:	f9b4 200c 	ldrsh.w	r2, [r4, #12]
 800741c:	0719      	lsls	r1, r3, #28
 800741e:	d42c      	bmi.n	800747a <__swsetup_r+0x82>
 8007420:	06dd      	lsls	r5, r3, #27
 8007422:	d411      	bmi.n	8007448 <__swsetup_r+0x50>
 8007424:	2309      	movs	r3, #9
 8007426:	6033      	str	r3, [r6, #0]
 8007428:	f042 0340 	orr.w	r3, r2, #64	; 0x40
 800742c:	81a3      	strh	r3, [r4, #12]
 800742e:	f04f 30ff 	mov.w	r0, #4294967295
 8007432:	e03e      	b.n	80074b2 <__swsetup_r+0xba>
 8007434:	4b25      	ldr	r3, [pc, #148]	; (80074cc <__swsetup_r+0xd4>)
 8007436:	429c      	cmp	r4, r3
 8007438:	d101      	bne.n	800743e <__swsetup_r+0x46>
 800743a:	68ac      	ldr	r4, [r5, #8]
 800743c:	e7eb      	b.n	8007416 <__swsetup_r+0x1e>
 800743e:	4b24      	ldr	r3, [pc, #144]	; (80074d0 <__swsetup_r+0xd8>)
 8007440:	429c      	cmp	r4, r3
 8007442:	bf08      	it	eq
 8007444:	68ec      	ldreq	r4, [r5, #12]
 8007446:	e7e6      	b.n	8007416 <__swsetup_r+0x1e>
 8007448:	0758      	lsls	r0, r3, #29
 800744a:	d512      	bpl.n	8007472 <__swsetup_r+0x7a>
 800744c:	6b61      	ldr	r1, [r4, #52]	; 0x34
 800744e:	b141      	cbz	r1, 8007462 <__swsetup_r+0x6a>
 8007450:	f104 0344 	add.w	r3, r4, #68	; 0x44
 8007454:	4299      	cmp	r1, r3
 8007456:	d002      	beq.n	800745e <__swsetup_r+0x66>
 8007458:	4630      	mov	r0, r6
 800745a:	f002 f939 	bl	80096d0 <_free_r>
 800745e:	2300      	movs	r3, #0
 8007460:	6363      	str	r3, [r4, #52]	; 0x34
 8007462:	89a3      	ldrh	r3, [r4, #12]
 8007464:	f023 0324 	bic.w	r3, r3, #36	; 0x24
 8007468:	81a3      	strh	r3, [r4, #12]
 800746a:	2300      	movs	r3, #0
 800746c:	6063      	str	r3, [r4, #4]
 800746e:	6923      	ldr	r3, [r4, #16]
 8007470:	6023      	str	r3, [r4, #0]
 8007472:	89a3      	ldrh	r3, [r4, #12]
 8007474:	f043 0308 	orr.w	r3, r3, #8
 8007478:	81a3      	strh	r3, [r4, #12]
 800747a:	6923      	ldr	r3, [r4, #16]
 800747c:	b94b      	cbnz	r3, 8007492 <__swsetup_r+0x9a>
 800747e:	89a3      	ldrh	r3, [r4, #12]
 8007480:	f403 7320 	and.w	r3, r3, #640	; 0x280
 8007484:	f5b3 7f00 	cmp.w	r3, #512	; 0x200
 8007488:	d003      	beq.n	8007492 <__swsetup_r+0x9a>
 800748a:	4621      	mov	r1, r4
 800748c:	4630      	mov	r0, r6
 800748e:	f001 fbed 	bl	8008c6c <__smakebuf_r>
 8007492:	89a0      	ldrh	r0, [r4, #12]
 8007494:	f9b4 200c 	ldrsh.w	r2, [r4, #12]
 8007498:	f010 0301 	ands.w	r3, r0, #1
 800749c:	d00a      	beq.n	80074b4 <__swsetup_r+0xbc>
 800749e:	2300      	movs	r3, #0
 80074a0:	60a3      	str	r3, [r4, #8]
 80074a2:	6963      	ldr	r3, [r4, #20]
 80074a4:	425b      	negs	r3, r3
 80074a6:	61a3      	str	r3, [r4, #24]
 80074a8:	6923      	ldr	r3, [r4, #16]
 80074aa:	b943      	cbnz	r3, 80074be <__swsetup_r+0xc6>
 80074ac:	f010 0080 	ands.w	r0, r0, #128	; 0x80
 80074b0:	d1ba      	bne.n	8007428 <__swsetup_r+0x30>
 80074b2:	bd70      	pop	{r4, r5, r6, pc}
 80074b4:	0781      	lsls	r1, r0, #30
 80074b6:	bf58      	it	pl
 80074b8:	6963      	ldrpl	r3, [r4, #20]
 80074ba:	60a3      	str	r3, [r4, #8]
 80074bc:	e7f4      	b.n	80074a8 <__swsetup_r+0xb0>
 80074be:	2000      	movs	r0, #0
 80074c0:	e7f7      	b.n	80074b2 <__swsetup_r+0xba>
 80074c2:	bf00      	nop
 80074c4:	20000014 	.word	0x20000014
 80074c8:	0800b390 	.word	0x0800b390
 80074cc:	0800b3b0 	.word	0x0800b3b0
 80074d0:	0800b370 	.word	0x0800b370

080074d4 <quorem>:
 80074d4:	e92d 4ff7 	stmdb	sp!, {r0, r1, r2, r4, r5, r6, r7, r8, r9, sl, fp, lr}
 80074d8:	6903      	ldr	r3, [r0, #16]
 80074da:	690c      	ldr	r4, [r1, #16]
 80074dc:	42a3      	cmp	r3, r4
 80074de:	4607      	mov	r7, r0
 80074e0:	f2c0 8081 	blt.w	80075e6 <quorem+0x112>
 80074e4:	3c01      	subs	r4, #1
 80074e6:	f101 0814 	add.w	r8, r1, #20
 80074ea:	f100 0514 	add.w	r5, r0, #20
 80074ee:	eb05 0384 	add.w	r3, r5, r4, lsl #2
 80074f2:	9301      	str	r3, [sp, #4]
 80074f4:	f858 3024 	ldr.w	r3, [r8, r4, lsl #2]
 80074f8:	f855 2024 	ldr.w	r2, [r5, r4, lsl #2]
 80074fc:	3301      	adds	r3, #1
 80074fe:	429a      	cmp	r2, r3
 8007500:	ea4f 0b84 	mov.w	fp, r4, lsl #2
 8007504:	eb08 0984 	add.w	r9, r8, r4, lsl #2
 8007508:	fbb2 f6f3 	udiv	r6, r2, r3
 800750c:	d331      	bcc.n	8007572 <quorem+0x9e>
 800750e:	f04f 0e00 	mov.w	lr, #0
 8007512:	4640      	mov	r0, r8
 8007514:	46ac      	mov	ip, r5
 8007516:	46f2      	mov	sl, lr
 8007518:	f850 2b04 	ldr.w	r2, [r0], #4
 800751c:	b293      	uxth	r3, r2
 800751e:	fb06 e303 	mla	r3, r6, r3, lr
 8007522:	ea4f 4e13 	mov.w	lr, r3, lsr #16
 8007526:	b29b      	uxth	r3, r3
 8007528:	ebaa 0303 	sub.w	r3, sl, r3
 800752c:	0c12      	lsrs	r2, r2, #16
 800752e:	f8dc a000 	ldr.w	sl, [ip]
 8007532:	fb06 e202 	mla	r2, r6, r2, lr
 8007536:	fa13 f38a 	uxtah	r3, r3, sl
 800753a:	ea4f 4e12 	mov.w	lr, r2, lsr #16
 800753e:	fa1f fa82 	uxth.w	sl, r2
 8007542:	f8dc 2000 	ldr.w	r2, [ip]
 8007546:	ebca 4212 	rsb	r2, sl, r2, lsr #16
 800754a:	eb02 4223 	add.w	r2, r2, r3, asr #16
 800754e:	b29b      	uxth	r3, r3
 8007550:	ea43 4302 	orr.w	r3, r3, r2, lsl #16
 8007554:	4581      	cmp	r9, r0
 8007556:	f84c 3b04 	str.w	r3, [ip], #4
 800755a:	ea4f 4a22 	mov.w	sl, r2, asr #16
 800755e:	d2db      	bcs.n	8007518 <quorem+0x44>
 8007560:	f855 300b 	ldr.w	r3, [r5, fp]
 8007564:	b92b      	cbnz	r3, 8007572 <quorem+0x9e>
 8007566:	9b01      	ldr	r3, [sp, #4]
 8007568:	3b04      	subs	r3, #4
 800756a:	429d      	cmp	r5, r3
 800756c:	461a      	mov	r2, r3
 800756e:	d32e      	bcc.n	80075ce <quorem+0xfa>
 8007570:	613c      	str	r4, [r7, #16]
 8007572:	4638      	mov	r0, r7
 8007574:	f001 feaa 	bl	80092cc <__mcmp>
 8007578:	2800      	cmp	r0, #0
 800757a:	db24      	blt.n	80075c6 <quorem+0xf2>
 800757c:	3601      	adds	r6, #1
 800757e:	4628      	mov	r0, r5
 8007580:	f04f 0c00 	mov.w	ip, #0
 8007584:	f858 2b04 	ldr.w	r2, [r8], #4
 8007588:	f8d0 e000 	ldr.w	lr, [r0]
 800758c:	b293      	uxth	r3, r2
 800758e:	ebac 0303 	sub.w	r3, ip, r3
 8007592:	0c12      	lsrs	r2, r2, #16
 8007594:	fa13 f38e 	uxtah	r3, r3, lr
 8007598:	ebc2 421e 	rsb	r2, r2, lr, lsr #16
 800759c:	eb02 4223 	add.w	r2, r2, r3, asr #16
 80075a0:	b29b      	uxth	r3, r3
 80075a2:	ea43 4302 	orr.w	r3, r3, r2, lsl #16
 80075a6:	45c1      	cmp	r9, r8
 80075a8:	f840 3b04 	str.w	r3, [r0], #4
 80075ac:	ea4f 4c22 	mov.w	ip, r2, asr #16
 80075b0:	d2e8      	bcs.n	8007584 <quorem+0xb0>
 80075b2:	f855 2024 	ldr.w	r2, [r5, r4, lsl #2]
 80075b6:	eb05 0384 	add.w	r3, r5, r4, lsl #2
 80075ba:	b922      	cbnz	r2, 80075c6 <quorem+0xf2>
 80075bc:	3b04      	subs	r3, #4
 80075be:	429d      	cmp	r5, r3
 80075c0:	461a      	mov	r2, r3
 80075c2:	d30a      	bcc.n	80075da <quorem+0x106>
 80075c4:	613c      	str	r4, [r7, #16]
 80075c6:	4630      	mov	r0, r6
 80075c8:	b003      	add	sp, #12
 80075ca:	e8bd 8ff0 	ldmia.w	sp!, {r4, r5, r6, r7, r8, r9, sl, fp, pc}
 80075ce:	6812      	ldr	r2, [r2, #0]
 80075d0:	3b04      	subs	r3, #4
 80075d2:	2a00      	cmp	r2, #0
 80075d4:	d1cc      	bne.n	8007570 <quorem+0x9c>
 80075d6:	3c01      	subs	r4, #1
 80075d8:	e7c7      	b.n	800756a <quorem+0x96>
 80075da:	6812      	ldr	r2, [r2, #0]
 80075dc:	3b04      	subs	r3, #4
 80075de:	2a00      	cmp	r2, #0
 80075e0:	d1f0      	bne.n	80075c4 <quorem+0xf0>
 80075e2:	3c01      	subs	r4, #1
 80075e4:	e7eb      	b.n	80075be <quorem+0xea>
 80075e6:	2000      	movs	r0, #0
 80075e8:	e7ee      	b.n	80075c8 <quorem+0xf4>
 80075ea:	0000      	movs	r0, r0
 80075ec:	0000      	movs	r0, r0
	...

080075f0 <_dtoa_r>:
 80075f0:	e92d 4ff0 	stmdb	sp!, {r4, r5, r6, r7, r8, r9, sl, fp, lr}
 80075f4:	ed2d 8b02 	vpush	{d8}
 80075f8:	ec57 6b10 	vmov	r6, r7, d0
 80075fc:	b095      	sub	sp, #84	; 0x54
 80075fe:	6a45      	ldr	r5, [r0, #36]	; 0x24
 8007600:	f8dd 8080 	ldr.w	r8, [sp, #128]	; 0x80
 8007604:	9105      	str	r1, [sp, #20]
 8007606:	e9cd 6702 	strd	r6, r7, [sp, #8]
 800760a:	4604      	mov	r4, r0
 800760c:	9209      	str	r2, [sp, #36]	; 0x24
 800760e:	930f      	str	r3, [sp, #60]	; 0x3c
 8007610:	b975      	cbnz	r5, 8007630 <_dtoa_r+0x40>
 8007612:	2010      	movs	r0, #16
 8007614:	f001 fb6a 	bl	8008cec <malloc>
 8007618:	4602      	mov	r2, r0
 800761a:	6260      	str	r0, [r4, #36]	; 0x24
 800761c:	b920      	cbnz	r0, 8007628 <_dtoa_r+0x38>
 800761e:	4bb2      	ldr	r3, [pc, #712]	; (80078e8 <_dtoa_r+0x2f8>)
 8007620:	21ea      	movs	r1, #234	; 0xea
 8007622:	48b2      	ldr	r0, [pc, #712]	; (80078ec <_dtoa_r+0x2fc>)
 8007624:	f002 fc40 	bl	8009ea8 <__assert_func>
 8007628:	e9c0 5501 	strd	r5, r5, [r0, #4]
 800762c:	6005      	str	r5, [r0, #0]
 800762e:	60c5      	str	r5, [r0, #12]
 8007630:	6a63      	ldr	r3, [r4, #36]	; 0x24
 8007632:	6819      	ldr	r1, [r3, #0]
 8007634:	b151      	cbz	r1, 800764c <_dtoa_r+0x5c>
 8007636:	685a      	ldr	r2, [r3, #4]
 8007638:	604a      	str	r2, [r1, #4]
 800763a:	2301      	movs	r3, #1
 800763c:	4093      	lsls	r3, r2
 800763e:	608b      	str	r3, [r1, #8]
 8007640:	4620      	mov	r0, r4
 8007642:	f001 fbbb 	bl	8008dbc <_Bfree>
 8007646:	6a63      	ldr	r3, [r4, #36]	; 0x24
 8007648:	2200      	movs	r2, #0
 800764a:	601a      	str	r2, [r3, #0]
 800764c:	1e3b      	subs	r3, r7, #0
 800764e:	bfb9      	ittee	lt
 8007650:	f023 4300 	biclt.w	r3, r3, #2147483648	; 0x80000000
 8007654:	9303      	strlt	r3, [sp, #12]
 8007656:	2300      	movge	r3, #0
 8007658:	f8c8 3000 	strge.w	r3, [r8]
 800765c:	f8dd 900c 	ldr.w	r9, [sp, #12]
 8007660:	4ba3      	ldr	r3, [pc, #652]	; (80078f0 <_dtoa_r+0x300>)
 8007662:	bfbc      	itt	lt
 8007664:	2201      	movlt	r2, #1
 8007666:	f8c8 2000 	strlt.w	r2, [r8]
 800766a:	ea33 0309 	bics.w	r3, r3, r9
 800766e:	d11b      	bne.n	80076a8 <_dtoa_r+0xb8>
 8007670:	9a0f      	ldr	r2, [sp, #60]	; 0x3c
 8007672:	f242 730f 	movw	r3, #9999	; 0x270f
 8007676:	6013      	str	r3, [r2, #0]
 8007678:	f3c9 0313 	ubfx	r3, r9, #0, #20
 800767c:	4333      	orrs	r3, r6
 800767e:	f000 857a 	beq.w	8008176 <_dtoa_r+0xb86>
 8007682:	9b21      	ldr	r3, [sp, #132]	; 0x84
 8007684:	b963      	cbnz	r3, 80076a0 <_dtoa_r+0xb0>
 8007686:	4b9b      	ldr	r3, [pc, #620]	; (80078f4 <_dtoa_r+0x304>)
 8007688:	e024      	b.n	80076d4 <_dtoa_r+0xe4>
 800768a:	4b9b      	ldr	r3, [pc, #620]	; (80078f8 <_dtoa_r+0x308>)
 800768c:	9300      	str	r3, [sp, #0]
 800768e:	3308      	adds	r3, #8
 8007690:	9a21      	ldr	r2, [sp, #132]	; 0x84
 8007692:	6013      	str	r3, [r2, #0]
 8007694:	9800      	ldr	r0, [sp, #0]
 8007696:	b015      	add	sp, #84	; 0x54
 8007698:	ecbd 8b02 	vpop	{d8}
 800769c:	e8bd 8ff0 	ldmia.w	sp!, {r4, r5, r6, r7, r8, r9, sl, fp, pc}
 80076a0:	4b94      	ldr	r3, [pc, #592]	; (80078f4 <_dtoa_r+0x304>)
 80076a2:	9300      	str	r3, [sp, #0]
 80076a4:	3303      	adds	r3, #3
 80076a6:	e7f3      	b.n	8007690 <_dtoa_r+0xa0>
 80076a8:	ed9d 7b02 	vldr	d7, [sp, #8]
 80076ac:	2200      	movs	r2, #0
 80076ae:	ec51 0b17 	vmov	r0, r1, d7
 80076b2:	2300      	movs	r3, #0
 80076b4:	ed8d 7b0a 	vstr	d7, [sp, #40]	; 0x28
 80076b8:	f7f9 fa06 	bl	8000ac8 <__aeabi_dcmpeq>
 80076bc:	4680      	mov	r8, r0
 80076be:	b158      	cbz	r0, 80076d8 <_dtoa_r+0xe8>
 80076c0:	9a0f      	ldr	r2, [sp, #60]	; 0x3c
 80076c2:	2301      	movs	r3, #1
 80076c4:	6013      	str	r3, [r2, #0]
 80076c6:	9b21      	ldr	r3, [sp, #132]	; 0x84
 80076c8:	2b00      	cmp	r3, #0
 80076ca:	f000 8551 	beq.w	8008170 <_dtoa_r+0xb80>
 80076ce:	488b      	ldr	r0, [pc, #556]	; (80078fc <_dtoa_r+0x30c>)
 80076d0:	6018      	str	r0, [r3, #0]
 80076d2:	1e43      	subs	r3, r0, #1
 80076d4:	9300      	str	r3, [sp, #0]
 80076d6:	e7dd      	b.n	8007694 <_dtoa_r+0xa4>
 80076d8:	ed9d 0b0a 	vldr	d0, [sp, #40]	; 0x28
 80076dc:	aa12      	add	r2, sp, #72	; 0x48
 80076de:	a913      	add	r1, sp, #76	; 0x4c
 80076e0:	4620      	mov	r0, r4
 80076e2:	f001 ff13 	bl	800950c <__d2b>
 80076e6:	f3c9 550a 	ubfx	r5, r9, #20, #11
 80076ea:	4683      	mov	fp, r0
 80076ec:	2d00      	cmp	r5, #0
 80076ee:	d07c      	beq.n	80077ea <_dtoa_r+0x1fa>
 80076f0:	9b0b      	ldr	r3, [sp, #44]	; 0x2c
 80076f2:	f8cd 8040 	str.w	r8, [sp, #64]	; 0x40
 80076f6:	f3c3 0313 	ubfx	r3, r3, #0, #20
 80076fa:	e9dd 670a 	ldrd	r6, r7, [sp, #40]	; 0x28
 80076fe:	f043 577f 	orr.w	r7, r3, #1069547520	; 0x3fc00000
 8007702:	f447 1740 	orr.w	r7, r7, #3145728	; 0x300000
 8007706:	f2a5 35ff 	subw	r5, r5, #1023	; 0x3ff
 800770a:	4b7d      	ldr	r3, [pc, #500]	; (8007900 <_dtoa_r+0x310>)
 800770c:	2200      	movs	r2, #0
 800770e:	4630      	mov	r0, r6
 8007710:	4639      	mov	r1, r7
 8007712:	f7f8 fdb9 	bl	8000288 <__aeabi_dsub>
 8007716:	a36e      	add	r3, pc, #440	; (adr r3, 80078d0 <_dtoa_r+0x2e0>)
 8007718:	e9d3 2300 	ldrd	r2, r3, [r3]
 800771c:	f7f8 ff6c 	bl	80005f8 <__aeabi_dmul>
 8007720:	a36d      	add	r3, pc, #436	; (adr r3, 80078d8 <_dtoa_r+0x2e8>)
 8007722:	e9d3 2300 	ldrd	r2, r3, [r3]
 8007726:	f7f8 fdb1 	bl	800028c <__adddf3>
 800772a:	4606      	mov	r6, r0
 800772c:	4628      	mov	r0, r5
 800772e:	460f      	mov	r7, r1
 8007730:	f7f8 fef8 	bl	8000524 <__aeabi_i2d>
 8007734:	a36a      	add	r3, pc, #424	; (adr r3, 80078e0 <_dtoa_r+0x2f0>)
 8007736:	e9d3 2300 	ldrd	r2, r3, [r3]
 800773a:	f7f8 ff5d 	bl	80005f8 <__aeabi_dmul>
 800773e:	4602      	mov	r2, r0
 8007740:	460b      	mov	r3, r1
 8007742:	4630      	mov	r0, r6
 8007744:	4639      	mov	r1, r7
 8007746:	f7f8 fda1 	bl	800028c <__adddf3>
 800774a:	4606      	mov	r6, r0
 800774c:	460f      	mov	r7, r1
 800774e:	f7f9 fa03 	bl	8000b58 <__aeabi_d2iz>
 8007752:	2200      	movs	r2, #0
 8007754:	4682      	mov	sl, r0
 8007756:	2300      	movs	r3, #0
 8007758:	4630      	mov	r0, r6
 800775a:	4639      	mov	r1, r7
 800775c:	f7f9 f9be 	bl	8000adc <__aeabi_dcmplt>
 8007760:	b148      	cbz	r0, 8007776 <_dtoa_r+0x186>
 8007762:	4650      	mov	r0, sl
 8007764:	f7f8 fede 	bl	8000524 <__aeabi_i2d>
 8007768:	4632      	mov	r2, r6
 800776a:	463b      	mov	r3, r7
 800776c:	f7f9 f9ac 	bl	8000ac8 <__aeabi_dcmpeq>
 8007770:	b908      	cbnz	r0, 8007776 <_dtoa_r+0x186>
 8007772:	f10a 3aff 	add.w	sl, sl, #4294967295
 8007776:	f1ba 0f16 	cmp.w	sl, #22
 800777a:	d854      	bhi.n	8007826 <_dtoa_r+0x236>
 800777c:	4b61      	ldr	r3, [pc, #388]	; (8007904 <_dtoa_r+0x314>)
 800777e:	eb03 03ca 	add.w	r3, r3, sl, lsl #3
 8007782:	e9d3 2300 	ldrd	r2, r3, [r3]
 8007786:	e9dd 010a 	ldrd	r0, r1, [sp, #40]	; 0x28
 800778a:	f7f9 f9a7 	bl	8000adc <__aeabi_dcmplt>
 800778e:	2800      	cmp	r0, #0
 8007790:	d04b      	beq.n	800782a <_dtoa_r+0x23a>
 8007792:	f10a 3aff 	add.w	sl, sl, #4294967295
 8007796:	2300      	movs	r3, #0
 8007798:	930e      	str	r3, [sp, #56]	; 0x38
 800779a:	9b12      	ldr	r3, [sp, #72]	; 0x48
 800779c:	1b5d      	subs	r5, r3, r5
 800779e:	1e6b      	subs	r3, r5, #1
 80077a0:	9304      	str	r3, [sp, #16]
 80077a2:	bf43      	ittte	mi
 80077a4:	2300      	movmi	r3, #0
 80077a6:	f1c5 0801 	rsbmi	r8, r5, #1
 80077aa:	9304      	strmi	r3, [sp, #16]
 80077ac:	f04f 0800 	movpl.w	r8, #0
 80077b0:	f1ba 0f00 	cmp.w	sl, #0
 80077b4:	db3b      	blt.n	800782e <_dtoa_r+0x23e>
 80077b6:	9b04      	ldr	r3, [sp, #16]
 80077b8:	f8cd a034 	str.w	sl, [sp, #52]	; 0x34
 80077bc:	4453      	add	r3, sl
 80077be:	9304      	str	r3, [sp, #16]
 80077c0:	2300      	movs	r3, #0
 80077c2:	9306      	str	r3, [sp, #24]
 80077c4:	9b05      	ldr	r3, [sp, #20]
 80077c6:	2b09      	cmp	r3, #9
 80077c8:	d869      	bhi.n	800789e <_dtoa_r+0x2ae>
 80077ca:	2b05      	cmp	r3, #5
 80077cc:	bfc4      	itt	gt
 80077ce:	3b04      	subgt	r3, #4
 80077d0:	9305      	strgt	r3, [sp, #20]
 80077d2:	9b05      	ldr	r3, [sp, #20]
 80077d4:	f1a3 0302 	sub.w	r3, r3, #2
 80077d8:	bfcc      	ite	gt
 80077da:	2500      	movgt	r5, #0
 80077dc:	2501      	movle	r5, #1
 80077de:	2b03      	cmp	r3, #3
 80077e0:	d869      	bhi.n	80078b6 <_dtoa_r+0x2c6>
 80077e2:	e8df f003 	tbb	[pc, r3]
 80077e6:	4e2c      	.short	0x4e2c
 80077e8:	5a4c      	.short	0x5a4c
 80077ea:	e9dd 5312 	ldrd	r5, r3, [sp, #72]	; 0x48
 80077ee:	441d      	add	r5, r3
 80077f0:	f205 4332 	addw	r3, r5, #1074	; 0x432
 80077f4:	2b20      	cmp	r3, #32
 80077f6:	bfc1      	itttt	gt
 80077f8:	f1c3 0340 	rsbgt	r3, r3, #64	; 0x40
 80077fc:	f205 4012 	addwgt	r0, r5, #1042	; 0x412
 8007800:	fa09 f303 	lslgt.w	r3, r9, r3
 8007804:	fa26 f000 	lsrgt.w	r0, r6, r0
 8007808:	bfda      	itte	le
 800780a:	f1c3 0320 	rsble	r3, r3, #32
 800780e:	fa06 f003 	lslle.w	r0, r6, r3
 8007812:	4318      	orrgt	r0, r3
 8007814:	f7f8 fe76 	bl	8000504 <__aeabi_ui2d>
 8007818:	2301      	movs	r3, #1
 800781a:	4606      	mov	r6, r0
 800781c:	f1a1 77f8 	sub.w	r7, r1, #32505856	; 0x1f00000
 8007820:	3d01      	subs	r5, #1
 8007822:	9310      	str	r3, [sp, #64]	; 0x40
 8007824:	e771      	b.n	800770a <_dtoa_r+0x11a>
 8007826:	2301      	movs	r3, #1
 8007828:	e7b6      	b.n	8007798 <_dtoa_r+0x1a8>
 800782a:	900e      	str	r0, [sp, #56]	; 0x38
 800782c:	e7b5      	b.n	800779a <_dtoa_r+0x1aa>
 800782e:	f1ca 0300 	rsb	r3, sl, #0
 8007832:	9306      	str	r3, [sp, #24]
 8007834:	2300      	movs	r3, #0
 8007836:	eba8 080a 	sub.w	r8, r8, sl
 800783a:	930d      	str	r3, [sp, #52]	; 0x34
 800783c:	e7c2      	b.n	80077c4 <_dtoa_r+0x1d4>
 800783e:	2300      	movs	r3, #0
 8007840:	9308      	str	r3, [sp, #32]
 8007842:	9b09      	ldr	r3, [sp, #36]	; 0x24
 8007844:	2b00      	cmp	r3, #0
 8007846:	dc39      	bgt.n	80078bc <_dtoa_r+0x2cc>
 8007848:	f04f 0901 	mov.w	r9, #1
 800784c:	f8cd 9004 	str.w	r9, [sp, #4]
 8007850:	464b      	mov	r3, r9
 8007852:	f8cd 9024 	str.w	r9, [sp, #36]	; 0x24
 8007856:	6a60      	ldr	r0, [r4, #36]	; 0x24
 8007858:	2200      	movs	r2, #0
 800785a:	6042      	str	r2, [r0, #4]
 800785c:	2204      	movs	r2, #4
 800785e:	f102 0614 	add.w	r6, r2, #20
 8007862:	429e      	cmp	r6, r3
 8007864:	6841      	ldr	r1, [r0, #4]
 8007866:	d92f      	bls.n	80078c8 <_dtoa_r+0x2d8>
 8007868:	4620      	mov	r0, r4
 800786a:	f001 fa67 	bl	8008d3c <_Balloc>
 800786e:	9000      	str	r0, [sp, #0]
 8007870:	2800      	cmp	r0, #0
 8007872:	d14b      	bne.n	800790c <_dtoa_r+0x31c>
 8007874:	4b24      	ldr	r3, [pc, #144]	; (8007908 <_dtoa_r+0x318>)
 8007876:	4602      	mov	r2, r0
 8007878:	f44f 71d5 	mov.w	r1, #426	; 0x1aa
 800787c:	e6d1      	b.n	8007622 <_dtoa_r+0x32>
 800787e:	2301      	movs	r3, #1
 8007880:	e7de      	b.n	8007840 <_dtoa_r+0x250>
 8007882:	2300      	movs	r3, #0
 8007884:	9308      	str	r3, [sp, #32]
 8007886:	9b09      	ldr	r3, [sp, #36]	; 0x24
 8007888:	eb0a 0903 	add.w	r9, sl, r3
 800788c:	f109 0301 	add.w	r3, r9, #1
 8007890:	2b01      	cmp	r3, #1
 8007892:	9301      	str	r3, [sp, #4]
 8007894:	bfb8      	it	lt
 8007896:	2301      	movlt	r3, #1
 8007898:	e7dd      	b.n	8007856 <_dtoa_r+0x266>
 800789a:	2301      	movs	r3, #1
 800789c:	e7f2      	b.n	8007884 <_dtoa_r+0x294>
 800789e:	2501      	movs	r5, #1
 80078a0:	2300      	movs	r3, #0
 80078a2:	9305      	str	r3, [sp, #20]
 80078a4:	9508      	str	r5, [sp, #32]
 80078a6:	f04f 39ff 	mov.w	r9, #4294967295
 80078aa:	2200      	movs	r2, #0
 80078ac:	f8cd 9004 	str.w	r9, [sp, #4]
 80078b0:	2312      	movs	r3, #18
 80078b2:	9209      	str	r2, [sp, #36]	; 0x24
 80078b4:	e7cf      	b.n	8007856 <_dtoa_r+0x266>
 80078b6:	2301      	movs	r3, #1
 80078b8:	9308      	str	r3, [sp, #32]
 80078ba:	e7f4      	b.n	80078a6 <_dtoa_r+0x2b6>
 80078bc:	f8dd 9024 	ldr.w	r9, [sp, #36]	; 0x24
 80078c0:	f8cd 9004 	str.w	r9, [sp, #4]
 80078c4:	464b      	mov	r3, r9
 80078c6:	e7c6      	b.n	8007856 <_dtoa_r+0x266>
 80078c8:	3101      	adds	r1, #1
 80078ca:	6041      	str	r1, [r0, #4]
 80078cc:	0052      	lsls	r2, r2, #1
 80078ce:	e7c6      	b.n	800785e <_dtoa_r+0x26e>
 80078d0:	636f4361 	.word	0x636f4361
 80078d4:	3fd287a7 	.word	0x3fd287a7
 80078d8:	8b60c8b3 	.word	0x8b60c8b3
 80078dc:	3fc68a28 	.word	0x3fc68a28
 80078e0:	509f79fb 	.word	0x509f79fb
 80078e4:	3fd34413 	.word	0x3fd34413
 80078e8:	0800b2e6 	.word	0x0800b2e6
 80078ec:	0800b2fd 	.word	0x0800b2fd
 80078f0:	7ff00000 	.word	0x7ff00000
 80078f4:	0800b2e2 	.word	0x0800b2e2
 80078f8:	0800b2d9 	.word	0x0800b2d9
 80078fc:	0800b15d 	.word	0x0800b15d
 8007900:	3ff80000 	.word	0x3ff80000
 8007904:	0800b4d8 	.word	0x0800b4d8
 8007908:	0800b35c 	.word	0x0800b35c
 800790c:	6a63      	ldr	r3, [r4, #36]	; 0x24
 800790e:	9a00      	ldr	r2, [sp, #0]
 8007910:	601a      	str	r2, [r3, #0]
 8007912:	9b01      	ldr	r3, [sp, #4]
 8007914:	2b0e      	cmp	r3, #14
 8007916:	f200 80ad 	bhi.w	8007a74 <_dtoa_r+0x484>
 800791a:	2d00      	cmp	r5, #0
 800791c:	f000 80aa 	beq.w	8007a74 <_dtoa_r+0x484>
 8007920:	f1ba 0f00 	cmp.w	sl, #0
 8007924:	dd36      	ble.n	8007994 <_dtoa_r+0x3a4>
 8007926:	4ac3      	ldr	r2, [pc, #780]	; (8007c34 <_dtoa_r+0x644>)
 8007928:	f00a 030f 	and.w	r3, sl, #15
 800792c:	eb02 03c3 	add.w	r3, r2, r3, lsl #3
 8007930:	ed93 7b00 	vldr	d7, [r3]
 8007934:	f41a 7f80 	tst.w	sl, #256	; 0x100
 8007938:	ea4f 172a 	mov.w	r7, sl, asr #4
 800793c:	eeb0 8a47 	vmov.f32	s16, s14
 8007940:	eef0 8a67 	vmov.f32	s17, s15
 8007944:	d016      	beq.n	8007974 <_dtoa_r+0x384>
 8007946:	4bbc      	ldr	r3, [pc, #752]	; (8007c38 <_dtoa_r+0x648>)
 8007948:	e9dd 010a 	ldrd	r0, r1, [sp, #40]	; 0x28
 800794c:	e9d3 2308 	ldrd	r2, r3, [r3, #32]
 8007950:	f7f8 ff7c 	bl	800084c <__aeabi_ddiv>
 8007954:	e9cd 0102 	strd	r0, r1, [sp, #8]
 8007958:	f007 070f 	and.w	r7, r7, #15
 800795c:	2503      	movs	r5, #3
 800795e:	4eb6      	ldr	r6, [pc, #728]	; (8007c38 <_dtoa_r+0x648>)
 8007960:	b957      	cbnz	r7, 8007978 <_dtoa_r+0x388>
 8007962:	e9dd 0102 	ldrd	r0, r1, [sp, #8]
 8007966:	ec53 2b18 	vmov	r2, r3, d8
 800796a:	f7f8 ff6f 	bl	800084c <__aeabi_ddiv>
 800796e:	e9cd 0102 	strd	r0, r1, [sp, #8]
 8007972:	e029      	b.n	80079c8 <_dtoa_r+0x3d8>
 8007974:	2502      	movs	r5, #2
 8007976:	e7f2      	b.n	800795e <_dtoa_r+0x36e>
 8007978:	07f9      	lsls	r1, r7, #31
 800797a:	d508      	bpl.n	800798e <_dtoa_r+0x39e>
 800797c:	ec51 0b18 	vmov	r0, r1, d8
 8007980:	e9d6 2300 	ldrd	r2, r3, [r6]
 8007984:	f7f8 fe38 	bl	80005f8 <__aeabi_dmul>
 8007988:	ec41 0b18 	vmov	d8, r0, r1
 800798c:	3501      	adds	r5, #1
 800798e:	107f      	asrs	r7, r7, #1
 8007990:	3608      	adds	r6, #8
 8007992:	e7e5      	b.n	8007960 <_dtoa_r+0x370>
 8007994:	f000 80a6 	beq.w	8007ae4 <_dtoa_r+0x4f4>
 8007998:	f1ca 0600 	rsb	r6, sl, #0
 800799c:	4ba5      	ldr	r3, [pc, #660]	; (8007c34 <_dtoa_r+0x644>)
 800799e:	4fa6      	ldr	r7, [pc, #664]	; (8007c38 <_dtoa_r+0x648>)
 80079a0:	f006 020f 	and.w	r2, r6, #15
 80079a4:	eb03 03c2 	add.w	r3, r3, r2, lsl #3
 80079a8:	e9d3 2300 	ldrd	r2, r3, [r3]
 80079ac:	e9dd 010a 	ldrd	r0, r1, [sp, #40]	; 0x28
 80079b0:	f7f8 fe22 	bl	80005f8 <__aeabi_dmul>
 80079b4:	e9cd 0102 	strd	r0, r1, [sp, #8]
 80079b8:	1136      	asrs	r6, r6, #4
 80079ba:	2300      	movs	r3, #0
 80079bc:	2502      	movs	r5, #2
 80079be:	2e00      	cmp	r6, #0
 80079c0:	f040 8085 	bne.w	8007ace <_dtoa_r+0x4de>
 80079c4:	2b00      	cmp	r3, #0
 80079c6:	d1d2      	bne.n	800796e <_dtoa_r+0x37e>
 80079c8:	9b0e      	ldr	r3, [sp, #56]	; 0x38
 80079ca:	2b00      	cmp	r3, #0
 80079cc:	f000 808c 	beq.w	8007ae8 <_dtoa_r+0x4f8>
 80079d0:	e9dd 6702 	ldrd	r6, r7, [sp, #8]
 80079d4:	4b99      	ldr	r3, [pc, #612]	; (8007c3c <_dtoa_r+0x64c>)
 80079d6:	2200      	movs	r2, #0
 80079d8:	4630      	mov	r0, r6
 80079da:	4639      	mov	r1, r7
 80079dc:	f7f9 f87e 	bl	8000adc <__aeabi_dcmplt>
 80079e0:	2800      	cmp	r0, #0
 80079e2:	f000 8081 	beq.w	8007ae8 <_dtoa_r+0x4f8>
 80079e6:	9b01      	ldr	r3, [sp, #4]
 80079e8:	2b00      	cmp	r3, #0
 80079ea:	d07d      	beq.n	8007ae8 <_dtoa_r+0x4f8>
 80079ec:	f1b9 0f00 	cmp.w	r9, #0
 80079f0:	dd3c      	ble.n	8007a6c <_dtoa_r+0x47c>
 80079f2:	f10a 33ff 	add.w	r3, sl, #4294967295
 80079f6:	9307      	str	r3, [sp, #28]
 80079f8:	2200      	movs	r2, #0
 80079fa:	4b91      	ldr	r3, [pc, #580]	; (8007c40 <_dtoa_r+0x650>)
 80079fc:	4630      	mov	r0, r6
 80079fe:	4639      	mov	r1, r7
 8007a00:	f7f8 fdfa 	bl	80005f8 <__aeabi_dmul>
 8007a04:	e9cd 0102 	strd	r0, r1, [sp, #8]
 8007a08:	3501      	adds	r5, #1
 8007a0a:	f8cd 9030 	str.w	r9, [sp, #48]	; 0x30
 8007a0e:	e9dd 6702 	ldrd	r6, r7, [sp, #8]
 8007a12:	4628      	mov	r0, r5
 8007a14:	f7f8 fd86 	bl	8000524 <__aeabi_i2d>
 8007a18:	4632      	mov	r2, r6
 8007a1a:	463b      	mov	r3, r7
 8007a1c:	f7f8 fdec 	bl	80005f8 <__aeabi_dmul>
 8007a20:	4b88      	ldr	r3, [pc, #544]	; (8007c44 <_dtoa_r+0x654>)
 8007a22:	2200      	movs	r2, #0
 8007a24:	f7f8 fc32 	bl	800028c <__adddf3>
 8007a28:	f1a1 7350 	sub.w	r3, r1, #54525952	; 0x3400000
 8007a2c:	e9cd 0102 	strd	r0, r1, [sp, #8]
 8007a30:	9303      	str	r3, [sp, #12]
 8007a32:	9b0c      	ldr	r3, [sp, #48]	; 0x30
 8007a34:	2b00      	cmp	r3, #0
 8007a36:	d15c      	bne.n	8007af2 <_dtoa_r+0x502>
 8007a38:	4b83      	ldr	r3, [pc, #524]	; (8007c48 <_dtoa_r+0x658>)
 8007a3a:	2200      	movs	r2, #0
 8007a3c:	4630      	mov	r0, r6
 8007a3e:	4639      	mov	r1, r7
 8007a40:	f7f8 fc22 	bl	8000288 <__aeabi_dsub>
 8007a44:	e9dd 2302 	ldrd	r2, r3, [sp, #8]
 8007a48:	4606      	mov	r6, r0
 8007a4a:	460f      	mov	r7, r1
 8007a4c:	f7f9 f864 	bl	8000b18 <__aeabi_dcmpgt>
 8007a50:	2800      	cmp	r0, #0
 8007a52:	f040 8296 	bne.w	8007f82 <_dtoa_r+0x992>
 8007a56:	e9dd 2102 	ldrd	r2, r1, [sp, #8]
 8007a5a:	4630      	mov	r0, r6
 8007a5c:	f101 4300 	add.w	r3, r1, #2147483648	; 0x80000000
 8007a60:	4639      	mov	r1, r7
 8007a62:	f7f9 f83b 	bl	8000adc <__aeabi_dcmplt>
 8007a66:	2800      	cmp	r0, #0
 8007a68:	f040 8288 	bne.w	8007f7c <_dtoa_r+0x98c>
 8007a6c:	e9dd 230a 	ldrd	r2, r3, [sp, #40]	; 0x28
 8007a70:	e9cd 2302 	strd	r2, r3, [sp, #8]
 8007a74:	9b13      	ldr	r3, [sp, #76]	; 0x4c
 8007a76:	2b00      	cmp	r3, #0
 8007a78:	f2c0 8158 	blt.w	8007d2c <_dtoa_r+0x73c>
 8007a7c:	f1ba 0f0e 	cmp.w	sl, #14
 8007a80:	f300 8154 	bgt.w	8007d2c <_dtoa_r+0x73c>
 8007a84:	4b6b      	ldr	r3, [pc, #428]	; (8007c34 <_dtoa_r+0x644>)
 8007a86:	eb03 03ca 	add.w	r3, r3, sl, lsl #3
 8007a8a:	e9d3 8900 	ldrd	r8, r9, [r3]
 8007a8e:	9b09      	ldr	r3, [sp, #36]	; 0x24
 8007a90:	2b00      	cmp	r3, #0
 8007a92:	f280 80e3 	bge.w	8007c5c <_dtoa_r+0x66c>
 8007a96:	9b01      	ldr	r3, [sp, #4]
 8007a98:	2b00      	cmp	r3, #0
 8007a9a:	f300 80df 	bgt.w	8007c5c <_dtoa_r+0x66c>
 8007a9e:	f040 826d 	bne.w	8007f7c <_dtoa_r+0x98c>
 8007aa2:	4b69      	ldr	r3, [pc, #420]	; (8007c48 <_dtoa_r+0x658>)
 8007aa4:	2200      	movs	r2, #0
 8007aa6:	4640      	mov	r0, r8
 8007aa8:	4649      	mov	r1, r9
 8007aaa:	f7f8 fda5 	bl	80005f8 <__aeabi_dmul>
 8007aae:	e9dd 2302 	ldrd	r2, r3, [sp, #8]
 8007ab2:	f7f9 f827 	bl	8000b04 <__aeabi_dcmpge>
 8007ab6:	9e01      	ldr	r6, [sp, #4]
 8007ab8:	4637      	mov	r7, r6
 8007aba:	2800      	cmp	r0, #0
 8007abc:	f040 8243 	bne.w	8007f46 <_dtoa_r+0x956>
 8007ac0:	9d00      	ldr	r5, [sp, #0]
 8007ac2:	2331      	movs	r3, #49	; 0x31
 8007ac4:	f805 3b01 	strb.w	r3, [r5], #1
 8007ac8:	f10a 0a01 	add.w	sl, sl, #1
 8007acc:	e23f      	b.n	8007f4e <_dtoa_r+0x95e>
 8007ace:	07f2      	lsls	r2, r6, #31
 8007ad0:	d505      	bpl.n	8007ade <_dtoa_r+0x4ee>
 8007ad2:	e9d7 2300 	ldrd	r2, r3, [r7]
 8007ad6:	f7f8 fd8f 	bl	80005f8 <__aeabi_dmul>
 8007ada:	3501      	adds	r5, #1
 8007adc:	2301      	movs	r3, #1
 8007ade:	1076      	asrs	r6, r6, #1
 8007ae0:	3708      	adds	r7, #8
 8007ae2:	e76c      	b.n	80079be <_dtoa_r+0x3ce>
 8007ae4:	2502      	movs	r5, #2
 8007ae6:	e76f      	b.n	80079c8 <_dtoa_r+0x3d8>
 8007ae8:	9b01      	ldr	r3, [sp, #4]
 8007aea:	f8cd a01c 	str.w	sl, [sp, #28]
 8007aee:	930c      	str	r3, [sp, #48]	; 0x30
 8007af0:	e78d      	b.n	8007a0e <_dtoa_r+0x41e>
 8007af2:	9900      	ldr	r1, [sp, #0]
 8007af4:	980c      	ldr	r0, [sp, #48]	; 0x30
 8007af6:	9a0c      	ldr	r2, [sp, #48]	; 0x30
 8007af8:	4b4e      	ldr	r3, [pc, #312]	; (8007c34 <_dtoa_r+0x644>)
 8007afa:	ed9d 7b02 	vldr	d7, [sp, #8]
 8007afe:	4401      	add	r1, r0
 8007b00:	9102      	str	r1, [sp, #8]
 8007b02:	9908      	ldr	r1, [sp, #32]
 8007b04:	eeb0 8a47 	vmov.f32	s16, s14
 8007b08:	eef0 8a67 	vmov.f32	s17, s15
 8007b0c:	eb03 03c2 	add.w	r3, r3, r2, lsl #3
 8007b10:	e953 2302 	ldrd	r2, r3, [r3, #-8]
 8007b14:	2900      	cmp	r1, #0
 8007b16:	d045      	beq.n	8007ba4 <_dtoa_r+0x5b4>
 8007b18:	494c      	ldr	r1, [pc, #304]	; (8007c4c <_dtoa_r+0x65c>)
 8007b1a:	2000      	movs	r0, #0
 8007b1c:	f7f8 fe96 	bl	800084c <__aeabi_ddiv>
 8007b20:	ec53 2b18 	vmov	r2, r3, d8
 8007b24:	f7f8 fbb0 	bl	8000288 <__aeabi_dsub>
 8007b28:	9d00      	ldr	r5, [sp, #0]
 8007b2a:	ec41 0b18 	vmov	d8, r0, r1
 8007b2e:	4639      	mov	r1, r7
 8007b30:	4630      	mov	r0, r6
 8007b32:	f7f9 f811 	bl	8000b58 <__aeabi_d2iz>
 8007b36:	900c      	str	r0, [sp, #48]	; 0x30
 8007b38:	f7f8 fcf4 	bl	8000524 <__aeabi_i2d>
 8007b3c:	4602      	mov	r2, r0
 8007b3e:	460b      	mov	r3, r1
 8007b40:	4630      	mov	r0, r6
 8007b42:	4639      	mov	r1, r7
 8007b44:	f7f8 fba0 	bl	8000288 <__aeabi_dsub>
 8007b48:	9b0c      	ldr	r3, [sp, #48]	; 0x30
 8007b4a:	3330      	adds	r3, #48	; 0x30
 8007b4c:	f805 3b01 	strb.w	r3, [r5], #1
 8007b50:	ec53 2b18 	vmov	r2, r3, d8
 8007b54:	4606      	mov	r6, r0
 8007b56:	460f      	mov	r7, r1
 8007b58:	f7f8 ffc0 	bl	8000adc <__aeabi_dcmplt>
 8007b5c:	2800      	cmp	r0, #0
 8007b5e:	d165      	bne.n	8007c2c <_dtoa_r+0x63c>
 8007b60:	4632      	mov	r2, r6
 8007b62:	463b      	mov	r3, r7
 8007b64:	4935      	ldr	r1, [pc, #212]	; (8007c3c <_dtoa_r+0x64c>)
 8007b66:	2000      	movs	r0, #0
 8007b68:	f7f8 fb8e 	bl	8000288 <__aeabi_dsub>
 8007b6c:	ec53 2b18 	vmov	r2, r3, d8
 8007b70:	f7f8 ffb4 	bl	8000adc <__aeabi_dcmplt>
 8007b74:	2800      	cmp	r0, #0
 8007b76:	f040 80b9 	bne.w	8007cec <_dtoa_r+0x6fc>
 8007b7a:	9b02      	ldr	r3, [sp, #8]
 8007b7c:	429d      	cmp	r5, r3
 8007b7e:	f43f af75 	beq.w	8007a6c <_dtoa_r+0x47c>
 8007b82:	4b2f      	ldr	r3, [pc, #188]	; (8007c40 <_dtoa_r+0x650>)
 8007b84:	ec51 0b18 	vmov	r0, r1, d8
 8007b88:	2200      	movs	r2, #0
 8007b8a:	f7f8 fd35 	bl	80005f8 <__aeabi_dmul>
 8007b8e:	4b2c      	ldr	r3, [pc, #176]	; (8007c40 <_dtoa_r+0x650>)
 8007b90:	ec41 0b18 	vmov	d8, r0, r1
 8007b94:	2200      	movs	r2, #0
 8007b96:	4630      	mov	r0, r6
 8007b98:	4639      	mov	r1, r7
 8007b9a:	f7f8 fd2d 	bl	80005f8 <__aeabi_dmul>
 8007b9e:	4606      	mov	r6, r0
 8007ba0:	460f      	mov	r7, r1
 8007ba2:	e7c4      	b.n	8007b2e <_dtoa_r+0x53e>
 8007ba4:	ec51 0b17 	vmov	r0, r1, d7
 8007ba8:	f7f8 fd26 	bl	80005f8 <__aeabi_dmul>
 8007bac:	9b02      	ldr	r3, [sp, #8]
 8007bae:	9d00      	ldr	r5, [sp, #0]
 8007bb0:	930c      	str	r3, [sp, #48]	; 0x30
 8007bb2:	ec41 0b18 	vmov	d8, r0, r1
 8007bb6:	4639      	mov	r1, r7
 8007bb8:	4630      	mov	r0, r6
 8007bba:	f7f8 ffcd 	bl	8000b58 <__aeabi_d2iz>
 8007bbe:	9011      	str	r0, [sp, #68]	; 0x44
 8007bc0:	f7f8 fcb0 	bl	8000524 <__aeabi_i2d>
 8007bc4:	4602      	mov	r2, r0
 8007bc6:	460b      	mov	r3, r1
 8007bc8:	4630      	mov	r0, r6
 8007bca:	4639      	mov	r1, r7
 8007bcc:	f7f8 fb5c 	bl	8000288 <__aeabi_dsub>
 8007bd0:	9b11      	ldr	r3, [sp, #68]	; 0x44
 8007bd2:	3330      	adds	r3, #48	; 0x30
 8007bd4:	f805 3b01 	strb.w	r3, [r5], #1
 8007bd8:	9b02      	ldr	r3, [sp, #8]
 8007bda:	429d      	cmp	r5, r3
 8007bdc:	4606      	mov	r6, r0
 8007bde:	460f      	mov	r7, r1
 8007be0:	f04f 0200 	mov.w	r2, #0
 8007be4:	d134      	bne.n	8007c50 <_dtoa_r+0x660>
 8007be6:	4b19      	ldr	r3, [pc, #100]	; (8007c4c <_dtoa_r+0x65c>)
 8007be8:	ec51 0b18 	vmov	r0, r1, d8
 8007bec:	f7f8 fb4e 	bl	800028c <__adddf3>
 8007bf0:	4602      	mov	r2, r0
 8007bf2:	460b      	mov	r3, r1
 8007bf4:	4630      	mov	r0, r6
 8007bf6:	4639      	mov	r1, r7
 8007bf8:	f7f8 ff8e 	bl	8000b18 <__aeabi_dcmpgt>
 8007bfc:	2800      	cmp	r0, #0
 8007bfe:	d175      	bne.n	8007cec <_dtoa_r+0x6fc>
 8007c00:	ec53 2b18 	vmov	r2, r3, d8
 8007c04:	4911      	ldr	r1, [pc, #68]	; (8007c4c <_dtoa_r+0x65c>)
 8007c06:	2000      	movs	r0, #0
 8007c08:	f7f8 fb3e 	bl	8000288 <__aeabi_dsub>
 8007c0c:	4602      	mov	r2, r0
 8007c0e:	460b      	mov	r3, r1
 8007c10:	4630      	mov	r0, r6
 8007c12:	4639      	mov	r1, r7
 8007c14:	f7f8 ff62 	bl	8000adc <__aeabi_dcmplt>
 8007c18:	2800      	cmp	r0, #0
 8007c1a:	f43f af27 	beq.w	8007a6c <_dtoa_r+0x47c>
 8007c1e:	9d0c      	ldr	r5, [sp, #48]	; 0x30
 8007c20:	1e6b      	subs	r3, r5, #1
 8007c22:	930c      	str	r3, [sp, #48]	; 0x30
 8007c24:	f815 3c01 	ldrb.w	r3, [r5, #-1]
 8007c28:	2b30      	cmp	r3, #48	; 0x30
 8007c2a:	d0f8      	beq.n	8007c1e <_dtoa_r+0x62e>
 8007c2c:	f8dd a01c 	ldr.w	sl, [sp, #28]
 8007c30:	e04a      	b.n	8007cc8 <_dtoa_r+0x6d8>
 8007c32:	bf00      	nop
 8007c34:	0800b4d8 	.word	0x0800b4d8
 8007c38:	0800b4b0 	.word	0x0800b4b0
 8007c3c:	3ff00000 	.word	0x3ff00000
 8007c40:	40240000 	.word	0x40240000
 8007c44:	401c0000 	.word	0x401c0000
 8007c48:	40140000 	.word	0x40140000
 8007c4c:	3fe00000 	.word	0x3fe00000
 8007c50:	4baf      	ldr	r3, [pc, #700]	; (8007f10 <_dtoa_r+0x920>)
 8007c52:	f7f8 fcd1 	bl	80005f8 <__aeabi_dmul>
 8007c56:	4606      	mov	r6, r0
 8007c58:	460f      	mov	r7, r1
 8007c5a:	e7ac      	b.n	8007bb6 <_dtoa_r+0x5c6>
 8007c5c:	e9dd 6702 	ldrd	r6, r7, [sp, #8]
 8007c60:	9d00      	ldr	r5, [sp, #0]
 8007c62:	4642      	mov	r2, r8
 8007c64:	464b      	mov	r3, r9
 8007c66:	4630      	mov	r0, r6
 8007c68:	4639      	mov	r1, r7
 8007c6a:	f7f8 fdef 	bl	800084c <__aeabi_ddiv>
 8007c6e:	f7f8 ff73 	bl	8000b58 <__aeabi_d2iz>
 8007c72:	9002      	str	r0, [sp, #8]
 8007c74:	f7f8 fc56 	bl	8000524 <__aeabi_i2d>
 8007c78:	4642      	mov	r2, r8
 8007c7a:	464b      	mov	r3, r9
 8007c7c:	f7f8 fcbc 	bl	80005f8 <__aeabi_dmul>
 8007c80:	4602      	mov	r2, r0
 8007c82:	460b      	mov	r3, r1
 8007c84:	4630      	mov	r0, r6
 8007c86:	4639      	mov	r1, r7
 8007c88:	f7f8 fafe 	bl	8000288 <__aeabi_dsub>
 8007c8c:	9e02      	ldr	r6, [sp, #8]
 8007c8e:	9f01      	ldr	r7, [sp, #4]
 8007c90:	3630      	adds	r6, #48	; 0x30
 8007c92:	f805 6b01 	strb.w	r6, [r5], #1
 8007c96:	9e00      	ldr	r6, [sp, #0]
 8007c98:	1bae      	subs	r6, r5, r6
 8007c9a:	42b7      	cmp	r7, r6
 8007c9c:	4602      	mov	r2, r0
 8007c9e:	460b      	mov	r3, r1
 8007ca0:	d137      	bne.n	8007d12 <_dtoa_r+0x722>
 8007ca2:	f7f8 faf3 	bl	800028c <__adddf3>
 8007ca6:	4642      	mov	r2, r8
 8007ca8:	464b      	mov	r3, r9
 8007caa:	4606      	mov	r6, r0
 8007cac:	460f      	mov	r7, r1
 8007cae:	f7f8 ff33 	bl	8000b18 <__aeabi_dcmpgt>
 8007cb2:	b9c8      	cbnz	r0, 8007ce8 <_dtoa_r+0x6f8>
 8007cb4:	4642      	mov	r2, r8
 8007cb6:	464b      	mov	r3, r9
 8007cb8:	4630      	mov	r0, r6
 8007cba:	4639      	mov	r1, r7
 8007cbc:	f7f8 ff04 	bl	8000ac8 <__aeabi_dcmpeq>
 8007cc0:	b110      	cbz	r0, 8007cc8 <_dtoa_r+0x6d8>
 8007cc2:	9b02      	ldr	r3, [sp, #8]
 8007cc4:	07d9      	lsls	r1, r3, #31
 8007cc6:	d40f      	bmi.n	8007ce8 <_dtoa_r+0x6f8>
 8007cc8:	4620      	mov	r0, r4
 8007cca:	4659      	mov	r1, fp
 8007ccc:	f001 f876 	bl	8008dbc <_Bfree>
 8007cd0:	2300      	movs	r3, #0
 8007cd2:	702b      	strb	r3, [r5, #0]
 8007cd4:	9b0f      	ldr	r3, [sp, #60]	; 0x3c
 8007cd6:	f10a 0001 	add.w	r0, sl, #1
 8007cda:	6018      	str	r0, [r3, #0]
 8007cdc:	9b21      	ldr	r3, [sp, #132]	; 0x84
 8007cde:	2b00      	cmp	r3, #0
 8007ce0:	f43f acd8 	beq.w	8007694 <_dtoa_r+0xa4>
 8007ce4:	601d      	str	r5, [r3, #0]
 8007ce6:	e4d5      	b.n	8007694 <_dtoa_r+0xa4>
 8007ce8:	f8cd a01c 	str.w	sl, [sp, #28]
 8007cec:	462b      	mov	r3, r5
 8007cee:	461d      	mov	r5, r3
 8007cf0:	f813 2d01 	ldrb.w	r2, [r3, #-1]!
 8007cf4:	2a39      	cmp	r2, #57	; 0x39
 8007cf6:	d108      	bne.n	8007d0a <_dtoa_r+0x71a>
 8007cf8:	9a00      	ldr	r2, [sp, #0]
 8007cfa:	429a      	cmp	r2, r3
 8007cfc:	d1f7      	bne.n	8007cee <_dtoa_r+0x6fe>
 8007cfe:	9a07      	ldr	r2, [sp, #28]
 8007d00:	9900      	ldr	r1, [sp, #0]
 8007d02:	3201      	adds	r2, #1
 8007d04:	9207      	str	r2, [sp, #28]
 8007d06:	2230      	movs	r2, #48	; 0x30
 8007d08:	700a      	strb	r2, [r1, #0]
 8007d0a:	781a      	ldrb	r2, [r3, #0]
 8007d0c:	3201      	adds	r2, #1
 8007d0e:	701a      	strb	r2, [r3, #0]
 8007d10:	e78c      	b.n	8007c2c <_dtoa_r+0x63c>
 8007d12:	4b7f      	ldr	r3, [pc, #508]	; (8007f10 <_dtoa_r+0x920>)
 8007d14:	2200      	movs	r2, #0
 8007d16:	f7f8 fc6f 	bl	80005f8 <__aeabi_dmul>
 8007d1a:	2200      	movs	r2, #0
 8007d1c:	2300      	movs	r3, #0
 8007d1e:	4606      	mov	r6, r0
 8007d20:	460f      	mov	r7, r1
 8007d22:	f7f8 fed1 	bl	8000ac8 <__aeabi_dcmpeq>
 8007d26:	2800      	cmp	r0, #0
 8007d28:	d09b      	beq.n	8007c62 <_dtoa_r+0x672>
 8007d2a:	e7cd      	b.n	8007cc8 <_dtoa_r+0x6d8>
 8007d2c:	9a08      	ldr	r2, [sp, #32]
 8007d2e:	2a00      	cmp	r2, #0
 8007d30:	f000 80c4 	beq.w	8007ebc <_dtoa_r+0x8cc>
 8007d34:	9a05      	ldr	r2, [sp, #20]
 8007d36:	2a01      	cmp	r2, #1
 8007d38:	f300 80a8 	bgt.w	8007e8c <_dtoa_r+0x89c>
 8007d3c:	9a10      	ldr	r2, [sp, #64]	; 0x40
 8007d3e:	2a00      	cmp	r2, #0
 8007d40:	f000 80a0 	beq.w	8007e84 <_dtoa_r+0x894>
 8007d44:	f203 4333 	addw	r3, r3, #1075	; 0x433
 8007d48:	9e06      	ldr	r6, [sp, #24]
 8007d4a:	4645      	mov	r5, r8
 8007d4c:	9a04      	ldr	r2, [sp, #16]
 8007d4e:	2101      	movs	r1, #1
 8007d50:	441a      	add	r2, r3
 8007d52:	4620      	mov	r0, r4
 8007d54:	4498      	add	r8, r3
 8007d56:	9204      	str	r2, [sp, #16]
 8007d58:	f001 f936 	bl	8008fc8 <__i2b>
 8007d5c:	4607      	mov	r7, r0
 8007d5e:	2d00      	cmp	r5, #0
 8007d60:	dd0b      	ble.n	8007d7a <_dtoa_r+0x78a>
 8007d62:	9b04      	ldr	r3, [sp, #16]
 8007d64:	2b00      	cmp	r3, #0
 8007d66:	dd08      	ble.n	8007d7a <_dtoa_r+0x78a>
 8007d68:	42ab      	cmp	r3, r5
 8007d6a:	9a04      	ldr	r2, [sp, #16]
 8007d6c:	bfa8      	it	ge
 8007d6e:	462b      	movge	r3, r5
 8007d70:	eba8 0803 	sub.w	r8, r8, r3
 8007d74:	1aed      	subs	r5, r5, r3
 8007d76:	1ad3      	subs	r3, r2, r3
 8007d78:	9304      	str	r3, [sp, #16]
 8007d7a:	9b06      	ldr	r3, [sp, #24]
 8007d7c:	b1fb      	cbz	r3, 8007dbe <_dtoa_r+0x7ce>
 8007d7e:	9b08      	ldr	r3, [sp, #32]
 8007d80:	2b00      	cmp	r3, #0
 8007d82:	f000 809f 	beq.w	8007ec4 <_dtoa_r+0x8d4>
 8007d86:	2e00      	cmp	r6, #0
 8007d88:	dd11      	ble.n	8007dae <_dtoa_r+0x7be>
 8007d8a:	4639      	mov	r1, r7
 8007d8c:	4632      	mov	r2, r6
 8007d8e:	4620      	mov	r0, r4
 8007d90:	f001 f9d6 	bl	8009140 <__pow5mult>
 8007d94:	465a      	mov	r2, fp
 8007d96:	4601      	mov	r1, r0
 8007d98:	4607      	mov	r7, r0
 8007d9a:	4620      	mov	r0, r4
 8007d9c:	f001 f92a 	bl	8008ff4 <__multiply>
 8007da0:	4659      	mov	r1, fp
 8007da2:	9007      	str	r0, [sp, #28]
 8007da4:	4620      	mov	r0, r4
 8007da6:	f001 f809 	bl	8008dbc <_Bfree>
 8007daa:	9b07      	ldr	r3, [sp, #28]
 8007dac:	469b      	mov	fp, r3
 8007dae:	9b06      	ldr	r3, [sp, #24]
 8007db0:	1b9a      	subs	r2, r3, r6
 8007db2:	d004      	beq.n	8007dbe <_dtoa_r+0x7ce>
 8007db4:	4659      	mov	r1, fp
 8007db6:	4620      	mov	r0, r4
 8007db8:	f001 f9c2 	bl	8009140 <__pow5mult>
 8007dbc:	4683      	mov	fp, r0
 8007dbe:	2101      	movs	r1, #1
 8007dc0:	4620      	mov	r0, r4
 8007dc2:	f001 f901 	bl	8008fc8 <__i2b>
 8007dc6:	9b0d      	ldr	r3, [sp, #52]	; 0x34
 8007dc8:	2b00      	cmp	r3, #0
 8007dca:	4606      	mov	r6, r0
 8007dcc:	dd7c      	ble.n	8007ec8 <_dtoa_r+0x8d8>
 8007dce:	461a      	mov	r2, r3
 8007dd0:	4601      	mov	r1, r0
 8007dd2:	4620      	mov	r0, r4
 8007dd4:	f001 f9b4 	bl	8009140 <__pow5mult>
 8007dd8:	9b05      	ldr	r3, [sp, #20]
 8007dda:	2b01      	cmp	r3, #1
 8007ddc:	4606      	mov	r6, r0
 8007dde:	dd76      	ble.n	8007ece <_dtoa_r+0x8de>
 8007de0:	2300      	movs	r3, #0
 8007de2:	9306      	str	r3, [sp, #24]
 8007de4:	6933      	ldr	r3, [r6, #16]
 8007de6:	eb06 0383 	add.w	r3, r6, r3, lsl #2
 8007dea:	6918      	ldr	r0, [r3, #16]
 8007dec:	f001 f89c 	bl	8008f28 <__hi0bits>
 8007df0:	f1c0 0020 	rsb	r0, r0, #32
 8007df4:	9b04      	ldr	r3, [sp, #16]
 8007df6:	4418      	add	r0, r3
 8007df8:	f010 001f 	ands.w	r0, r0, #31
 8007dfc:	f000 8086 	beq.w	8007f0c <_dtoa_r+0x91c>
 8007e00:	f1c0 0320 	rsb	r3, r0, #32
 8007e04:	2b04      	cmp	r3, #4
 8007e06:	dd7f      	ble.n	8007f08 <_dtoa_r+0x918>
 8007e08:	f1c0 001c 	rsb	r0, r0, #28
 8007e0c:	9b04      	ldr	r3, [sp, #16]
 8007e0e:	4403      	add	r3, r0
 8007e10:	4480      	add	r8, r0
 8007e12:	4405      	add	r5, r0
 8007e14:	9304      	str	r3, [sp, #16]
 8007e16:	f1b8 0f00 	cmp.w	r8, #0
 8007e1a:	dd05      	ble.n	8007e28 <_dtoa_r+0x838>
 8007e1c:	4659      	mov	r1, fp
 8007e1e:	4642      	mov	r2, r8
 8007e20:	4620      	mov	r0, r4
 8007e22:	f001 f9e7 	bl	80091f4 <__lshift>
 8007e26:	4683      	mov	fp, r0
 8007e28:	9b04      	ldr	r3, [sp, #16]
 8007e2a:	2b00      	cmp	r3, #0
 8007e2c:	dd05      	ble.n	8007e3a <_dtoa_r+0x84a>
 8007e2e:	4631      	mov	r1, r6
 8007e30:	461a      	mov	r2, r3
 8007e32:	4620      	mov	r0, r4
 8007e34:	f001 f9de 	bl	80091f4 <__lshift>
 8007e38:	4606      	mov	r6, r0
 8007e3a:	9b0e      	ldr	r3, [sp, #56]	; 0x38
 8007e3c:	2b00      	cmp	r3, #0
 8007e3e:	d069      	beq.n	8007f14 <_dtoa_r+0x924>
 8007e40:	4631      	mov	r1, r6
 8007e42:	4658      	mov	r0, fp
 8007e44:	f001 fa42 	bl	80092cc <__mcmp>
 8007e48:	2800      	cmp	r0, #0
 8007e4a:	da63      	bge.n	8007f14 <_dtoa_r+0x924>
 8007e4c:	2300      	movs	r3, #0
 8007e4e:	4659      	mov	r1, fp
 8007e50:	220a      	movs	r2, #10
 8007e52:	4620      	mov	r0, r4
 8007e54:	f000 ffd4 	bl	8008e00 <__multadd>
 8007e58:	9b08      	ldr	r3, [sp, #32]
 8007e5a:	f10a 3aff 	add.w	sl, sl, #4294967295
 8007e5e:	4683      	mov	fp, r0
 8007e60:	2b00      	cmp	r3, #0
 8007e62:	f000 818f 	beq.w	8008184 <_dtoa_r+0xb94>
 8007e66:	4639      	mov	r1, r7
 8007e68:	2300      	movs	r3, #0
 8007e6a:	220a      	movs	r2, #10
 8007e6c:	4620      	mov	r0, r4
 8007e6e:	f000 ffc7 	bl	8008e00 <__multadd>
 8007e72:	f1b9 0f00 	cmp.w	r9, #0
 8007e76:	4607      	mov	r7, r0
 8007e78:	f300 808e 	bgt.w	8007f98 <_dtoa_r+0x9a8>
 8007e7c:	9b05      	ldr	r3, [sp, #20]
 8007e7e:	2b02      	cmp	r3, #2
 8007e80:	dc50      	bgt.n	8007f24 <_dtoa_r+0x934>
 8007e82:	e089      	b.n	8007f98 <_dtoa_r+0x9a8>
 8007e84:	9b12      	ldr	r3, [sp, #72]	; 0x48
 8007e86:	f1c3 0336 	rsb	r3, r3, #54	; 0x36
 8007e8a:	e75d      	b.n	8007d48 <_dtoa_r+0x758>
 8007e8c:	9b01      	ldr	r3, [sp, #4]
 8007e8e:	1e5e      	subs	r6, r3, #1
 8007e90:	9b06      	ldr	r3, [sp, #24]
 8007e92:	42b3      	cmp	r3, r6
 8007e94:	bfbf      	itttt	lt
 8007e96:	9b06      	ldrlt	r3, [sp, #24]
 8007e98:	9606      	strlt	r6, [sp, #24]
 8007e9a:	1af2      	sublt	r2, r6, r3
 8007e9c:	9b0d      	ldrlt	r3, [sp, #52]	; 0x34
 8007e9e:	bfb6      	itet	lt
 8007ea0:	189b      	addlt	r3, r3, r2
 8007ea2:	1b9e      	subge	r6, r3, r6
 8007ea4:	930d      	strlt	r3, [sp, #52]	; 0x34
 8007ea6:	9b01      	ldr	r3, [sp, #4]
 8007ea8:	bfb8      	it	lt
 8007eaa:	2600      	movlt	r6, #0
 8007eac:	2b00      	cmp	r3, #0
 8007eae:	bfb5      	itete	lt
 8007eb0:	eba8 0503 	sublt.w	r5, r8, r3
 8007eb4:	9b01      	ldrge	r3, [sp, #4]
 8007eb6:	2300      	movlt	r3, #0
 8007eb8:	4645      	movge	r5, r8
 8007eba:	e747      	b.n	8007d4c <_dtoa_r+0x75c>
 8007ebc:	9e06      	ldr	r6, [sp, #24]
 8007ebe:	9f08      	ldr	r7, [sp, #32]
 8007ec0:	4645      	mov	r5, r8
 8007ec2:	e74c      	b.n	8007d5e <_dtoa_r+0x76e>
 8007ec4:	9a06      	ldr	r2, [sp, #24]
 8007ec6:	e775      	b.n	8007db4 <_dtoa_r+0x7c4>
 8007ec8:	9b05      	ldr	r3, [sp, #20]
 8007eca:	2b01      	cmp	r3, #1
 8007ecc:	dc18      	bgt.n	8007f00 <_dtoa_r+0x910>
 8007ece:	9b02      	ldr	r3, [sp, #8]
 8007ed0:	b9b3      	cbnz	r3, 8007f00 <_dtoa_r+0x910>
 8007ed2:	9b03      	ldr	r3, [sp, #12]
 8007ed4:	f3c3 0313 	ubfx	r3, r3, #0, #20
 8007ed8:	b9a3      	cbnz	r3, 8007f04 <_dtoa_r+0x914>
 8007eda:	9b03      	ldr	r3, [sp, #12]
 8007edc:	f023 4300 	bic.w	r3, r3, #2147483648	; 0x80000000
 8007ee0:	0d1b      	lsrs	r3, r3, #20
 8007ee2:	051b      	lsls	r3, r3, #20
 8007ee4:	b12b      	cbz	r3, 8007ef2 <_dtoa_r+0x902>
 8007ee6:	9b04      	ldr	r3, [sp, #16]
 8007ee8:	3301      	adds	r3, #1
 8007eea:	9304      	str	r3, [sp, #16]
 8007eec:	f108 0801 	add.w	r8, r8, #1
 8007ef0:	2301      	movs	r3, #1
 8007ef2:	9306      	str	r3, [sp, #24]
 8007ef4:	9b0d      	ldr	r3, [sp, #52]	; 0x34
 8007ef6:	2b00      	cmp	r3, #0
 8007ef8:	f47f af74 	bne.w	8007de4 <_dtoa_r+0x7f4>
 8007efc:	2001      	movs	r0, #1
 8007efe:	e779      	b.n	8007df4 <_dtoa_r+0x804>
 8007f00:	2300      	movs	r3, #0
 8007f02:	e7f6      	b.n	8007ef2 <_dtoa_r+0x902>
 8007f04:	9b02      	ldr	r3, [sp, #8]
 8007f06:	e7f4      	b.n	8007ef2 <_dtoa_r+0x902>
 8007f08:	d085      	beq.n	8007e16 <_dtoa_r+0x826>
 8007f0a:	4618      	mov	r0, r3
 8007f0c:	301c      	adds	r0, #28
 8007f0e:	e77d      	b.n	8007e0c <_dtoa_r+0x81c>
 8007f10:	40240000 	.word	0x40240000
 8007f14:	9b01      	ldr	r3, [sp, #4]
 8007f16:	2b00      	cmp	r3, #0
 8007f18:	dc38      	bgt.n	8007f8c <_dtoa_r+0x99c>
 8007f1a:	9b05      	ldr	r3, [sp, #20]
 8007f1c:	2b02      	cmp	r3, #2
 8007f1e:	dd35      	ble.n	8007f8c <_dtoa_r+0x99c>
 8007f20:	f8dd 9004 	ldr.w	r9, [sp, #4]
 8007f24:	f1b9 0f00 	cmp.w	r9, #0
 8007f28:	d10d      	bne.n	8007f46 <_dtoa_r+0x956>
 8007f2a:	4631      	mov	r1, r6
 8007f2c:	464b      	mov	r3, r9
 8007f2e:	2205      	movs	r2, #5
 8007f30:	4620      	mov	r0, r4
 8007f32:	f000 ff65 	bl	8008e00 <__multadd>
 8007f36:	4601      	mov	r1, r0
 8007f38:	4606      	mov	r6, r0
 8007f3a:	4658      	mov	r0, fp
 8007f3c:	f001 f9c6 	bl	80092cc <__mcmp>
 8007f40:	2800      	cmp	r0, #0
 8007f42:	f73f adbd 	bgt.w	8007ac0 <_dtoa_r+0x4d0>
 8007f46:	9b09      	ldr	r3, [sp, #36]	; 0x24
 8007f48:	9d00      	ldr	r5, [sp, #0]
 8007f4a:	ea6f 0a03 	mvn.w	sl, r3
 8007f4e:	f04f 0800 	mov.w	r8, #0
 8007f52:	4631      	mov	r1, r6
 8007f54:	4620      	mov	r0, r4
 8007f56:	f000 ff31 	bl	8008dbc <_Bfree>
 8007f5a:	2f00      	cmp	r7, #0
 8007f5c:	f43f aeb4 	beq.w	8007cc8 <_dtoa_r+0x6d8>
 8007f60:	f1b8 0f00 	cmp.w	r8, #0
 8007f64:	d005      	beq.n	8007f72 <_dtoa_r+0x982>
 8007f66:	45b8      	cmp	r8, r7
 8007f68:	d003      	beq.n	8007f72 <_dtoa_r+0x982>
 8007f6a:	4641      	mov	r1, r8
 8007f6c:	4620      	mov	r0, r4
 8007f6e:	f000 ff25 	bl	8008dbc <_Bfree>
 8007f72:	4639      	mov	r1, r7
 8007f74:	4620      	mov	r0, r4
 8007f76:	f000 ff21 	bl	8008dbc <_Bfree>
 8007f7a:	e6a5      	b.n	8007cc8 <_dtoa_r+0x6d8>
 8007f7c:	2600      	movs	r6, #0
 8007f7e:	4637      	mov	r7, r6
 8007f80:	e7e1      	b.n	8007f46 <_dtoa_r+0x956>
 8007f82:	9e0c      	ldr	r6, [sp, #48]	; 0x30
 8007f84:	f8dd a01c 	ldr.w	sl, [sp, #28]
 8007f88:	4637      	mov	r7, r6
 8007f8a:	e599      	b.n	8007ac0 <_dtoa_r+0x4d0>
 8007f8c:	9b08      	ldr	r3, [sp, #32]
 8007f8e:	f8dd 9004 	ldr.w	r9, [sp, #4]
 8007f92:	2b00      	cmp	r3, #0
 8007f94:	f000 80fd 	beq.w	8008192 <_dtoa_r+0xba2>
 8007f98:	2d00      	cmp	r5, #0
 8007f9a:	dd05      	ble.n	8007fa8 <_dtoa_r+0x9b8>
 8007f9c:	4639      	mov	r1, r7
 8007f9e:	462a      	mov	r2, r5
 8007fa0:	4620      	mov	r0, r4
 8007fa2:	f001 f927 	bl	80091f4 <__lshift>
 8007fa6:	4607      	mov	r7, r0
 8007fa8:	9b06      	ldr	r3, [sp, #24]
 8007faa:	2b00      	cmp	r3, #0
 8007fac:	d05c      	beq.n	8008068 <_dtoa_r+0xa78>
 8007fae:	6879      	ldr	r1, [r7, #4]
 8007fb0:	4620      	mov	r0, r4
 8007fb2:	f000 fec3 	bl	8008d3c <_Balloc>
 8007fb6:	4605      	mov	r5, r0
 8007fb8:	b928      	cbnz	r0, 8007fc6 <_dtoa_r+0x9d6>
 8007fba:	4b80      	ldr	r3, [pc, #512]	; (80081bc <_dtoa_r+0xbcc>)
 8007fbc:	4602      	mov	r2, r0
 8007fbe:	f240 21ea 	movw	r1, #746	; 0x2ea
 8007fc2:	f7ff bb2e 	b.w	8007622 <_dtoa_r+0x32>
 8007fc6:	693a      	ldr	r2, [r7, #16]
 8007fc8:	3202      	adds	r2, #2
 8007fca:	0092      	lsls	r2, r2, #2
 8007fcc:	f107 010c 	add.w	r1, r7, #12
 8007fd0:	300c      	adds	r0, #12
 8007fd2:	f000 fea5 	bl	8008d20 <memcpy>
 8007fd6:	2201      	movs	r2, #1
 8007fd8:	4629      	mov	r1, r5
 8007fda:	4620      	mov	r0, r4
 8007fdc:	f001 f90a 	bl	80091f4 <__lshift>
 8007fe0:	9b00      	ldr	r3, [sp, #0]
 8007fe2:	3301      	adds	r3, #1
 8007fe4:	9301      	str	r3, [sp, #4]
 8007fe6:	9b00      	ldr	r3, [sp, #0]
 8007fe8:	444b      	add	r3, r9
 8007fea:	9307      	str	r3, [sp, #28]
 8007fec:	9b02      	ldr	r3, [sp, #8]
 8007fee:	f003 0301 	and.w	r3, r3, #1
 8007ff2:	46b8      	mov	r8, r7
 8007ff4:	9306      	str	r3, [sp, #24]
 8007ff6:	4607      	mov	r7, r0
 8007ff8:	9b01      	ldr	r3, [sp, #4]
 8007ffa:	4631      	mov	r1, r6
 8007ffc:	3b01      	subs	r3, #1
 8007ffe:	4658      	mov	r0, fp
 8008000:	9302      	str	r3, [sp, #8]
 8008002:	f7ff fa67 	bl	80074d4 <quorem>
 8008006:	4603      	mov	r3, r0
 8008008:	3330      	adds	r3, #48	; 0x30
 800800a:	9004      	str	r0, [sp, #16]
 800800c:	4641      	mov	r1, r8
 800800e:	4658      	mov	r0, fp
 8008010:	9308      	str	r3, [sp, #32]
 8008012:	f001 f95b 	bl	80092cc <__mcmp>
 8008016:	463a      	mov	r2, r7
 8008018:	4681      	mov	r9, r0
 800801a:	4631      	mov	r1, r6
 800801c:	4620      	mov	r0, r4
 800801e:	f001 f971 	bl	8009304 <__mdiff>
 8008022:	68c2      	ldr	r2, [r0, #12]
 8008024:	9b08      	ldr	r3, [sp, #32]
 8008026:	4605      	mov	r5, r0
 8008028:	bb02      	cbnz	r2, 800806c <_dtoa_r+0xa7c>
 800802a:	4601      	mov	r1, r0
 800802c:	4658      	mov	r0, fp
 800802e:	f001 f94d 	bl	80092cc <__mcmp>
 8008032:	9b08      	ldr	r3, [sp, #32]
 8008034:	4602      	mov	r2, r0
 8008036:	4629      	mov	r1, r5
 8008038:	4620      	mov	r0, r4
 800803a:	e9cd 3208 	strd	r3, r2, [sp, #32]
 800803e:	f000 febd 	bl	8008dbc <_Bfree>
 8008042:	9b05      	ldr	r3, [sp, #20]
 8008044:	9a09      	ldr	r2, [sp, #36]	; 0x24
 8008046:	9d01      	ldr	r5, [sp, #4]
 8008048:	ea43 0102 	orr.w	r1, r3, r2
 800804c:	9b06      	ldr	r3, [sp, #24]
 800804e:	430b      	orrs	r3, r1
 8008050:	9b08      	ldr	r3, [sp, #32]
 8008052:	d10d      	bne.n	8008070 <_dtoa_r+0xa80>
 8008054:	2b39      	cmp	r3, #57	; 0x39
 8008056:	d029      	beq.n	80080ac <_dtoa_r+0xabc>
 8008058:	f1b9 0f00 	cmp.w	r9, #0
 800805c:	dd01      	ble.n	8008062 <_dtoa_r+0xa72>
 800805e:	9b04      	ldr	r3, [sp, #16]
 8008060:	3331      	adds	r3, #49	; 0x31
 8008062:	9a02      	ldr	r2, [sp, #8]
 8008064:	7013      	strb	r3, [r2, #0]
 8008066:	e774      	b.n	8007f52 <_dtoa_r+0x962>
 8008068:	4638      	mov	r0, r7
 800806a:	e7b9      	b.n	8007fe0 <_dtoa_r+0x9f0>
 800806c:	2201      	movs	r2, #1
 800806e:	e7e2      	b.n	8008036 <_dtoa_r+0xa46>
 8008070:	f1b9 0f00 	cmp.w	r9, #0
 8008074:	db06      	blt.n	8008084 <_dtoa_r+0xa94>
 8008076:	9905      	ldr	r1, [sp, #20]
 8008078:	ea41 0909 	orr.w	r9, r1, r9
 800807c:	9906      	ldr	r1, [sp, #24]
 800807e:	ea59 0101 	orrs.w	r1, r9, r1
 8008082:	d120      	bne.n	80080c6 <_dtoa_r+0xad6>
 8008084:	2a00      	cmp	r2, #0
 8008086:	ddec      	ble.n	8008062 <_dtoa_r+0xa72>
 8008088:	4659      	mov	r1, fp
 800808a:	2201      	movs	r2, #1
 800808c:	4620      	mov	r0, r4
 800808e:	9301      	str	r3, [sp, #4]
 8008090:	f001 f8b0 	bl	80091f4 <__lshift>
 8008094:	4631      	mov	r1, r6
 8008096:	4683      	mov	fp, r0
 8008098:	f001 f918 	bl	80092cc <__mcmp>
 800809c:	2800      	cmp	r0, #0
 800809e:	9b01      	ldr	r3, [sp, #4]
 80080a0:	dc02      	bgt.n	80080a8 <_dtoa_r+0xab8>
 80080a2:	d1de      	bne.n	8008062 <_dtoa_r+0xa72>
 80080a4:	07da      	lsls	r2, r3, #31
 80080a6:	d5dc      	bpl.n	8008062 <_dtoa_r+0xa72>
 80080a8:	2b39      	cmp	r3, #57	; 0x39
 80080aa:	d1d8      	bne.n	800805e <_dtoa_r+0xa6e>
 80080ac:	9a02      	ldr	r2, [sp, #8]
 80080ae:	2339      	movs	r3, #57	; 0x39
 80080b0:	7013      	strb	r3, [r2, #0]
 80080b2:	462b      	mov	r3, r5
 80080b4:	461d      	mov	r5, r3
 80080b6:	3b01      	subs	r3, #1
 80080b8:	f815 2c01 	ldrb.w	r2, [r5, #-1]
 80080bc:	2a39      	cmp	r2, #57	; 0x39
 80080be:	d050      	beq.n	8008162 <_dtoa_r+0xb72>
 80080c0:	3201      	adds	r2, #1
 80080c2:	701a      	strb	r2, [r3, #0]
 80080c4:	e745      	b.n	8007f52 <_dtoa_r+0x962>
 80080c6:	2a00      	cmp	r2, #0
 80080c8:	dd03      	ble.n	80080d2 <_dtoa_r+0xae2>
 80080ca:	2b39      	cmp	r3, #57	; 0x39
 80080cc:	d0ee      	beq.n	80080ac <_dtoa_r+0xabc>
 80080ce:	3301      	adds	r3, #1
 80080d0:	e7c7      	b.n	8008062 <_dtoa_r+0xa72>
 80080d2:	9a01      	ldr	r2, [sp, #4]
 80080d4:	9907      	ldr	r1, [sp, #28]
 80080d6:	f802 3c01 	strb.w	r3, [r2, #-1]
 80080da:	428a      	cmp	r2, r1
 80080dc:	d02a      	beq.n	8008134 <_dtoa_r+0xb44>
 80080de:	4659      	mov	r1, fp
 80080e0:	2300      	movs	r3, #0
 80080e2:	220a      	movs	r2, #10
 80080e4:	4620      	mov	r0, r4
 80080e6:	f000 fe8b 	bl	8008e00 <__multadd>
 80080ea:	45b8      	cmp	r8, r7
 80080ec:	4683      	mov	fp, r0
 80080ee:	f04f 0300 	mov.w	r3, #0
 80080f2:	f04f 020a 	mov.w	r2, #10
 80080f6:	4641      	mov	r1, r8
 80080f8:	4620      	mov	r0, r4
 80080fa:	d107      	bne.n	800810c <_dtoa_r+0xb1c>
 80080fc:	f000 fe80 	bl	8008e00 <__multadd>
 8008100:	4680      	mov	r8, r0
 8008102:	4607      	mov	r7, r0
 8008104:	9b01      	ldr	r3, [sp, #4]
 8008106:	3301      	adds	r3, #1
 8008108:	9301      	str	r3, [sp, #4]
 800810a:	e775      	b.n	8007ff8 <_dtoa_r+0xa08>
 800810c:	f000 fe78 	bl	8008e00 <__multadd>
 8008110:	4639      	mov	r1, r7
 8008112:	4680      	mov	r8, r0
 8008114:	2300      	movs	r3, #0
 8008116:	220a      	movs	r2, #10
 8008118:	4620      	mov	r0, r4
 800811a:	f000 fe71 	bl	8008e00 <__multadd>
 800811e:	4607      	mov	r7, r0
 8008120:	e7f0      	b.n	8008104 <_dtoa_r+0xb14>
 8008122:	f1b9 0f00 	cmp.w	r9, #0
 8008126:	9a00      	ldr	r2, [sp, #0]
 8008128:	bfcc      	ite	gt
 800812a:	464d      	movgt	r5, r9
 800812c:	2501      	movle	r5, #1
 800812e:	4415      	add	r5, r2
 8008130:	f04f 0800 	mov.w	r8, #0
 8008134:	4659      	mov	r1, fp
 8008136:	2201      	movs	r2, #1
 8008138:	4620      	mov	r0, r4
 800813a:	9301      	str	r3, [sp, #4]
 800813c:	f001 f85a 	bl	80091f4 <__lshift>
 8008140:	4631      	mov	r1, r6
 8008142:	4683      	mov	fp, r0
 8008144:	f001 f8c2 	bl	80092cc <__mcmp>
 8008148:	2800      	cmp	r0, #0
 800814a:	dcb2      	bgt.n	80080b2 <_dtoa_r+0xac2>
 800814c:	d102      	bne.n	8008154 <_dtoa_r+0xb64>
 800814e:	9b01      	ldr	r3, [sp, #4]
 8008150:	07db      	lsls	r3, r3, #31
 8008152:	d4ae      	bmi.n	80080b2 <_dtoa_r+0xac2>
 8008154:	462b      	mov	r3, r5
 8008156:	461d      	mov	r5, r3
 8008158:	f813 2d01 	ldrb.w	r2, [r3, #-1]!
 800815c:	2a30      	cmp	r2, #48	; 0x30
 800815e:	d0fa      	beq.n	8008156 <_dtoa_r+0xb66>
 8008160:	e6f7      	b.n	8007f52 <_dtoa_r+0x962>
 8008162:	9a00      	ldr	r2, [sp, #0]
 8008164:	429a      	cmp	r2, r3
 8008166:	d1a5      	bne.n	80080b4 <_dtoa_r+0xac4>
 8008168:	f10a 0a01 	add.w	sl, sl, #1
 800816c:	2331      	movs	r3, #49	; 0x31
 800816e:	e779      	b.n	8008064 <_dtoa_r+0xa74>
 8008170:	4b13      	ldr	r3, [pc, #76]	; (80081c0 <_dtoa_r+0xbd0>)
 8008172:	f7ff baaf 	b.w	80076d4 <_dtoa_r+0xe4>
 8008176:	9b21      	ldr	r3, [sp, #132]	; 0x84
 8008178:	2b00      	cmp	r3, #0
 800817a:	f47f aa86 	bne.w	800768a <_dtoa_r+0x9a>
 800817e:	4b11      	ldr	r3, [pc, #68]	; (80081c4 <_dtoa_r+0xbd4>)
 8008180:	f7ff baa8 	b.w	80076d4 <_dtoa_r+0xe4>
 8008184:	f1b9 0f00 	cmp.w	r9, #0
 8008188:	dc03      	bgt.n	8008192 <_dtoa_r+0xba2>
 800818a:	9b05      	ldr	r3, [sp, #20]
 800818c:	2b02      	cmp	r3, #2
 800818e:	f73f aec9 	bgt.w	8007f24 <_dtoa_r+0x934>
 8008192:	9d00      	ldr	r5, [sp, #0]
 8008194:	4631      	mov	r1, r6
 8008196:	4658      	mov	r0, fp
 8008198:	f7ff f99c 	bl	80074d4 <quorem>
 800819c:	f100 0330 	add.w	r3, r0, #48	; 0x30
 80081a0:	f805 3b01 	strb.w	r3, [r5], #1
 80081a4:	9a00      	ldr	r2, [sp, #0]
 80081a6:	1aaa      	subs	r2, r5, r2
 80081a8:	4591      	cmp	r9, r2
 80081aa:	ddba      	ble.n	8008122 <_dtoa_r+0xb32>
 80081ac:	4659      	mov	r1, fp
 80081ae:	2300      	movs	r3, #0
 80081b0:	220a      	movs	r2, #10
 80081b2:	4620      	mov	r0, r4
 80081b4:	f000 fe24 	bl	8008e00 <__multadd>
 80081b8:	4683      	mov	fp, r0
 80081ba:	e7eb      	b.n	8008194 <_dtoa_r+0xba4>
 80081bc:	0800b35c 	.word	0x0800b35c
 80081c0:	0800b15c 	.word	0x0800b15c
 80081c4:	0800b2d9 	.word	0x0800b2d9

080081c8 <__sflush_r>:
 80081c8:	898a      	ldrh	r2, [r1, #12]
 80081ca:	e92d 41f0 	stmdb	sp!, {r4, r5, r6, r7, r8, lr}
 80081ce:	4605      	mov	r5, r0
 80081d0:	0710      	lsls	r0, r2, #28
 80081d2:	460c      	mov	r4, r1
 80081d4:	d458      	bmi.n	8008288 <__sflush_r+0xc0>
 80081d6:	684b      	ldr	r3, [r1, #4]
 80081d8:	2b00      	cmp	r3, #0
 80081da:	dc05      	bgt.n	80081e8 <__sflush_r+0x20>
 80081dc:	6c0b      	ldr	r3, [r1, #64]	; 0x40
 80081de:	2b00      	cmp	r3, #0
 80081e0:	dc02      	bgt.n	80081e8 <__sflush_r+0x20>
 80081e2:	2000      	movs	r0, #0
 80081e4:	e8bd 81f0 	ldmia.w	sp!, {r4, r5, r6, r7, r8, pc}
 80081e8:	6ae6      	ldr	r6, [r4, #44]	; 0x2c
 80081ea:	2e00      	cmp	r6, #0
 80081ec:	d0f9      	beq.n	80081e2 <__sflush_r+0x1a>
 80081ee:	2300      	movs	r3, #0
 80081f0:	f412 5280 	ands.w	r2, r2, #4096	; 0x1000
 80081f4:	682f      	ldr	r7, [r5, #0]
 80081f6:	602b      	str	r3, [r5, #0]
 80081f8:	d032      	beq.n	8008260 <__sflush_r+0x98>
 80081fa:	6d60      	ldr	r0, [r4, #84]	; 0x54
 80081fc:	89a3      	ldrh	r3, [r4, #12]
 80081fe:	075a      	lsls	r2, r3, #29
 8008200:	d505      	bpl.n	800820e <__sflush_r+0x46>
 8008202:	6863      	ldr	r3, [r4, #4]
 8008204:	1ac0      	subs	r0, r0, r3
 8008206:	6b63      	ldr	r3, [r4, #52]	; 0x34
 8008208:	b10b      	cbz	r3, 800820e <__sflush_r+0x46>
 800820a:	6c23      	ldr	r3, [r4, #64]	; 0x40
 800820c:	1ac0      	subs	r0, r0, r3
 800820e:	2300      	movs	r3, #0
 8008210:	4602      	mov	r2, r0
 8008212:	6ae6      	ldr	r6, [r4, #44]	; 0x2c
 8008214:	6a21      	ldr	r1, [r4, #32]
 8008216:	4628      	mov	r0, r5
 8008218:	47b0      	blx	r6
 800821a:	1c43      	adds	r3, r0, #1
 800821c:	89a3      	ldrh	r3, [r4, #12]
 800821e:	d106      	bne.n	800822e <__sflush_r+0x66>
 8008220:	6829      	ldr	r1, [r5, #0]
 8008222:	291d      	cmp	r1, #29
 8008224:	d82c      	bhi.n	8008280 <__sflush_r+0xb8>
 8008226:	4a2a      	ldr	r2, [pc, #168]	; (80082d0 <__sflush_r+0x108>)
 8008228:	40ca      	lsrs	r2, r1
 800822a:	07d6      	lsls	r6, r2, #31
 800822c:	d528      	bpl.n	8008280 <__sflush_r+0xb8>
 800822e:	2200      	movs	r2, #0
 8008230:	6062      	str	r2, [r4, #4]
 8008232:	04d9      	lsls	r1, r3, #19
 8008234:	6922      	ldr	r2, [r4, #16]
 8008236:	6022      	str	r2, [r4, #0]
 8008238:	d504      	bpl.n	8008244 <__sflush_r+0x7c>
 800823a:	1c42      	adds	r2, r0, #1
 800823c:	d101      	bne.n	8008242 <__sflush_r+0x7a>
 800823e:	682b      	ldr	r3, [r5, #0]
 8008240:	b903      	cbnz	r3, 8008244 <__sflush_r+0x7c>
 8008242:	6560      	str	r0, [r4, #84]	; 0x54
 8008244:	6b61      	ldr	r1, [r4, #52]	; 0x34
 8008246:	602f      	str	r7, [r5, #0]
 8008248:	2900      	cmp	r1, #0
 800824a:	d0ca      	beq.n	80081e2 <__sflush_r+0x1a>
 800824c:	f104 0344 	add.w	r3, r4, #68	; 0x44
 8008250:	4299      	cmp	r1, r3
 8008252:	d002      	beq.n	800825a <__sflush_r+0x92>
 8008254:	4628      	mov	r0, r5
 8008256:	f001 fa3b 	bl	80096d0 <_free_r>
 800825a:	2000      	movs	r0, #0
 800825c:	6360      	str	r0, [r4, #52]	; 0x34
 800825e:	e7c1      	b.n	80081e4 <__sflush_r+0x1c>
 8008260:	6a21      	ldr	r1, [r4, #32]
 8008262:	2301      	movs	r3, #1
 8008264:	4628      	mov	r0, r5
 8008266:	47b0      	blx	r6
 8008268:	1c41      	adds	r1, r0, #1
 800826a:	d1c7      	bne.n	80081fc <__sflush_r+0x34>
 800826c:	682b      	ldr	r3, [r5, #0]
 800826e:	2b00      	cmp	r3, #0
 8008270:	d0c4      	beq.n	80081fc <__sflush_r+0x34>
 8008272:	2b1d      	cmp	r3, #29
 8008274:	d001      	beq.n	800827a <__sflush_r+0xb2>
 8008276:	2b16      	cmp	r3, #22
 8008278:	d101      	bne.n	800827e <__sflush_r+0xb6>
 800827a:	602f      	str	r7, [r5, #0]
 800827c:	e7b1      	b.n	80081e2 <__sflush_r+0x1a>
 800827e:	89a3      	ldrh	r3, [r4, #12]
 8008280:	f043 0340 	orr.w	r3, r3, #64	; 0x40
 8008284:	81a3      	strh	r3, [r4, #12]
 8008286:	e7ad      	b.n	80081e4 <__sflush_r+0x1c>
 8008288:	690f      	ldr	r7, [r1, #16]
 800828a:	2f00      	cmp	r7, #0
 800828c:	d0a9      	beq.n	80081e2 <__sflush_r+0x1a>
 800828e:	0793      	lsls	r3, r2, #30
 8008290:	680e      	ldr	r6, [r1, #0]
 8008292:	bf08      	it	eq
 8008294:	694b      	ldreq	r3, [r1, #20]
 8008296:	600f      	str	r7, [r1, #0]
 8008298:	bf18      	it	ne
 800829a:	2300      	movne	r3, #0
 800829c:	eba6 0807 	sub.w	r8, r6, r7
 80082a0:	608b      	str	r3, [r1, #8]
 80082a2:	f1b8 0f00 	cmp.w	r8, #0
 80082a6:	dd9c      	ble.n	80081e2 <__sflush_r+0x1a>
 80082a8:	6a21      	ldr	r1, [r4, #32]
 80082aa:	6aa6      	ldr	r6, [r4, #40]	; 0x28
 80082ac:	4643      	mov	r3, r8
 80082ae:	463a      	mov	r2, r7
 80082b0:	4628      	mov	r0, r5
 80082b2:	47b0      	blx	r6
 80082b4:	2800      	cmp	r0, #0
 80082b6:	dc06      	bgt.n	80082c6 <__sflush_r+0xfe>
 80082b8:	89a3      	ldrh	r3, [r4, #12]
 80082ba:	f043 0340 	orr.w	r3, r3, #64	; 0x40
 80082be:	81a3      	strh	r3, [r4, #12]
 80082c0:	f04f 30ff 	mov.w	r0, #4294967295
 80082c4:	e78e      	b.n	80081e4 <__sflush_r+0x1c>
 80082c6:	4407      	add	r7, r0
 80082c8:	eba8 0800 	sub.w	r8, r8, r0
 80082cc:	e7e9      	b.n	80082a2 <__sflush_r+0xda>
 80082ce:	bf00      	nop
 80082d0:	20400001 	.word	0x20400001

080082d4 <_fflush_r>:
 80082d4:	b538      	push	{r3, r4, r5, lr}
 80082d6:	690b      	ldr	r3, [r1, #16]
 80082d8:	4605      	mov	r5, r0
 80082da:	460c      	mov	r4, r1
 80082dc:	b913      	cbnz	r3, 80082e4 <_fflush_r+0x10>
 80082de:	2500      	movs	r5, #0
 80082e0:	4628      	mov	r0, r5
 80082e2:	bd38      	pop	{r3, r4, r5, pc}
 80082e4:	b118      	cbz	r0, 80082ee <_fflush_r+0x1a>
 80082e6:	6983      	ldr	r3, [r0, #24]
 80082e8:	b90b      	cbnz	r3, 80082ee <_fflush_r+0x1a>
 80082ea:	f000 f887 	bl	80083fc <__sinit>
 80082ee:	4b14      	ldr	r3, [pc, #80]	; (8008340 <_fflush_r+0x6c>)
 80082f0:	429c      	cmp	r4, r3
 80082f2:	d11b      	bne.n	800832c <_fflush_r+0x58>
 80082f4:	686c      	ldr	r4, [r5, #4]
 80082f6:	f9b4 300c 	ldrsh.w	r3, [r4, #12]
 80082fa:	2b00      	cmp	r3, #0
 80082fc:	d0ef      	beq.n	80082de <_fflush_r+0xa>
 80082fe:	6e62      	ldr	r2, [r4, #100]	; 0x64
 8008300:	07d0      	lsls	r0, r2, #31
 8008302:	d404      	bmi.n	800830e <_fflush_r+0x3a>
 8008304:	0599      	lsls	r1, r3, #22
 8008306:	d402      	bmi.n	800830e <_fflush_r+0x3a>
 8008308:	6da0      	ldr	r0, [r4, #88]	; 0x58
 800830a:	f000 fc88 	bl	8008c1e <__retarget_lock_acquire_recursive>
 800830e:	4628      	mov	r0, r5
 8008310:	4621      	mov	r1, r4
 8008312:	f7ff ff59 	bl	80081c8 <__sflush_r>
 8008316:	6e63      	ldr	r3, [r4, #100]	; 0x64
 8008318:	07da      	lsls	r2, r3, #31
 800831a:	4605      	mov	r5, r0
 800831c:	d4e0      	bmi.n	80082e0 <_fflush_r+0xc>
 800831e:	89a3      	ldrh	r3, [r4, #12]
 8008320:	059b      	lsls	r3, r3, #22
 8008322:	d4dd      	bmi.n	80082e0 <_fflush_r+0xc>
 8008324:	6da0      	ldr	r0, [r4, #88]	; 0x58
 8008326:	f000 fc7b 	bl	8008c20 <__retarget_lock_release_recursive>
 800832a:	e7d9      	b.n	80082e0 <_fflush_r+0xc>
 800832c:	4b05      	ldr	r3, [pc, #20]	; (8008344 <_fflush_r+0x70>)
 800832e:	429c      	cmp	r4, r3
 8008330:	d101      	bne.n	8008336 <_fflush_r+0x62>
 8008332:	68ac      	ldr	r4, [r5, #8]
 8008334:	e7df      	b.n	80082f6 <_fflush_r+0x22>
 8008336:	4b04      	ldr	r3, [pc, #16]	; (8008348 <_fflush_r+0x74>)
 8008338:	429c      	cmp	r4, r3
 800833a:	bf08      	it	eq
 800833c:	68ec      	ldreq	r4, [r5, #12]
 800833e:	e7da      	b.n	80082f6 <_fflush_r+0x22>
 8008340:	0800b390 	.word	0x0800b390
 8008344:	0800b3b0 	.word	0x0800b3b0
 8008348:	0800b370 	.word	0x0800b370

0800834c <std>:
 800834c:	2300      	movs	r3, #0
 800834e:	b510      	push	{r4, lr}
 8008350:	4604      	mov	r4, r0
 8008352:	e9c0 3300 	strd	r3, r3, [r0]
 8008356:	e9c0 3304 	strd	r3, r3, [r0, #16]
 800835a:	6083      	str	r3, [r0, #8]
 800835c:	8181      	strh	r1, [r0, #12]
 800835e:	6643      	str	r3, [r0, #100]	; 0x64
 8008360:	81c2      	strh	r2, [r0, #14]
 8008362:	6183      	str	r3, [r0, #24]
 8008364:	4619      	mov	r1, r3
 8008366:	2208      	movs	r2, #8
 8008368:	305c      	adds	r0, #92	; 0x5c
 800836a:	f7fd fa0b 	bl	8005784 <memset>
 800836e:	4b05      	ldr	r3, [pc, #20]	; (8008384 <std+0x38>)
 8008370:	6263      	str	r3, [r4, #36]	; 0x24
 8008372:	4b05      	ldr	r3, [pc, #20]	; (8008388 <std+0x3c>)
 8008374:	62a3      	str	r3, [r4, #40]	; 0x28
 8008376:	4b05      	ldr	r3, [pc, #20]	; (800838c <std+0x40>)
 8008378:	62e3      	str	r3, [r4, #44]	; 0x2c
 800837a:	4b05      	ldr	r3, [pc, #20]	; (8008390 <std+0x44>)
 800837c:	6224      	str	r4, [r4, #32]
 800837e:	6323      	str	r3, [r4, #48]	; 0x30
 8008380:	bd10      	pop	{r4, pc}
 8008382:	bf00      	nop
 8008384:	08009dc1 	.word	0x08009dc1
 8008388:	08009de3 	.word	0x08009de3
 800838c:	08009e1b 	.word	0x08009e1b
 8008390:	08009e3f 	.word	0x08009e3f

08008394 <_cleanup_r>:
 8008394:	4901      	ldr	r1, [pc, #4]	; (800839c <_cleanup_r+0x8>)
 8008396:	f000 b8af 	b.w	80084f8 <_fwalk_reent>
 800839a:	bf00      	nop
 800839c:	080082d5 	.word	0x080082d5

080083a0 <__sfmoreglue>:
 80083a0:	b570      	push	{r4, r5, r6, lr}
 80083a2:	1e4a      	subs	r2, r1, #1
 80083a4:	2568      	movs	r5, #104	; 0x68
 80083a6:	4355      	muls	r5, r2
 80083a8:	460e      	mov	r6, r1
 80083aa:	f105 0174 	add.w	r1, r5, #116	; 0x74
 80083ae:	f001 f9df 	bl	8009770 <_malloc_r>
 80083b2:	4604      	mov	r4, r0
 80083b4:	b140      	cbz	r0, 80083c8 <__sfmoreglue+0x28>
 80083b6:	2100      	movs	r1, #0
 80083b8:	e9c0 1600 	strd	r1, r6, [r0]
 80083bc:	300c      	adds	r0, #12
 80083be:	60a0      	str	r0, [r4, #8]
 80083c0:	f105 0268 	add.w	r2, r5, #104	; 0x68
 80083c4:	f7fd f9de 	bl	8005784 <memset>
 80083c8:	4620      	mov	r0, r4
 80083ca:	bd70      	pop	{r4, r5, r6, pc}

080083cc <__sfp_lock_acquire>:
 80083cc:	4801      	ldr	r0, [pc, #4]	; (80083d4 <__sfp_lock_acquire+0x8>)
 80083ce:	f000 bc26 	b.w	8008c1e <__retarget_lock_acquire_recursive>
 80083d2:	bf00      	nop
 80083d4:	200005b0 	.word	0x200005b0

080083d8 <__sfp_lock_release>:
 80083d8:	4801      	ldr	r0, [pc, #4]	; (80083e0 <__sfp_lock_release+0x8>)
 80083da:	f000 bc21 	b.w	8008c20 <__retarget_lock_release_recursive>
 80083de:	bf00      	nop
 80083e0:	200005b0 	.word	0x200005b0

080083e4 <__sinit_lock_acquire>:
 80083e4:	4801      	ldr	r0, [pc, #4]	; (80083ec <__sinit_lock_acquire+0x8>)
 80083e6:	f000 bc1a 	b.w	8008c1e <__retarget_lock_acquire_recursive>
 80083ea:	bf00      	nop
 80083ec:	200005ab 	.word	0x200005ab

080083f0 <__sinit_lock_release>:
 80083f0:	4801      	ldr	r0, [pc, #4]	; (80083f8 <__sinit_lock_release+0x8>)
 80083f2:	f000 bc15 	b.w	8008c20 <__retarget_lock_release_recursive>
 80083f6:	bf00      	nop
 80083f8:	200005ab 	.word	0x200005ab

080083fc <__sinit>:
 80083fc:	b510      	push	{r4, lr}
 80083fe:	4604      	mov	r4, r0
 8008400:	f7ff fff0 	bl	80083e4 <__sinit_lock_acquire>
 8008404:	69a3      	ldr	r3, [r4, #24]
 8008406:	b11b      	cbz	r3, 8008410 <__sinit+0x14>
 8008408:	e8bd 4010 	ldmia.w	sp!, {r4, lr}
 800840c:	f7ff bff0 	b.w	80083f0 <__sinit_lock_release>
 8008410:	e9c4 3312 	strd	r3, r3, [r4, #72]	; 0x48
 8008414:	6523      	str	r3, [r4, #80]	; 0x50
 8008416:	4b13      	ldr	r3, [pc, #76]	; (8008464 <__sinit+0x68>)
 8008418:	4a13      	ldr	r2, [pc, #76]	; (8008468 <__sinit+0x6c>)
 800841a:	681b      	ldr	r3, [r3, #0]
 800841c:	62a2      	str	r2, [r4, #40]	; 0x28
 800841e:	42a3      	cmp	r3, r4
 8008420:	bf04      	itt	eq
 8008422:	2301      	moveq	r3, #1
 8008424:	61a3      	streq	r3, [r4, #24]
 8008426:	4620      	mov	r0, r4
 8008428:	f000 f820 	bl	800846c <__sfp>
 800842c:	6060      	str	r0, [r4, #4]
 800842e:	4620      	mov	r0, r4
 8008430:	f000 f81c 	bl	800846c <__sfp>
 8008434:	60a0      	str	r0, [r4, #8]
 8008436:	4620      	mov	r0, r4
 8008438:	f000 f818 	bl	800846c <__sfp>
 800843c:	2200      	movs	r2, #0
 800843e:	60e0      	str	r0, [r4, #12]
 8008440:	2104      	movs	r1, #4
 8008442:	6860      	ldr	r0, [r4, #4]
 8008444:	f7ff ff82 	bl	800834c <std>
 8008448:	68a0      	ldr	r0, [r4, #8]
 800844a:	2201      	movs	r2, #1
 800844c:	2109      	movs	r1, #9
 800844e:	f7ff ff7d 	bl	800834c <std>
 8008452:	68e0      	ldr	r0, [r4, #12]
 8008454:	2202      	movs	r2, #2
 8008456:	2112      	movs	r1, #18
 8008458:	f7ff ff78 	bl	800834c <std>
 800845c:	2301      	movs	r3, #1
 800845e:	61a3      	str	r3, [r4, #24]
 8008460:	e7d2      	b.n	8008408 <__sinit+0xc>
 8008462:	bf00      	nop
 8008464:	0800b148 	.word	0x0800b148
 8008468:	08008395 	.word	0x08008395

0800846c <__sfp>:
 800846c:	b5f8      	push	{r3, r4, r5, r6, r7, lr}
 800846e:	4607      	mov	r7, r0
 8008470:	f7ff ffac 	bl	80083cc <__sfp_lock_acquire>
 8008474:	4b1e      	ldr	r3, [pc, #120]	; (80084f0 <__sfp+0x84>)
 8008476:	681e      	ldr	r6, [r3, #0]
 8008478:	69b3      	ldr	r3, [r6, #24]
 800847a:	b913      	cbnz	r3, 8008482 <__sfp+0x16>
 800847c:	4630      	mov	r0, r6
 800847e:	f7ff ffbd 	bl	80083fc <__sinit>
 8008482:	3648      	adds	r6, #72	; 0x48
 8008484:	e9d6 3401 	ldrd	r3, r4, [r6, #4]
 8008488:	3b01      	subs	r3, #1
 800848a:	d503      	bpl.n	8008494 <__sfp+0x28>
 800848c:	6833      	ldr	r3, [r6, #0]
 800848e:	b30b      	cbz	r3, 80084d4 <__sfp+0x68>
 8008490:	6836      	ldr	r6, [r6, #0]
 8008492:	e7f7      	b.n	8008484 <__sfp+0x18>
 8008494:	f9b4 500c 	ldrsh.w	r5, [r4, #12]
 8008498:	b9d5      	cbnz	r5, 80084d0 <__sfp+0x64>
 800849a:	4b16      	ldr	r3, [pc, #88]	; (80084f4 <__sfp+0x88>)
 800849c:	60e3      	str	r3, [r4, #12]
 800849e:	f104 0058 	add.w	r0, r4, #88	; 0x58
 80084a2:	6665      	str	r5, [r4, #100]	; 0x64
 80084a4:	f000 fbba 	bl	8008c1c <__retarget_lock_init_recursive>
 80084a8:	f7ff ff96 	bl	80083d8 <__sfp_lock_release>
 80084ac:	e9c4 5501 	strd	r5, r5, [r4, #4]
 80084b0:	e9c4 5504 	strd	r5, r5, [r4, #16]
 80084b4:	6025      	str	r5, [r4, #0]
 80084b6:	61a5      	str	r5, [r4, #24]
 80084b8:	2208      	movs	r2, #8
 80084ba:	4629      	mov	r1, r5
 80084bc:	f104 005c 	add.w	r0, r4, #92	; 0x5c
 80084c0:	f7fd f960 	bl	8005784 <memset>
 80084c4:	e9c4 550d 	strd	r5, r5, [r4, #52]	; 0x34
 80084c8:	e9c4 5512 	strd	r5, r5, [r4, #72]	; 0x48
 80084cc:	4620      	mov	r0, r4
 80084ce:	bdf8      	pop	{r3, r4, r5, r6, r7, pc}
 80084d0:	3468      	adds	r4, #104	; 0x68
 80084d2:	e7d9      	b.n	8008488 <__sfp+0x1c>
 80084d4:	2104      	movs	r1, #4
 80084d6:	4638      	mov	r0, r7
 80084d8:	f7ff ff62 	bl	80083a0 <__sfmoreglue>
 80084dc:	4604      	mov	r4, r0
 80084de:	6030      	str	r0, [r6, #0]
 80084e0:	2800      	cmp	r0, #0
 80084e2:	d1d5      	bne.n	8008490 <__sfp+0x24>
 80084e4:	f7ff ff78 	bl	80083d8 <__sfp_lock_release>
 80084e8:	230c      	movs	r3, #12
 80084ea:	603b      	str	r3, [r7, #0]
 80084ec:	e7ee      	b.n	80084cc <__sfp+0x60>
 80084ee:	bf00      	nop
 80084f0:	0800b148 	.word	0x0800b148
 80084f4:	ffff0001 	.word	0xffff0001

080084f8 <_fwalk_reent>:
 80084f8:	e92d 43f8 	stmdb	sp!, {r3, r4, r5, r6, r7, r8, r9, lr}
 80084fc:	4606      	mov	r6, r0
 80084fe:	4688      	mov	r8, r1
 8008500:	f100 0448 	add.w	r4, r0, #72	; 0x48
 8008504:	2700      	movs	r7, #0
 8008506:	e9d4 9501 	ldrd	r9, r5, [r4, #4]
 800850a:	f1b9 0901 	subs.w	r9, r9, #1
 800850e:	d505      	bpl.n	800851c <_fwalk_reent+0x24>
 8008510:	6824      	ldr	r4, [r4, #0]
 8008512:	2c00      	cmp	r4, #0
 8008514:	d1f7      	bne.n	8008506 <_fwalk_reent+0xe>
 8008516:	4638      	mov	r0, r7
 8008518:	e8bd 83f8 	ldmia.w	sp!, {r3, r4, r5, r6, r7, r8, r9, pc}
 800851c:	89ab      	ldrh	r3, [r5, #12]
 800851e:	2b01      	cmp	r3, #1
 8008520:	d907      	bls.n	8008532 <_fwalk_reent+0x3a>
 8008522:	f9b5 300e 	ldrsh.w	r3, [r5, #14]
 8008526:	3301      	adds	r3, #1
 8008528:	d003      	beq.n	8008532 <_fwalk_reent+0x3a>
 800852a:	4629      	mov	r1, r5
 800852c:	4630      	mov	r0, r6
 800852e:	47c0      	blx	r8
 8008530:	4307      	orrs	r7, r0
 8008532:	3568      	adds	r5, #104	; 0x68
 8008534:	e7e9      	b.n	800850a <_fwalk_reent+0x12>

08008536 <rshift>:
 8008536:	6903      	ldr	r3, [r0, #16]
 8008538:	ebb3 1f61 	cmp.w	r3, r1, asr #5
 800853c:	e92d 43f0 	stmdb	sp!, {r4, r5, r6, r7, r8, r9, lr}
 8008540:	ea4f 1261 	mov.w	r2, r1, asr #5
 8008544:	f100 0414 	add.w	r4, r0, #20
 8008548:	dd45      	ble.n	80085d6 <rshift+0xa0>
 800854a:	f011 011f 	ands.w	r1, r1, #31
 800854e:	eb04 0683 	add.w	r6, r4, r3, lsl #2
 8008552:	eb04 0582 	add.w	r5, r4, r2, lsl #2
 8008556:	d10c      	bne.n	8008572 <rshift+0x3c>
 8008558:	f100 0710 	add.w	r7, r0, #16
 800855c:	4629      	mov	r1, r5
 800855e:	42b1      	cmp	r1, r6
 8008560:	d334      	bcc.n	80085cc <rshift+0x96>
 8008562:	1a9b      	subs	r3, r3, r2
 8008564:	009b      	lsls	r3, r3, #2
 8008566:	1eea      	subs	r2, r5, #3
 8008568:	4296      	cmp	r6, r2
 800856a:	bf38      	it	cc
 800856c:	2300      	movcc	r3, #0
 800856e:	4423      	add	r3, r4
 8008570:	e015      	b.n	800859e <rshift+0x68>
 8008572:	f854 7022 	ldr.w	r7, [r4, r2, lsl #2]
 8008576:	f1c1 0820 	rsb	r8, r1, #32
 800857a:	40cf      	lsrs	r7, r1
 800857c:	f105 0e04 	add.w	lr, r5, #4
 8008580:	46a1      	mov	r9, r4
 8008582:	4576      	cmp	r6, lr
 8008584:	46f4      	mov	ip, lr
 8008586:	d815      	bhi.n	80085b4 <rshift+0x7e>
 8008588:	1a9b      	subs	r3, r3, r2
 800858a:	009a      	lsls	r2, r3, #2
 800858c:	3a04      	subs	r2, #4
 800858e:	3501      	adds	r5, #1
 8008590:	42ae      	cmp	r6, r5
 8008592:	bf38      	it	cc
 8008594:	2200      	movcc	r2, #0
 8008596:	18a3      	adds	r3, r4, r2
 8008598:	50a7      	str	r7, [r4, r2]
 800859a:	b107      	cbz	r7, 800859e <rshift+0x68>
 800859c:	3304      	adds	r3, #4
 800859e:	1b1a      	subs	r2, r3, r4
 80085a0:	42a3      	cmp	r3, r4
 80085a2:	ea4f 02a2 	mov.w	r2, r2, asr #2
 80085a6:	bf08      	it	eq
 80085a8:	2300      	moveq	r3, #0
 80085aa:	6102      	str	r2, [r0, #16]
 80085ac:	bf08      	it	eq
 80085ae:	6143      	streq	r3, [r0, #20]
 80085b0:	e8bd 83f0 	ldmia.w	sp!, {r4, r5, r6, r7, r8, r9, pc}
 80085b4:	f8dc c000 	ldr.w	ip, [ip]
 80085b8:	fa0c fc08 	lsl.w	ip, ip, r8
 80085bc:	ea4c 0707 	orr.w	r7, ip, r7
 80085c0:	f849 7b04 	str.w	r7, [r9], #4
 80085c4:	f85e 7b04 	ldr.w	r7, [lr], #4
 80085c8:	40cf      	lsrs	r7, r1
 80085ca:	e7da      	b.n	8008582 <rshift+0x4c>
 80085cc:	f851 cb04 	ldr.w	ip, [r1], #4
 80085d0:	f847 cf04 	str.w	ip, [r7, #4]!
 80085d4:	e7c3      	b.n	800855e <rshift+0x28>
 80085d6:	4623      	mov	r3, r4
 80085d8:	e7e1      	b.n	800859e <rshift+0x68>

080085da <__hexdig_fun>:
 80085da:	f1a0 0330 	sub.w	r3, r0, #48	; 0x30
 80085de:	2b09      	cmp	r3, #9
 80085e0:	d802      	bhi.n	80085e8 <__hexdig_fun+0xe>
 80085e2:	3820      	subs	r0, #32
 80085e4:	b2c0      	uxtb	r0, r0
 80085e6:	4770      	bx	lr
 80085e8:	f1a0 0361 	sub.w	r3, r0, #97	; 0x61
 80085ec:	2b05      	cmp	r3, #5
 80085ee:	d801      	bhi.n	80085f4 <__hexdig_fun+0x1a>
 80085f0:	3847      	subs	r0, #71	; 0x47
 80085f2:	e7f7      	b.n	80085e4 <__hexdig_fun+0xa>
 80085f4:	f1a0 0341 	sub.w	r3, r0, #65	; 0x41
 80085f8:	2b05      	cmp	r3, #5
 80085fa:	d801      	bhi.n	8008600 <__hexdig_fun+0x26>
 80085fc:	3827      	subs	r0, #39	; 0x27
 80085fe:	e7f1      	b.n	80085e4 <__hexdig_fun+0xa>
 8008600:	2000      	movs	r0, #0
 8008602:	4770      	bx	lr

08008604 <__gethex>:
 8008604:	e92d 4ff0 	stmdb	sp!, {r4, r5, r6, r7, r8, r9, sl, fp, lr}
 8008608:	ed2d 8b02 	vpush	{d8}
 800860c:	b089      	sub	sp, #36	; 0x24
 800860e:	ee08 0a10 	vmov	s16, r0
 8008612:	9304      	str	r3, [sp, #16]
 8008614:	4bbc      	ldr	r3, [pc, #752]	; (8008908 <__gethex+0x304>)
 8008616:	681b      	ldr	r3, [r3, #0]
 8008618:	9301      	str	r3, [sp, #4]
 800861a:	4618      	mov	r0, r3
 800861c:	468b      	mov	fp, r1
 800861e:	4690      	mov	r8, r2
 8008620:	f7f7 fdd6 	bl	80001d0 <strlen>
 8008624:	9b01      	ldr	r3, [sp, #4]
 8008626:	f8db 2000 	ldr.w	r2, [fp]
 800862a:	4403      	add	r3, r0
 800862c:	4682      	mov	sl, r0
 800862e:	f813 3c01 	ldrb.w	r3, [r3, #-1]
 8008632:	9305      	str	r3, [sp, #20]
 8008634:	1c93      	adds	r3, r2, #2
 8008636:	f1c2 22ff 	rsb	r2, r2, #4278255360	; 0xff00ff00
 800863a:	f502 027f 	add.w	r2, r2, #16711680	; 0xff0000
 800863e:	32fe      	adds	r2, #254	; 0xfe
 8008640:	18d1      	adds	r1, r2, r3
 8008642:	461f      	mov	r7, r3
 8008644:	f813 0b01 	ldrb.w	r0, [r3], #1
 8008648:	9100      	str	r1, [sp, #0]
 800864a:	2830      	cmp	r0, #48	; 0x30
 800864c:	d0f8      	beq.n	8008640 <__gethex+0x3c>
 800864e:	f7ff ffc4 	bl	80085da <__hexdig_fun>
 8008652:	4604      	mov	r4, r0
 8008654:	2800      	cmp	r0, #0
 8008656:	d13a      	bne.n	80086ce <__gethex+0xca>
 8008658:	9901      	ldr	r1, [sp, #4]
 800865a:	4652      	mov	r2, sl
 800865c:	4638      	mov	r0, r7
 800865e:	f001 fbf2 	bl	8009e46 <strncmp>
 8008662:	4605      	mov	r5, r0
 8008664:	2800      	cmp	r0, #0
 8008666:	d168      	bne.n	800873a <__gethex+0x136>
 8008668:	f817 000a 	ldrb.w	r0, [r7, sl]
 800866c:	eb07 060a 	add.w	r6, r7, sl
 8008670:	f7ff ffb3 	bl	80085da <__hexdig_fun>
 8008674:	2800      	cmp	r0, #0
 8008676:	d062      	beq.n	800873e <__gethex+0x13a>
 8008678:	4633      	mov	r3, r6
 800867a:	7818      	ldrb	r0, [r3, #0]
 800867c:	2830      	cmp	r0, #48	; 0x30
 800867e:	461f      	mov	r7, r3
 8008680:	f103 0301 	add.w	r3, r3, #1
 8008684:	d0f9      	beq.n	800867a <__gethex+0x76>
 8008686:	f7ff ffa8 	bl	80085da <__hexdig_fun>
 800868a:	2301      	movs	r3, #1
 800868c:	fab0 f480 	clz	r4, r0
 8008690:	0964      	lsrs	r4, r4, #5
 8008692:	4635      	mov	r5, r6
 8008694:	9300      	str	r3, [sp, #0]
 8008696:	463a      	mov	r2, r7
 8008698:	4616      	mov	r6, r2
 800869a:	3201      	adds	r2, #1
 800869c:	7830      	ldrb	r0, [r6, #0]
 800869e:	f7ff ff9c 	bl	80085da <__hexdig_fun>
 80086a2:	2800      	cmp	r0, #0
 80086a4:	d1f8      	bne.n	8008698 <__gethex+0x94>
 80086a6:	9901      	ldr	r1, [sp, #4]
 80086a8:	4652      	mov	r2, sl
 80086aa:	4630      	mov	r0, r6
 80086ac:	f001 fbcb 	bl	8009e46 <strncmp>
 80086b0:	b980      	cbnz	r0, 80086d4 <__gethex+0xd0>
 80086b2:	b94d      	cbnz	r5, 80086c8 <__gethex+0xc4>
 80086b4:	eb06 050a 	add.w	r5, r6, sl
 80086b8:	462a      	mov	r2, r5
 80086ba:	4616      	mov	r6, r2
 80086bc:	3201      	adds	r2, #1
 80086be:	7830      	ldrb	r0, [r6, #0]
 80086c0:	f7ff ff8b 	bl	80085da <__hexdig_fun>
 80086c4:	2800      	cmp	r0, #0
 80086c6:	d1f8      	bne.n	80086ba <__gethex+0xb6>
 80086c8:	1bad      	subs	r5, r5, r6
 80086ca:	00ad      	lsls	r5, r5, #2
 80086cc:	e004      	b.n	80086d8 <__gethex+0xd4>
 80086ce:	2400      	movs	r4, #0
 80086d0:	4625      	mov	r5, r4
 80086d2:	e7e0      	b.n	8008696 <__gethex+0x92>
 80086d4:	2d00      	cmp	r5, #0
 80086d6:	d1f7      	bne.n	80086c8 <__gethex+0xc4>
 80086d8:	7833      	ldrb	r3, [r6, #0]
 80086da:	f003 03df 	and.w	r3, r3, #223	; 0xdf
 80086de:	2b50      	cmp	r3, #80	; 0x50
 80086e0:	d13b      	bne.n	800875a <__gethex+0x156>
 80086e2:	7873      	ldrb	r3, [r6, #1]
 80086e4:	2b2b      	cmp	r3, #43	; 0x2b
 80086e6:	d02c      	beq.n	8008742 <__gethex+0x13e>
 80086e8:	2b2d      	cmp	r3, #45	; 0x2d
 80086ea:	d02e      	beq.n	800874a <__gethex+0x146>
 80086ec:	1c71      	adds	r1, r6, #1
 80086ee:	f04f 0900 	mov.w	r9, #0
 80086f2:	7808      	ldrb	r0, [r1, #0]
 80086f4:	f7ff ff71 	bl	80085da <__hexdig_fun>
 80086f8:	1e43      	subs	r3, r0, #1
 80086fa:	b2db      	uxtb	r3, r3
 80086fc:	2b18      	cmp	r3, #24
 80086fe:	d82c      	bhi.n	800875a <__gethex+0x156>
 8008700:	f1a0 0210 	sub.w	r2, r0, #16
 8008704:	f811 0f01 	ldrb.w	r0, [r1, #1]!
 8008708:	f7ff ff67 	bl	80085da <__hexdig_fun>
 800870c:	1e43      	subs	r3, r0, #1
 800870e:	b2db      	uxtb	r3, r3
 8008710:	2b18      	cmp	r3, #24
 8008712:	d91d      	bls.n	8008750 <__gethex+0x14c>
 8008714:	f1b9 0f00 	cmp.w	r9, #0
 8008718:	d000      	beq.n	800871c <__gethex+0x118>
 800871a:	4252      	negs	r2, r2
 800871c:	4415      	add	r5, r2
 800871e:	f8cb 1000 	str.w	r1, [fp]
 8008722:	b1e4      	cbz	r4, 800875e <__gethex+0x15a>
 8008724:	9b00      	ldr	r3, [sp, #0]
 8008726:	2b00      	cmp	r3, #0
 8008728:	bf14      	ite	ne
 800872a:	2700      	movne	r7, #0
 800872c:	2706      	moveq	r7, #6
 800872e:	4638      	mov	r0, r7
 8008730:	b009      	add	sp, #36	; 0x24
 8008732:	ecbd 8b02 	vpop	{d8}
 8008736:	e8bd 8ff0 	ldmia.w	sp!, {r4, r5, r6, r7, r8, r9, sl, fp, pc}
 800873a:	463e      	mov	r6, r7
 800873c:	4625      	mov	r5, r4
 800873e:	2401      	movs	r4, #1
 8008740:	e7ca      	b.n	80086d8 <__gethex+0xd4>
 8008742:	f04f 0900 	mov.w	r9, #0
 8008746:	1cb1      	adds	r1, r6, #2
 8008748:	e7d3      	b.n	80086f2 <__gethex+0xee>
 800874a:	f04f 0901 	mov.w	r9, #1
 800874e:	e7fa      	b.n	8008746 <__gethex+0x142>
 8008750:	230a      	movs	r3, #10
 8008752:	fb03 0202 	mla	r2, r3, r2, r0
 8008756:	3a10      	subs	r2, #16
 8008758:	e7d4      	b.n	8008704 <__gethex+0x100>
 800875a:	4631      	mov	r1, r6
 800875c:	e7df      	b.n	800871e <__gethex+0x11a>
 800875e:	1bf3      	subs	r3, r6, r7
 8008760:	3b01      	subs	r3, #1
 8008762:	4621      	mov	r1, r4
 8008764:	2b07      	cmp	r3, #7
 8008766:	dc0b      	bgt.n	8008780 <__gethex+0x17c>
 8008768:	ee18 0a10 	vmov	r0, s16
 800876c:	f000 fae6 	bl	8008d3c <_Balloc>
 8008770:	4604      	mov	r4, r0
 8008772:	b940      	cbnz	r0, 8008786 <__gethex+0x182>
 8008774:	4b65      	ldr	r3, [pc, #404]	; (800890c <__gethex+0x308>)
 8008776:	4602      	mov	r2, r0
 8008778:	21de      	movs	r1, #222	; 0xde
 800877a:	4865      	ldr	r0, [pc, #404]	; (8008910 <__gethex+0x30c>)
 800877c:	f001 fb94 	bl	8009ea8 <__assert_func>
 8008780:	3101      	adds	r1, #1
 8008782:	105b      	asrs	r3, r3, #1
 8008784:	e7ee      	b.n	8008764 <__gethex+0x160>
 8008786:	f100 0914 	add.w	r9, r0, #20
 800878a:	f04f 0b00 	mov.w	fp, #0
 800878e:	f1ca 0301 	rsb	r3, sl, #1
 8008792:	f8cd 9008 	str.w	r9, [sp, #8]
 8008796:	f8cd b000 	str.w	fp, [sp]
 800879a:	9306      	str	r3, [sp, #24]
 800879c:	42b7      	cmp	r7, r6
 800879e:	d340      	bcc.n	8008822 <__gethex+0x21e>
 80087a0:	9802      	ldr	r0, [sp, #8]
 80087a2:	9b00      	ldr	r3, [sp, #0]
 80087a4:	f840 3b04 	str.w	r3, [r0], #4
 80087a8:	eba0 0009 	sub.w	r0, r0, r9
 80087ac:	1080      	asrs	r0, r0, #2
 80087ae:	0146      	lsls	r6, r0, #5
 80087b0:	6120      	str	r0, [r4, #16]
 80087b2:	4618      	mov	r0, r3
 80087b4:	f000 fbb8 	bl	8008f28 <__hi0bits>
 80087b8:	1a30      	subs	r0, r6, r0
 80087ba:	f8d8 6000 	ldr.w	r6, [r8]
 80087be:	42b0      	cmp	r0, r6
 80087c0:	dd63      	ble.n	800888a <__gethex+0x286>
 80087c2:	1b87      	subs	r7, r0, r6
 80087c4:	4639      	mov	r1, r7
 80087c6:	4620      	mov	r0, r4
 80087c8:	f000 ff52 	bl	8009670 <__any_on>
 80087cc:	4682      	mov	sl, r0
 80087ce:	b1a8      	cbz	r0, 80087fc <__gethex+0x1f8>
 80087d0:	1e7b      	subs	r3, r7, #1
 80087d2:	1159      	asrs	r1, r3, #5
 80087d4:	f003 021f 	and.w	r2, r3, #31
 80087d8:	f859 1021 	ldr.w	r1, [r9, r1, lsl #2]
 80087dc:	f04f 0a01 	mov.w	sl, #1
 80087e0:	fa0a f202 	lsl.w	r2, sl, r2
 80087e4:	420a      	tst	r2, r1
 80087e6:	d009      	beq.n	80087fc <__gethex+0x1f8>
 80087e8:	4553      	cmp	r3, sl
 80087ea:	dd05      	ble.n	80087f8 <__gethex+0x1f4>
 80087ec:	1eb9      	subs	r1, r7, #2
 80087ee:	4620      	mov	r0, r4
 80087f0:	f000 ff3e 	bl	8009670 <__any_on>
 80087f4:	2800      	cmp	r0, #0
 80087f6:	d145      	bne.n	8008884 <__gethex+0x280>
 80087f8:	f04f 0a02 	mov.w	sl, #2
 80087fc:	4639      	mov	r1, r7
 80087fe:	4620      	mov	r0, r4
 8008800:	f7ff fe99 	bl	8008536 <rshift>
 8008804:	443d      	add	r5, r7
 8008806:	f8d8 3008 	ldr.w	r3, [r8, #8]
 800880a:	42ab      	cmp	r3, r5
 800880c:	da4c      	bge.n	80088a8 <__gethex+0x2a4>
 800880e:	ee18 0a10 	vmov	r0, s16
 8008812:	4621      	mov	r1, r4
 8008814:	f000 fad2 	bl	8008dbc <_Bfree>
 8008818:	9a14      	ldr	r2, [sp, #80]	; 0x50
 800881a:	2300      	movs	r3, #0
 800881c:	6013      	str	r3, [r2, #0]
 800881e:	27a3      	movs	r7, #163	; 0xa3
 8008820:	e785      	b.n	800872e <__gethex+0x12a>
 8008822:	1e73      	subs	r3, r6, #1
 8008824:	9a05      	ldr	r2, [sp, #20]
 8008826:	9303      	str	r3, [sp, #12]
 8008828:	f816 3c01 	ldrb.w	r3, [r6, #-1]
 800882c:	4293      	cmp	r3, r2
 800882e:	d019      	beq.n	8008864 <__gethex+0x260>
 8008830:	f1bb 0f20 	cmp.w	fp, #32
 8008834:	d107      	bne.n	8008846 <__gethex+0x242>
 8008836:	9b02      	ldr	r3, [sp, #8]
 8008838:	9a00      	ldr	r2, [sp, #0]
 800883a:	f843 2b04 	str.w	r2, [r3], #4
 800883e:	9302      	str	r3, [sp, #8]
 8008840:	2300      	movs	r3, #0
 8008842:	9300      	str	r3, [sp, #0]
 8008844:	469b      	mov	fp, r3
 8008846:	f816 0c01 	ldrb.w	r0, [r6, #-1]
 800884a:	f7ff fec6 	bl	80085da <__hexdig_fun>
 800884e:	9b00      	ldr	r3, [sp, #0]
 8008850:	f000 000f 	and.w	r0, r0, #15
 8008854:	fa00 f00b 	lsl.w	r0, r0, fp
 8008858:	4303      	orrs	r3, r0
 800885a:	9300      	str	r3, [sp, #0]
 800885c:	f10b 0b04 	add.w	fp, fp, #4
 8008860:	9b03      	ldr	r3, [sp, #12]
 8008862:	e00d      	b.n	8008880 <__gethex+0x27c>
 8008864:	9b03      	ldr	r3, [sp, #12]
 8008866:	9a06      	ldr	r2, [sp, #24]
 8008868:	4413      	add	r3, r2
 800886a:	42bb      	cmp	r3, r7
 800886c:	d3e0      	bcc.n	8008830 <__gethex+0x22c>
 800886e:	4618      	mov	r0, r3
 8008870:	9901      	ldr	r1, [sp, #4]
 8008872:	9307      	str	r3, [sp, #28]
 8008874:	4652      	mov	r2, sl
 8008876:	f001 fae6 	bl	8009e46 <strncmp>
 800887a:	9b07      	ldr	r3, [sp, #28]
 800887c:	2800      	cmp	r0, #0
 800887e:	d1d7      	bne.n	8008830 <__gethex+0x22c>
 8008880:	461e      	mov	r6, r3
 8008882:	e78b      	b.n	800879c <__gethex+0x198>
 8008884:	f04f 0a03 	mov.w	sl, #3
 8008888:	e7b8      	b.n	80087fc <__gethex+0x1f8>
 800888a:	da0a      	bge.n	80088a2 <__gethex+0x29e>
 800888c:	1a37      	subs	r7, r6, r0
 800888e:	4621      	mov	r1, r4
 8008890:	ee18 0a10 	vmov	r0, s16
 8008894:	463a      	mov	r2, r7
 8008896:	f000 fcad 	bl	80091f4 <__lshift>
 800889a:	1bed      	subs	r5, r5, r7
 800889c:	4604      	mov	r4, r0
 800889e:	f100 0914 	add.w	r9, r0, #20
 80088a2:	f04f 0a00 	mov.w	sl, #0
 80088a6:	e7ae      	b.n	8008806 <__gethex+0x202>
 80088a8:	f8d8 0004 	ldr.w	r0, [r8, #4]
 80088ac:	42a8      	cmp	r0, r5
 80088ae:	dd72      	ble.n	8008996 <__gethex+0x392>
 80088b0:	1b45      	subs	r5, r0, r5
 80088b2:	42ae      	cmp	r6, r5
 80088b4:	dc36      	bgt.n	8008924 <__gethex+0x320>
 80088b6:	f8d8 300c 	ldr.w	r3, [r8, #12]
 80088ba:	2b02      	cmp	r3, #2
 80088bc:	d02a      	beq.n	8008914 <__gethex+0x310>
 80088be:	2b03      	cmp	r3, #3
 80088c0:	d02c      	beq.n	800891c <__gethex+0x318>
 80088c2:	2b01      	cmp	r3, #1
 80088c4:	d115      	bne.n	80088f2 <__gethex+0x2ee>
 80088c6:	42ae      	cmp	r6, r5
 80088c8:	d113      	bne.n	80088f2 <__gethex+0x2ee>
 80088ca:	2e01      	cmp	r6, #1
 80088cc:	d10b      	bne.n	80088e6 <__gethex+0x2e2>
 80088ce:	9a04      	ldr	r2, [sp, #16]
 80088d0:	f8d8 3004 	ldr.w	r3, [r8, #4]
 80088d4:	6013      	str	r3, [r2, #0]
 80088d6:	2301      	movs	r3, #1
 80088d8:	6123      	str	r3, [r4, #16]
 80088da:	f8c9 3000 	str.w	r3, [r9]
 80088de:	9b14      	ldr	r3, [sp, #80]	; 0x50
 80088e0:	2762      	movs	r7, #98	; 0x62
 80088e2:	601c      	str	r4, [r3, #0]
 80088e4:	e723      	b.n	800872e <__gethex+0x12a>
 80088e6:	1e71      	subs	r1, r6, #1
 80088e8:	4620      	mov	r0, r4
 80088ea:	f000 fec1 	bl	8009670 <__any_on>
 80088ee:	2800      	cmp	r0, #0
 80088f0:	d1ed      	bne.n	80088ce <__gethex+0x2ca>
 80088f2:	ee18 0a10 	vmov	r0, s16
 80088f6:	4621      	mov	r1, r4
 80088f8:	f000 fa60 	bl	8008dbc <_Bfree>
 80088fc:	9a14      	ldr	r2, [sp, #80]	; 0x50
 80088fe:	2300      	movs	r3, #0
 8008900:	6013      	str	r3, [r2, #0]
 8008902:	2750      	movs	r7, #80	; 0x50
 8008904:	e713      	b.n	800872e <__gethex+0x12a>
 8008906:	bf00      	nop
 8008908:	0800b43c 	.word	0x0800b43c
 800890c:	0800b35c 	.word	0x0800b35c
 8008910:	0800b3d0 	.word	0x0800b3d0
 8008914:	9b15      	ldr	r3, [sp, #84]	; 0x54
 8008916:	2b00      	cmp	r3, #0
 8008918:	d1eb      	bne.n	80088f2 <__gethex+0x2ee>
 800891a:	e7d8      	b.n	80088ce <__gethex+0x2ca>
 800891c:	9b15      	ldr	r3, [sp, #84]	; 0x54
 800891e:	2b00      	cmp	r3, #0
 8008920:	d1d5      	bne.n	80088ce <__gethex+0x2ca>
 8008922:	e7e6      	b.n	80088f2 <__gethex+0x2ee>
 8008924:	1e6f      	subs	r7, r5, #1
 8008926:	f1ba 0f00 	cmp.w	sl, #0
 800892a:	d131      	bne.n	8008990 <__gethex+0x38c>
 800892c:	b127      	cbz	r7, 8008938 <__gethex+0x334>
 800892e:	4639      	mov	r1, r7
 8008930:	4620      	mov	r0, r4
 8008932:	f000 fe9d 	bl	8009670 <__any_on>
 8008936:	4682      	mov	sl, r0
 8008938:	117b      	asrs	r3, r7, #5
 800893a:	2101      	movs	r1, #1
 800893c:	f859 3023 	ldr.w	r3, [r9, r3, lsl #2]
 8008940:	f007 071f 	and.w	r7, r7, #31
 8008944:	fa01 f707 	lsl.w	r7, r1, r7
 8008948:	421f      	tst	r7, r3
 800894a:	4629      	mov	r1, r5
 800894c:	4620      	mov	r0, r4
 800894e:	bf18      	it	ne
 8008950:	f04a 0a02 	orrne.w	sl, sl, #2
 8008954:	1b76      	subs	r6, r6, r5
 8008956:	f7ff fdee 	bl	8008536 <rshift>
 800895a:	f8d8 5004 	ldr.w	r5, [r8, #4]
 800895e:	2702      	movs	r7, #2
 8008960:	f1ba 0f00 	cmp.w	sl, #0
 8008964:	d048      	beq.n	80089f8 <__gethex+0x3f4>
 8008966:	f8d8 300c 	ldr.w	r3, [r8, #12]
 800896a:	2b02      	cmp	r3, #2
 800896c:	d015      	beq.n	800899a <__gethex+0x396>
 800896e:	2b03      	cmp	r3, #3
 8008970:	d017      	beq.n	80089a2 <__gethex+0x39e>
 8008972:	2b01      	cmp	r3, #1
 8008974:	d109      	bne.n	800898a <__gethex+0x386>
 8008976:	f01a 0f02 	tst.w	sl, #2
 800897a:	d006      	beq.n	800898a <__gethex+0x386>
 800897c:	f8d9 0000 	ldr.w	r0, [r9]
 8008980:	ea4a 0a00 	orr.w	sl, sl, r0
 8008984:	f01a 0f01 	tst.w	sl, #1
 8008988:	d10e      	bne.n	80089a8 <__gethex+0x3a4>
 800898a:	f047 0710 	orr.w	r7, r7, #16
 800898e:	e033      	b.n	80089f8 <__gethex+0x3f4>
 8008990:	f04f 0a01 	mov.w	sl, #1
 8008994:	e7d0      	b.n	8008938 <__gethex+0x334>
 8008996:	2701      	movs	r7, #1
 8008998:	e7e2      	b.n	8008960 <__gethex+0x35c>
 800899a:	9b15      	ldr	r3, [sp, #84]	; 0x54
 800899c:	f1c3 0301 	rsb	r3, r3, #1
 80089a0:	9315      	str	r3, [sp, #84]	; 0x54
 80089a2:	9b15      	ldr	r3, [sp, #84]	; 0x54
 80089a4:	2b00      	cmp	r3, #0
 80089a6:	d0f0      	beq.n	800898a <__gethex+0x386>
 80089a8:	f8d4 b010 	ldr.w	fp, [r4, #16]
 80089ac:	f104 0314 	add.w	r3, r4, #20
 80089b0:	ea4f 0a8b 	mov.w	sl, fp, lsl #2
 80089b4:	eb03 018b 	add.w	r1, r3, fp, lsl #2
 80089b8:	f04f 0c00 	mov.w	ip, #0
 80089bc:	4618      	mov	r0, r3
 80089be:	f853 2b04 	ldr.w	r2, [r3], #4
 80089c2:	f1b2 3fff 	cmp.w	r2, #4294967295
 80089c6:	d01c      	beq.n	8008a02 <__gethex+0x3fe>
 80089c8:	3201      	adds	r2, #1
 80089ca:	6002      	str	r2, [r0, #0]
 80089cc:	2f02      	cmp	r7, #2
 80089ce:	f104 0314 	add.w	r3, r4, #20
 80089d2:	d13f      	bne.n	8008a54 <__gethex+0x450>
 80089d4:	f8d8 2000 	ldr.w	r2, [r8]
 80089d8:	3a01      	subs	r2, #1
 80089da:	42b2      	cmp	r2, r6
 80089dc:	d10a      	bne.n	80089f4 <__gethex+0x3f0>
 80089de:	1171      	asrs	r1, r6, #5
 80089e0:	2201      	movs	r2, #1
 80089e2:	f853 3021 	ldr.w	r3, [r3, r1, lsl #2]
 80089e6:	f006 061f 	and.w	r6, r6, #31
 80089ea:	fa02 f606 	lsl.w	r6, r2, r6
 80089ee:	421e      	tst	r6, r3
 80089f0:	bf18      	it	ne
 80089f2:	4617      	movne	r7, r2
 80089f4:	f047 0720 	orr.w	r7, r7, #32
 80089f8:	9b14      	ldr	r3, [sp, #80]	; 0x50
 80089fa:	601c      	str	r4, [r3, #0]
 80089fc:	9b04      	ldr	r3, [sp, #16]
 80089fe:	601d      	str	r5, [r3, #0]
 8008a00:	e695      	b.n	800872e <__gethex+0x12a>
 8008a02:	4299      	cmp	r1, r3
 8008a04:	f843 cc04 	str.w	ip, [r3, #-4]
 8008a08:	d8d8      	bhi.n	80089bc <__gethex+0x3b8>
 8008a0a:	68a3      	ldr	r3, [r4, #8]
 8008a0c:	459b      	cmp	fp, r3
 8008a0e:	db19      	blt.n	8008a44 <__gethex+0x440>
 8008a10:	6861      	ldr	r1, [r4, #4]
 8008a12:	ee18 0a10 	vmov	r0, s16
 8008a16:	3101      	adds	r1, #1
 8008a18:	f000 f990 	bl	8008d3c <_Balloc>
 8008a1c:	4681      	mov	r9, r0
 8008a1e:	b918      	cbnz	r0, 8008a28 <__gethex+0x424>
 8008a20:	4b1a      	ldr	r3, [pc, #104]	; (8008a8c <__gethex+0x488>)
 8008a22:	4602      	mov	r2, r0
 8008a24:	2184      	movs	r1, #132	; 0x84
 8008a26:	e6a8      	b.n	800877a <__gethex+0x176>
 8008a28:	6922      	ldr	r2, [r4, #16]
 8008a2a:	3202      	adds	r2, #2
 8008a2c:	f104 010c 	add.w	r1, r4, #12
 8008a30:	0092      	lsls	r2, r2, #2
 8008a32:	300c      	adds	r0, #12
 8008a34:	f000 f974 	bl	8008d20 <memcpy>
 8008a38:	4621      	mov	r1, r4
 8008a3a:	ee18 0a10 	vmov	r0, s16
 8008a3e:	f000 f9bd 	bl	8008dbc <_Bfree>
 8008a42:	464c      	mov	r4, r9
 8008a44:	6923      	ldr	r3, [r4, #16]
 8008a46:	1c5a      	adds	r2, r3, #1
 8008a48:	eb04 0383 	add.w	r3, r4, r3, lsl #2
 8008a4c:	6122      	str	r2, [r4, #16]
 8008a4e:	2201      	movs	r2, #1
 8008a50:	615a      	str	r2, [r3, #20]
 8008a52:	e7bb      	b.n	80089cc <__gethex+0x3c8>
 8008a54:	6922      	ldr	r2, [r4, #16]
 8008a56:	455a      	cmp	r2, fp
 8008a58:	dd0b      	ble.n	8008a72 <__gethex+0x46e>
 8008a5a:	2101      	movs	r1, #1
 8008a5c:	4620      	mov	r0, r4
 8008a5e:	f7ff fd6a 	bl	8008536 <rshift>
 8008a62:	f8d8 3008 	ldr.w	r3, [r8, #8]
 8008a66:	3501      	adds	r5, #1
 8008a68:	42ab      	cmp	r3, r5
 8008a6a:	f6ff aed0 	blt.w	800880e <__gethex+0x20a>
 8008a6e:	2701      	movs	r7, #1
 8008a70:	e7c0      	b.n	80089f4 <__gethex+0x3f0>
 8008a72:	f016 061f 	ands.w	r6, r6, #31
 8008a76:	d0fa      	beq.n	8008a6e <__gethex+0x46a>
 8008a78:	449a      	add	sl, r3
 8008a7a:	f1c6 0620 	rsb	r6, r6, #32
 8008a7e:	f85a 0c04 	ldr.w	r0, [sl, #-4]
 8008a82:	f000 fa51 	bl	8008f28 <__hi0bits>
 8008a86:	42b0      	cmp	r0, r6
 8008a88:	dbe7      	blt.n	8008a5a <__gethex+0x456>
 8008a8a:	e7f0      	b.n	8008a6e <__gethex+0x46a>
 8008a8c:	0800b35c 	.word	0x0800b35c

08008a90 <L_shift>:
 8008a90:	f1c2 0208 	rsb	r2, r2, #8
 8008a94:	0092      	lsls	r2, r2, #2
 8008a96:	b570      	push	{r4, r5, r6, lr}
 8008a98:	f1c2 0620 	rsb	r6, r2, #32
 8008a9c:	6843      	ldr	r3, [r0, #4]
 8008a9e:	6804      	ldr	r4, [r0, #0]
 8008aa0:	fa03 f506 	lsl.w	r5, r3, r6
 8008aa4:	432c      	orrs	r4, r5
 8008aa6:	40d3      	lsrs	r3, r2
 8008aa8:	6004      	str	r4, [r0, #0]
 8008aaa:	f840 3f04 	str.w	r3, [r0, #4]!
 8008aae:	4288      	cmp	r0, r1
 8008ab0:	d3f4      	bcc.n	8008a9c <L_shift+0xc>
 8008ab2:	bd70      	pop	{r4, r5, r6, pc}

08008ab4 <__match>:
 8008ab4:	b530      	push	{r4, r5, lr}
 8008ab6:	6803      	ldr	r3, [r0, #0]
 8008ab8:	3301      	adds	r3, #1
 8008aba:	f811 4b01 	ldrb.w	r4, [r1], #1
 8008abe:	b914      	cbnz	r4, 8008ac6 <__match+0x12>
 8008ac0:	6003      	str	r3, [r0, #0]
 8008ac2:	2001      	movs	r0, #1
 8008ac4:	bd30      	pop	{r4, r5, pc}
 8008ac6:	f813 2b01 	ldrb.w	r2, [r3], #1
 8008aca:	f1a2 0541 	sub.w	r5, r2, #65	; 0x41
 8008ace:	2d19      	cmp	r5, #25
 8008ad0:	bf98      	it	ls
 8008ad2:	3220      	addls	r2, #32
 8008ad4:	42a2      	cmp	r2, r4
 8008ad6:	d0f0      	beq.n	8008aba <__match+0x6>
 8008ad8:	2000      	movs	r0, #0
 8008ada:	e7f3      	b.n	8008ac4 <__match+0x10>

08008adc <__hexnan>:
 8008adc:	e92d 4ff0 	stmdb	sp!, {r4, r5, r6, r7, r8, r9, sl, fp, lr}
 8008ae0:	680b      	ldr	r3, [r1, #0]
 8008ae2:	6801      	ldr	r1, [r0, #0]
 8008ae4:	115e      	asrs	r6, r3, #5
 8008ae6:	eb02 0686 	add.w	r6, r2, r6, lsl #2
 8008aea:	f013 031f 	ands.w	r3, r3, #31
 8008aee:	b087      	sub	sp, #28
 8008af0:	bf18      	it	ne
 8008af2:	3604      	addne	r6, #4
 8008af4:	2500      	movs	r5, #0
 8008af6:	1f37      	subs	r7, r6, #4
 8008af8:	4682      	mov	sl, r0
 8008afa:	4690      	mov	r8, r2
 8008afc:	9301      	str	r3, [sp, #4]
 8008afe:	f846 5c04 	str.w	r5, [r6, #-4]
 8008b02:	46b9      	mov	r9, r7
 8008b04:	463c      	mov	r4, r7
 8008b06:	9502      	str	r5, [sp, #8]
 8008b08:	46ab      	mov	fp, r5
 8008b0a:	784a      	ldrb	r2, [r1, #1]
 8008b0c:	1c4b      	adds	r3, r1, #1
 8008b0e:	9303      	str	r3, [sp, #12]
 8008b10:	b342      	cbz	r2, 8008b64 <__hexnan+0x88>
 8008b12:	4610      	mov	r0, r2
 8008b14:	9105      	str	r1, [sp, #20]
 8008b16:	9204      	str	r2, [sp, #16]
 8008b18:	f7ff fd5f 	bl	80085da <__hexdig_fun>
 8008b1c:	2800      	cmp	r0, #0
 8008b1e:	d14f      	bne.n	8008bc0 <__hexnan+0xe4>
 8008b20:	9a04      	ldr	r2, [sp, #16]
 8008b22:	9905      	ldr	r1, [sp, #20]
 8008b24:	2a20      	cmp	r2, #32
 8008b26:	d818      	bhi.n	8008b5a <__hexnan+0x7e>
 8008b28:	9b02      	ldr	r3, [sp, #8]
 8008b2a:	459b      	cmp	fp, r3
 8008b2c:	dd13      	ble.n	8008b56 <__hexnan+0x7a>
 8008b2e:	454c      	cmp	r4, r9
 8008b30:	d206      	bcs.n	8008b40 <__hexnan+0x64>
 8008b32:	2d07      	cmp	r5, #7
 8008b34:	dc04      	bgt.n	8008b40 <__hexnan+0x64>
 8008b36:	462a      	mov	r2, r5
 8008b38:	4649      	mov	r1, r9
 8008b3a:	4620      	mov	r0, r4
 8008b3c:	f7ff ffa8 	bl	8008a90 <L_shift>
 8008b40:	4544      	cmp	r4, r8
 8008b42:	d950      	bls.n	8008be6 <__hexnan+0x10a>
 8008b44:	2300      	movs	r3, #0
 8008b46:	f1a4 0904 	sub.w	r9, r4, #4
 8008b4a:	f844 3c04 	str.w	r3, [r4, #-4]
 8008b4e:	f8cd b008 	str.w	fp, [sp, #8]
 8008b52:	464c      	mov	r4, r9
 8008b54:	461d      	mov	r5, r3
 8008b56:	9903      	ldr	r1, [sp, #12]
 8008b58:	e7d7      	b.n	8008b0a <__hexnan+0x2e>
 8008b5a:	2a29      	cmp	r2, #41	; 0x29
 8008b5c:	d156      	bne.n	8008c0c <__hexnan+0x130>
 8008b5e:	3102      	adds	r1, #2
 8008b60:	f8ca 1000 	str.w	r1, [sl]
 8008b64:	f1bb 0f00 	cmp.w	fp, #0
 8008b68:	d050      	beq.n	8008c0c <__hexnan+0x130>
 8008b6a:	454c      	cmp	r4, r9
 8008b6c:	d206      	bcs.n	8008b7c <__hexnan+0xa0>
 8008b6e:	2d07      	cmp	r5, #7
 8008b70:	dc04      	bgt.n	8008b7c <__hexnan+0xa0>
 8008b72:	462a      	mov	r2, r5
 8008b74:	4649      	mov	r1, r9
 8008b76:	4620      	mov	r0, r4
 8008b78:	f7ff ff8a 	bl	8008a90 <L_shift>
 8008b7c:	4544      	cmp	r4, r8
 8008b7e:	d934      	bls.n	8008bea <__hexnan+0x10e>
 8008b80:	f1a8 0204 	sub.w	r2, r8, #4
 8008b84:	4623      	mov	r3, r4
 8008b86:	f853 1b04 	ldr.w	r1, [r3], #4
 8008b8a:	f842 1f04 	str.w	r1, [r2, #4]!
 8008b8e:	429f      	cmp	r7, r3
 8008b90:	d2f9      	bcs.n	8008b86 <__hexnan+0xaa>
 8008b92:	1b3b      	subs	r3, r7, r4
 8008b94:	f023 0303 	bic.w	r3, r3, #3
 8008b98:	3304      	adds	r3, #4
 8008b9a:	3401      	adds	r4, #1
 8008b9c:	3e03      	subs	r6, #3
 8008b9e:	42b4      	cmp	r4, r6
 8008ba0:	bf88      	it	hi
 8008ba2:	2304      	movhi	r3, #4
 8008ba4:	4443      	add	r3, r8
 8008ba6:	2200      	movs	r2, #0
 8008ba8:	f843 2b04 	str.w	r2, [r3], #4
 8008bac:	429f      	cmp	r7, r3
 8008bae:	d2fb      	bcs.n	8008ba8 <__hexnan+0xcc>
 8008bb0:	683b      	ldr	r3, [r7, #0]
 8008bb2:	b91b      	cbnz	r3, 8008bbc <__hexnan+0xe0>
 8008bb4:	4547      	cmp	r7, r8
 8008bb6:	d127      	bne.n	8008c08 <__hexnan+0x12c>
 8008bb8:	2301      	movs	r3, #1
 8008bba:	603b      	str	r3, [r7, #0]
 8008bbc:	2005      	movs	r0, #5
 8008bbe:	e026      	b.n	8008c0e <__hexnan+0x132>
 8008bc0:	3501      	adds	r5, #1
 8008bc2:	2d08      	cmp	r5, #8
 8008bc4:	f10b 0b01 	add.w	fp, fp, #1
 8008bc8:	dd06      	ble.n	8008bd8 <__hexnan+0xfc>
 8008bca:	4544      	cmp	r4, r8
 8008bcc:	d9c3      	bls.n	8008b56 <__hexnan+0x7a>
 8008bce:	2300      	movs	r3, #0
 8008bd0:	f844 3c04 	str.w	r3, [r4, #-4]
 8008bd4:	2501      	movs	r5, #1
 8008bd6:	3c04      	subs	r4, #4
 8008bd8:	6822      	ldr	r2, [r4, #0]
 8008bda:	f000 000f 	and.w	r0, r0, #15
 8008bde:	ea40 1202 	orr.w	r2, r0, r2, lsl #4
 8008be2:	6022      	str	r2, [r4, #0]
 8008be4:	e7b7      	b.n	8008b56 <__hexnan+0x7a>
 8008be6:	2508      	movs	r5, #8
 8008be8:	e7b5      	b.n	8008b56 <__hexnan+0x7a>
 8008bea:	9b01      	ldr	r3, [sp, #4]
 8008bec:	2b00      	cmp	r3, #0
 8008bee:	d0df      	beq.n	8008bb0 <__hexnan+0xd4>
 8008bf0:	f04f 32ff 	mov.w	r2, #4294967295
 8008bf4:	f1c3 0320 	rsb	r3, r3, #32
 8008bf8:	fa22 f303 	lsr.w	r3, r2, r3
 8008bfc:	f856 2c04 	ldr.w	r2, [r6, #-4]
 8008c00:	401a      	ands	r2, r3
 8008c02:	f846 2c04 	str.w	r2, [r6, #-4]
 8008c06:	e7d3      	b.n	8008bb0 <__hexnan+0xd4>
 8008c08:	3f04      	subs	r7, #4
 8008c0a:	e7d1      	b.n	8008bb0 <__hexnan+0xd4>
 8008c0c:	2004      	movs	r0, #4
 8008c0e:	b007      	add	sp, #28
 8008c10:	e8bd 8ff0 	ldmia.w	sp!, {r4, r5, r6, r7, r8, r9, sl, fp, pc}

08008c14 <_localeconv_r>:
 8008c14:	4800      	ldr	r0, [pc, #0]	; (8008c18 <_localeconv_r+0x4>)
 8008c16:	4770      	bx	lr
 8008c18:	2000016c 	.word	0x2000016c

08008c1c <__retarget_lock_init_recursive>:
 8008c1c:	4770      	bx	lr

08008c1e <__retarget_lock_acquire_recursive>:
 8008c1e:	4770      	bx	lr

08008c20 <__retarget_lock_release_recursive>:
 8008c20:	4770      	bx	lr

08008c22 <__swhatbuf_r>:
 8008c22:	b570      	push	{r4, r5, r6, lr}
 8008c24:	460e      	mov	r6, r1
 8008c26:	f9b1 100e 	ldrsh.w	r1, [r1, #14]
 8008c2a:	2900      	cmp	r1, #0
 8008c2c:	b096      	sub	sp, #88	; 0x58
 8008c2e:	4614      	mov	r4, r2
 8008c30:	461d      	mov	r5, r3
 8008c32:	da07      	bge.n	8008c44 <__swhatbuf_r+0x22>
 8008c34:	2300      	movs	r3, #0
 8008c36:	602b      	str	r3, [r5, #0]
 8008c38:	89b3      	ldrh	r3, [r6, #12]
 8008c3a:	061a      	lsls	r2, r3, #24
 8008c3c:	d410      	bmi.n	8008c60 <__swhatbuf_r+0x3e>
 8008c3e:	f44f 6380 	mov.w	r3, #1024	; 0x400
 8008c42:	e00e      	b.n	8008c62 <__swhatbuf_r+0x40>
 8008c44:	466a      	mov	r2, sp
 8008c46:	f001 f96f 	bl	8009f28 <_fstat_r>
 8008c4a:	2800      	cmp	r0, #0
 8008c4c:	dbf2      	blt.n	8008c34 <__swhatbuf_r+0x12>
 8008c4e:	9a01      	ldr	r2, [sp, #4]
 8008c50:	f402 4270 	and.w	r2, r2, #61440	; 0xf000
 8008c54:	f5a2 5300 	sub.w	r3, r2, #8192	; 0x2000
 8008c58:	425a      	negs	r2, r3
 8008c5a:	415a      	adcs	r2, r3
 8008c5c:	602a      	str	r2, [r5, #0]
 8008c5e:	e7ee      	b.n	8008c3e <__swhatbuf_r+0x1c>
 8008c60:	2340      	movs	r3, #64	; 0x40
 8008c62:	2000      	movs	r0, #0
 8008c64:	6023      	str	r3, [r4, #0]
 8008c66:	b016      	add	sp, #88	; 0x58
 8008c68:	bd70      	pop	{r4, r5, r6, pc}
	...

08008c6c <__smakebuf_r>:
 8008c6c:	898b      	ldrh	r3, [r1, #12]
 8008c6e:	b573      	push	{r0, r1, r4, r5, r6, lr}
 8008c70:	079d      	lsls	r5, r3, #30
 8008c72:	4606      	mov	r6, r0
 8008c74:	460c      	mov	r4, r1
 8008c76:	d507      	bpl.n	8008c88 <__smakebuf_r+0x1c>
 8008c78:	f104 0347 	add.w	r3, r4, #71	; 0x47
 8008c7c:	6023      	str	r3, [r4, #0]
 8008c7e:	6123      	str	r3, [r4, #16]
 8008c80:	2301      	movs	r3, #1
 8008c82:	6163      	str	r3, [r4, #20]
 8008c84:	b002      	add	sp, #8
 8008c86:	bd70      	pop	{r4, r5, r6, pc}
 8008c88:	ab01      	add	r3, sp, #4
 8008c8a:	466a      	mov	r2, sp
 8008c8c:	f7ff ffc9 	bl	8008c22 <__swhatbuf_r>
 8008c90:	9900      	ldr	r1, [sp, #0]
 8008c92:	4605      	mov	r5, r0
 8008c94:	4630      	mov	r0, r6
 8008c96:	f000 fd6b 	bl	8009770 <_malloc_r>
 8008c9a:	b948      	cbnz	r0, 8008cb0 <__smakebuf_r+0x44>
 8008c9c:	f9b4 300c 	ldrsh.w	r3, [r4, #12]
 8008ca0:	059a      	lsls	r2, r3, #22
 8008ca2:	d4ef      	bmi.n	8008c84 <__smakebuf_r+0x18>
 8008ca4:	f023 0303 	bic.w	r3, r3, #3
 8008ca8:	f043 0302 	orr.w	r3, r3, #2
 8008cac:	81a3      	strh	r3, [r4, #12]
 8008cae:	e7e3      	b.n	8008c78 <__smakebuf_r+0xc>
 8008cb0:	4b0d      	ldr	r3, [pc, #52]	; (8008ce8 <__smakebuf_r+0x7c>)
 8008cb2:	62b3      	str	r3, [r6, #40]	; 0x28
 8008cb4:	89a3      	ldrh	r3, [r4, #12]
 8008cb6:	6020      	str	r0, [r4, #0]
 8008cb8:	f043 0380 	orr.w	r3, r3, #128	; 0x80
 8008cbc:	81a3      	strh	r3, [r4, #12]
 8008cbe:	9b00      	ldr	r3, [sp, #0]
 8008cc0:	6163      	str	r3, [r4, #20]
 8008cc2:	9b01      	ldr	r3, [sp, #4]
 8008cc4:	6120      	str	r0, [r4, #16]
 8008cc6:	b15b      	cbz	r3, 8008ce0 <__smakebuf_r+0x74>
 8008cc8:	f9b4 100e 	ldrsh.w	r1, [r4, #14]
 8008ccc:	4630      	mov	r0, r6
 8008cce:	f001 f93d 	bl	8009f4c <_isatty_r>
 8008cd2:	b128      	cbz	r0, 8008ce0 <__smakebuf_r+0x74>
 8008cd4:	89a3      	ldrh	r3, [r4, #12]
 8008cd6:	f023 0303 	bic.w	r3, r3, #3
 8008cda:	f043 0301 	orr.w	r3, r3, #1
 8008cde:	81a3      	strh	r3, [r4, #12]
 8008ce0:	89a0      	ldrh	r0, [r4, #12]
 8008ce2:	4305      	orrs	r5, r0
 8008ce4:	81a5      	strh	r5, [r4, #12]
 8008ce6:	e7cd      	b.n	8008c84 <__smakebuf_r+0x18>
 8008ce8:	08008395 	.word	0x08008395

08008cec <malloc>:
 8008cec:	4b02      	ldr	r3, [pc, #8]	; (8008cf8 <malloc+0xc>)
 8008cee:	4601      	mov	r1, r0
 8008cf0:	6818      	ldr	r0, [r3, #0]
 8008cf2:	f000 bd3d 	b.w	8009770 <_malloc_r>
 8008cf6:	bf00      	nop
 8008cf8:	20000014 	.word	0x20000014

08008cfc <__ascii_mbtowc>:
 8008cfc:	b082      	sub	sp, #8
 8008cfe:	b901      	cbnz	r1, 8008d02 <__ascii_mbtowc+0x6>
 8008d00:	a901      	add	r1, sp, #4
 8008d02:	b142      	cbz	r2, 8008d16 <__ascii_mbtowc+0x1a>
 8008d04:	b14b      	cbz	r3, 8008d1a <__ascii_mbtowc+0x1e>
 8008d06:	7813      	ldrb	r3, [r2, #0]
 8008d08:	600b      	str	r3, [r1, #0]
 8008d0a:	7812      	ldrb	r2, [r2, #0]
 8008d0c:	1e10      	subs	r0, r2, #0
 8008d0e:	bf18      	it	ne
 8008d10:	2001      	movne	r0, #1
 8008d12:	b002      	add	sp, #8
 8008d14:	4770      	bx	lr
 8008d16:	4610      	mov	r0, r2
 8008d18:	e7fb      	b.n	8008d12 <__ascii_mbtowc+0x16>
 8008d1a:	f06f 0001 	mvn.w	r0, #1
 8008d1e:	e7f8      	b.n	8008d12 <__ascii_mbtowc+0x16>

08008d20 <memcpy>:
 8008d20:	440a      	add	r2, r1
 8008d22:	4291      	cmp	r1, r2
 8008d24:	f100 33ff 	add.w	r3, r0, #4294967295
 8008d28:	d100      	bne.n	8008d2c <memcpy+0xc>
 8008d2a:	4770      	bx	lr
 8008d2c:	b510      	push	{r4, lr}
 8008d2e:	f811 4b01 	ldrb.w	r4, [r1], #1
 8008d32:	f803 4f01 	strb.w	r4, [r3, #1]!
 8008d36:	4291      	cmp	r1, r2
 8008d38:	d1f9      	bne.n	8008d2e <memcpy+0xe>
 8008d3a:	bd10      	pop	{r4, pc}

08008d3c <_Balloc>:
 8008d3c:	b570      	push	{r4, r5, r6, lr}
 8008d3e:	6a46      	ldr	r6, [r0, #36]	; 0x24
 8008d40:	4604      	mov	r4, r0
 8008d42:	460d      	mov	r5, r1
 8008d44:	b976      	cbnz	r6, 8008d64 <_Balloc+0x28>
 8008d46:	2010      	movs	r0, #16
 8008d48:	f7ff ffd0 	bl	8008cec <malloc>
 8008d4c:	4602      	mov	r2, r0
 8008d4e:	6260      	str	r0, [r4, #36]	; 0x24
 8008d50:	b920      	cbnz	r0, 8008d5c <_Balloc+0x20>
 8008d52:	4b18      	ldr	r3, [pc, #96]	; (8008db4 <_Balloc+0x78>)
 8008d54:	4818      	ldr	r0, [pc, #96]	; (8008db8 <_Balloc+0x7c>)
 8008d56:	2166      	movs	r1, #102	; 0x66
 8008d58:	f001 f8a6 	bl	8009ea8 <__assert_func>
 8008d5c:	e9c0 6601 	strd	r6, r6, [r0, #4]
 8008d60:	6006      	str	r6, [r0, #0]
 8008d62:	60c6      	str	r6, [r0, #12]
 8008d64:	6a66      	ldr	r6, [r4, #36]	; 0x24
 8008d66:	68f3      	ldr	r3, [r6, #12]
 8008d68:	b183      	cbz	r3, 8008d8c <_Balloc+0x50>
 8008d6a:	6a63      	ldr	r3, [r4, #36]	; 0x24
 8008d6c:	68db      	ldr	r3, [r3, #12]
 8008d6e:	f853 0025 	ldr.w	r0, [r3, r5, lsl #2]
 8008d72:	b9b8      	cbnz	r0, 8008da4 <_Balloc+0x68>
 8008d74:	2101      	movs	r1, #1
 8008d76:	fa01 f605 	lsl.w	r6, r1, r5
 8008d7a:	1d72      	adds	r2, r6, #5
 8008d7c:	0092      	lsls	r2, r2, #2
 8008d7e:	4620      	mov	r0, r4
 8008d80:	f000 fc97 	bl	80096b2 <_calloc_r>
 8008d84:	b160      	cbz	r0, 8008da0 <_Balloc+0x64>
 8008d86:	e9c0 5601 	strd	r5, r6, [r0, #4]
 8008d8a:	e00e      	b.n	8008daa <_Balloc+0x6e>
 8008d8c:	2221      	movs	r2, #33	; 0x21
 8008d8e:	2104      	movs	r1, #4
 8008d90:	4620      	mov	r0, r4
 8008d92:	f000 fc8e 	bl	80096b2 <_calloc_r>
 8008d96:	6a63      	ldr	r3, [r4, #36]	; 0x24
 8008d98:	60f0      	str	r0, [r6, #12]
 8008d9a:	68db      	ldr	r3, [r3, #12]
 8008d9c:	2b00      	cmp	r3, #0
 8008d9e:	d1e4      	bne.n	8008d6a <_Balloc+0x2e>
 8008da0:	2000      	movs	r0, #0
 8008da2:	bd70      	pop	{r4, r5, r6, pc}
 8008da4:	6802      	ldr	r2, [r0, #0]
 8008da6:	f843 2025 	str.w	r2, [r3, r5, lsl #2]
 8008daa:	2300      	movs	r3, #0
 8008dac:	e9c0 3303 	strd	r3, r3, [r0, #12]
 8008db0:	e7f7      	b.n	8008da2 <_Balloc+0x66>
 8008db2:	bf00      	nop
 8008db4:	0800b2e6 	.word	0x0800b2e6
 8008db8:	0800b450 	.word	0x0800b450

08008dbc <_Bfree>:
 8008dbc:	b570      	push	{r4, r5, r6, lr}
 8008dbe:	6a46      	ldr	r6, [r0, #36]	; 0x24
 8008dc0:	4605      	mov	r5, r0
 8008dc2:	460c      	mov	r4, r1
 8008dc4:	b976      	cbnz	r6, 8008de4 <_Bfree+0x28>
 8008dc6:	2010      	movs	r0, #16
 8008dc8:	f7ff ff90 	bl	8008cec <malloc>
 8008dcc:	4602      	mov	r2, r0
 8008dce:	6268      	str	r0, [r5, #36]	; 0x24
 8008dd0:	b920      	cbnz	r0, 8008ddc <_Bfree+0x20>
 8008dd2:	4b09      	ldr	r3, [pc, #36]	; (8008df8 <_Bfree+0x3c>)
 8008dd4:	4809      	ldr	r0, [pc, #36]	; (8008dfc <_Bfree+0x40>)
 8008dd6:	218a      	movs	r1, #138	; 0x8a
 8008dd8:	f001 f866 	bl	8009ea8 <__assert_func>
 8008ddc:	e9c0 6601 	strd	r6, r6, [r0, #4]
 8008de0:	6006      	str	r6, [r0, #0]
 8008de2:	60c6      	str	r6, [r0, #12]
 8008de4:	b13c      	cbz	r4, 8008df6 <_Bfree+0x3a>
 8008de6:	6a6b      	ldr	r3, [r5, #36]	; 0x24
 8008de8:	6862      	ldr	r2, [r4, #4]
 8008dea:	68db      	ldr	r3, [r3, #12]
 8008dec:	f853 1022 	ldr.w	r1, [r3, r2, lsl #2]
 8008df0:	6021      	str	r1, [r4, #0]
 8008df2:	f843 4022 	str.w	r4, [r3, r2, lsl #2]
 8008df6:	bd70      	pop	{r4, r5, r6, pc}
 8008df8:	0800b2e6 	.word	0x0800b2e6
 8008dfc:	0800b450 	.word	0x0800b450

08008e00 <__multadd>:
 8008e00:	e92d 41f0 	stmdb	sp!, {r4, r5, r6, r7, r8, lr}
 8008e04:	690e      	ldr	r6, [r1, #16]
 8008e06:	4607      	mov	r7, r0
 8008e08:	4698      	mov	r8, r3
 8008e0a:	460c      	mov	r4, r1
 8008e0c:	f101 0014 	add.w	r0, r1, #20
 8008e10:	2300      	movs	r3, #0
 8008e12:	6805      	ldr	r5, [r0, #0]
 8008e14:	b2a9      	uxth	r1, r5
 8008e16:	fb02 8101 	mla	r1, r2, r1, r8
 8008e1a:	ea4f 4c11 	mov.w	ip, r1, lsr #16
 8008e1e:	0c2d      	lsrs	r5, r5, #16
 8008e20:	fb02 c505 	mla	r5, r2, r5, ip
 8008e24:	b289      	uxth	r1, r1
 8008e26:	3301      	adds	r3, #1
 8008e28:	eb01 4105 	add.w	r1, r1, r5, lsl #16
 8008e2c:	429e      	cmp	r6, r3
 8008e2e:	f840 1b04 	str.w	r1, [r0], #4
 8008e32:	ea4f 4815 	mov.w	r8, r5, lsr #16
 8008e36:	dcec      	bgt.n	8008e12 <__multadd+0x12>
 8008e38:	f1b8 0f00 	cmp.w	r8, #0
 8008e3c:	d022      	beq.n	8008e84 <__multadd+0x84>
 8008e3e:	68a3      	ldr	r3, [r4, #8]
 8008e40:	42b3      	cmp	r3, r6
 8008e42:	dc19      	bgt.n	8008e78 <__multadd+0x78>
 8008e44:	6861      	ldr	r1, [r4, #4]
 8008e46:	4638      	mov	r0, r7
 8008e48:	3101      	adds	r1, #1
 8008e4a:	f7ff ff77 	bl	8008d3c <_Balloc>
 8008e4e:	4605      	mov	r5, r0
 8008e50:	b928      	cbnz	r0, 8008e5e <__multadd+0x5e>
 8008e52:	4602      	mov	r2, r0
 8008e54:	4b0d      	ldr	r3, [pc, #52]	; (8008e8c <__multadd+0x8c>)
 8008e56:	480e      	ldr	r0, [pc, #56]	; (8008e90 <__multadd+0x90>)
 8008e58:	21b5      	movs	r1, #181	; 0xb5
 8008e5a:	f001 f825 	bl	8009ea8 <__assert_func>
 8008e5e:	6922      	ldr	r2, [r4, #16]
 8008e60:	3202      	adds	r2, #2
 8008e62:	f104 010c 	add.w	r1, r4, #12
 8008e66:	0092      	lsls	r2, r2, #2
 8008e68:	300c      	adds	r0, #12
 8008e6a:	f7ff ff59 	bl	8008d20 <memcpy>
 8008e6e:	4621      	mov	r1, r4
 8008e70:	4638      	mov	r0, r7
 8008e72:	f7ff ffa3 	bl	8008dbc <_Bfree>
 8008e76:	462c      	mov	r4, r5
 8008e78:	eb04 0386 	add.w	r3, r4, r6, lsl #2
 8008e7c:	3601      	adds	r6, #1
 8008e7e:	f8c3 8014 	str.w	r8, [r3, #20]
 8008e82:	6126      	str	r6, [r4, #16]
 8008e84:	4620      	mov	r0, r4
 8008e86:	e8bd 81f0 	ldmia.w	sp!, {r4, r5, r6, r7, r8, pc}
 8008e8a:	bf00      	nop
 8008e8c:	0800b35c 	.word	0x0800b35c
 8008e90:	0800b450 	.word	0x0800b450

08008e94 <__s2b>:
 8008e94:	e92d 43f8 	stmdb	sp!, {r3, r4, r5, r6, r7, r8, r9, lr}
 8008e98:	460c      	mov	r4, r1
 8008e9a:	4615      	mov	r5, r2
 8008e9c:	461f      	mov	r7, r3
 8008e9e:	2209      	movs	r2, #9
 8008ea0:	3308      	adds	r3, #8
 8008ea2:	4606      	mov	r6, r0
 8008ea4:	fb93 f3f2 	sdiv	r3, r3, r2
 8008ea8:	2100      	movs	r1, #0
 8008eaa:	2201      	movs	r2, #1
 8008eac:	429a      	cmp	r2, r3
 8008eae:	db09      	blt.n	8008ec4 <__s2b+0x30>
 8008eb0:	4630      	mov	r0, r6
 8008eb2:	f7ff ff43 	bl	8008d3c <_Balloc>
 8008eb6:	b940      	cbnz	r0, 8008eca <__s2b+0x36>
 8008eb8:	4602      	mov	r2, r0
 8008eba:	4b19      	ldr	r3, [pc, #100]	; (8008f20 <__s2b+0x8c>)
 8008ebc:	4819      	ldr	r0, [pc, #100]	; (8008f24 <__s2b+0x90>)
 8008ebe:	21ce      	movs	r1, #206	; 0xce
 8008ec0:	f000 fff2 	bl	8009ea8 <__assert_func>
 8008ec4:	0052      	lsls	r2, r2, #1
 8008ec6:	3101      	adds	r1, #1
 8008ec8:	e7f0      	b.n	8008eac <__s2b+0x18>
 8008eca:	9b08      	ldr	r3, [sp, #32]
 8008ecc:	6143      	str	r3, [r0, #20]
 8008ece:	2d09      	cmp	r5, #9
 8008ed0:	f04f 0301 	mov.w	r3, #1
 8008ed4:	6103      	str	r3, [r0, #16]
 8008ed6:	dd16      	ble.n	8008f06 <__s2b+0x72>
 8008ed8:	f104 0909 	add.w	r9, r4, #9
 8008edc:	46c8      	mov	r8, r9
 8008ede:	442c      	add	r4, r5
 8008ee0:	f818 3b01 	ldrb.w	r3, [r8], #1
 8008ee4:	4601      	mov	r1, r0
 8008ee6:	3b30      	subs	r3, #48	; 0x30
 8008ee8:	220a      	movs	r2, #10
 8008eea:	4630      	mov	r0, r6
 8008eec:	f7ff ff88 	bl	8008e00 <__multadd>
 8008ef0:	45a0      	cmp	r8, r4
 8008ef2:	d1f5      	bne.n	8008ee0 <__s2b+0x4c>
 8008ef4:	f1a5 0408 	sub.w	r4, r5, #8
 8008ef8:	444c      	add	r4, r9
 8008efa:	1b2d      	subs	r5, r5, r4
 8008efc:	1963      	adds	r3, r4, r5
 8008efe:	42bb      	cmp	r3, r7
 8008f00:	db04      	blt.n	8008f0c <__s2b+0x78>
 8008f02:	e8bd 83f8 	ldmia.w	sp!, {r3, r4, r5, r6, r7, r8, r9, pc}
 8008f06:	340a      	adds	r4, #10
 8008f08:	2509      	movs	r5, #9
 8008f0a:	e7f6      	b.n	8008efa <__s2b+0x66>
 8008f0c:	f814 3b01 	ldrb.w	r3, [r4], #1
 8008f10:	4601      	mov	r1, r0
 8008f12:	3b30      	subs	r3, #48	; 0x30
 8008f14:	220a      	movs	r2, #10
 8008f16:	4630      	mov	r0, r6
 8008f18:	f7ff ff72 	bl	8008e00 <__multadd>
 8008f1c:	e7ee      	b.n	8008efc <__s2b+0x68>
 8008f1e:	bf00      	nop
 8008f20:	0800b35c 	.word	0x0800b35c
 8008f24:	0800b450 	.word	0x0800b450

08008f28 <__hi0bits>:
 8008f28:	0c03      	lsrs	r3, r0, #16
 8008f2a:	041b      	lsls	r3, r3, #16
 8008f2c:	b9d3      	cbnz	r3, 8008f64 <__hi0bits+0x3c>
 8008f2e:	0400      	lsls	r0, r0, #16
 8008f30:	2310      	movs	r3, #16
 8008f32:	f010 4f7f 	tst.w	r0, #4278190080	; 0xff000000
 8008f36:	bf04      	itt	eq
 8008f38:	0200      	lsleq	r0, r0, #8
 8008f3a:	3308      	addeq	r3, #8
 8008f3c:	f010 4f70 	tst.w	r0, #4026531840	; 0xf0000000
 8008f40:	bf04      	itt	eq
 8008f42:	0100      	lsleq	r0, r0, #4
 8008f44:	3304      	addeq	r3, #4
 8008f46:	f010 4f40 	tst.w	r0, #3221225472	; 0xc0000000
 8008f4a:	bf04      	itt	eq
 8008f4c:	0080      	lsleq	r0, r0, #2
 8008f4e:	3302      	addeq	r3, #2
 8008f50:	2800      	cmp	r0, #0
 8008f52:	db05      	blt.n	8008f60 <__hi0bits+0x38>
 8008f54:	f010 4f80 	tst.w	r0, #1073741824	; 0x40000000
 8008f58:	f103 0301 	add.w	r3, r3, #1
 8008f5c:	bf08      	it	eq
 8008f5e:	2320      	moveq	r3, #32
 8008f60:	4618      	mov	r0, r3
 8008f62:	4770      	bx	lr
 8008f64:	2300      	movs	r3, #0
 8008f66:	e7e4      	b.n	8008f32 <__hi0bits+0xa>

08008f68 <__lo0bits>:
 8008f68:	6803      	ldr	r3, [r0, #0]
 8008f6a:	f013 0207 	ands.w	r2, r3, #7
 8008f6e:	4601      	mov	r1, r0
 8008f70:	d00b      	beq.n	8008f8a <__lo0bits+0x22>
 8008f72:	07da      	lsls	r2, r3, #31
 8008f74:	d424      	bmi.n	8008fc0 <__lo0bits+0x58>
 8008f76:	0798      	lsls	r0, r3, #30
 8008f78:	bf49      	itett	mi
 8008f7a:	085b      	lsrmi	r3, r3, #1
 8008f7c:	089b      	lsrpl	r3, r3, #2
 8008f7e:	2001      	movmi	r0, #1
 8008f80:	600b      	strmi	r3, [r1, #0]
 8008f82:	bf5c      	itt	pl
 8008f84:	600b      	strpl	r3, [r1, #0]
 8008f86:	2002      	movpl	r0, #2
 8008f88:	4770      	bx	lr
 8008f8a:	b298      	uxth	r0, r3
 8008f8c:	b9b0      	cbnz	r0, 8008fbc <__lo0bits+0x54>
 8008f8e:	0c1b      	lsrs	r3, r3, #16
 8008f90:	2010      	movs	r0, #16
 8008f92:	f013 0fff 	tst.w	r3, #255	; 0xff
 8008f96:	bf04      	itt	eq
 8008f98:	0a1b      	lsreq	r3, r3, #8
 8008f9a:	3008      	addeq	r0, #8
 8008f9c:	071a      	lsls	r2, r3, #28
 8008f9e:	bf04      	itt	eq
 8008fa0:	091b      	lsreq	r3, r3, #4
 8008fa2:	3004      	addeq	r0, #4
 8008fa4:	079a      	lsls	r2, r3, #30
 8008fa6:	bf04      	itt	eq
 8008fa8:	089b      	lsreq	r3, r3, #2
 8008faa:	3002      	addeq	r0, #2
 8008fac:	07da      	lsls	r2, r3, #31
 8008fae:	d403      	bmi.n	8008fb8 <__lo0bits+0x50>
 8008fb0:	085b      	lsrs	r3, r3, #1
 8008fb2:	f100 0001 	add.w	r0, r0, #1
 8008fb6:	d005      	beq.n	8008fc4 <__lo0bits+0x5c>
 8008fb8:	600b      	str	r3, [r1, #0]
 8008fba:	4770      	bx	lr
 8008fbc:	4610      	mov	r0, r2
 8008fbe:	e7e8      	b.n	8008f92 <__lo0bits+0x2a>
 8008fc0:	2000      	movs	r0, #0
 8008fc2:	4770      	bx	lr
 8008fc4:	2020      	movs	r0, #32
 8008fc6:	4770      	bx	lr

08008fc8 <__i2b>:
 8008fc8:	b510      	push	{r4, lr}
 8008fca:	460c      	mov	r4, r1
 8008fcc:	2101      	movs	r1, #1
 8008fce:	f7ff feb5 	bl	8008d3c <_Balloc>
 8008fd2:	4602      	mov	r2, r0
 8008fd4:	b928      	cbnz	r0, 8008fe2 <__i2b+0x1a>
 8008fd6:	4b05      	ldr	r3, [pc, #20]	; (8008fec <__i2b+0x24>)
 8008fd8:	4805      	ldr	r0, [pc, #20]	; (8008ff0 <__i2b+0x28>)
 8008fda:	f44f 71a0 	mov.w	r1, #320	; 0x140
 8008fde:	f000 ff63 	bl	8009ea8 <__assert_func>
 8008fe2:	2301      	movs	r3, #1
 8008fe4:	6144      	str	r4, [r0, #20]
 8008fe6:	6103      	str	r3, [r0, #16]
 8008fe8:	bd10      	pop	{r4, pc}
 8008fea:	bf00      	nop
 8008fec:	0800b35c 	.word	0x0800b35c
 8008ff0:	0800b450 	.word	0x0800b450

08008ff4 <__multiply>:
 8008ff4:	e92d 4ff0 	stmdb	sp!, {r4, r5, r6, r7, r8, r9, sl, fp, lr}
 8008ff8:	4614      	mov	r4, r2
 8008ffa:	690a      	ldr	r2, [r1, #16]
 8008ffc:	6923      	ldr	r3, [r4, #16]
 8008ffe:	429a      	cmp	r2, r3
 8009000:	bfb8      	it	lt
 8009002:	460b      	movlt	r3, r1
 8009004:	460d      	mov	r5, r1
 8009006:	bfbc      	itt	lt
 8009008:	4625      	movlt	r5, r4
 800900a:	461c      	movlt	r4, r3
 800900c:	f8d5 a010 	ldr.w	sl, [r5, #16]
 8009010:	f8d4 9010 	ldr.w	r9, [r4, #16]
 8009014:	68ab      	ldr	r3, [r5, #8]
 8009016:	6869      	ldr	r1, [r5, #4]
 8009018:	eb0a 0709 	add.w	r7, sl, r9
 800901c:	42bb      	cmp	r3, r7
 800901e:	b085      	sub	sp, #20
 8009020:	bfb8      	it	lt
 8009022:	3101      	addlt	r1, #1
 8009024:	f7ff fe8a 	bl	8008d3c <_Balloc>
 8009028:	b930      	cbnz	r0, 8009038 <__multiply+0x44>
 800902a:	4602      	mov	r2, r0
 800902c:	4b42      	ldr	r3, [pc, #264]	; (8009138 <__multiply+0x144>)
 800902e:	4843      	ldr	r0, [pc, #268]	; (800913c <__multiply+0x148>)
 8009030:	f240 115d 	movw	r1, #349	; 0x15d
 8009034:	f000 ff38 	bl	8009ea8 <__assert_func>
 8009038:	f100 0614 	add.w	r6, r0, #20
 800903c:	eb06 0887 	add.w	r8, r6, r7, lsl #2
 8009040:	4633      	mov	r3, r6
 8009042:	2200      	movs	r2, #0
 8009044:	4543      	cmp	r3, r8
 8009046:	d31e      	bcc.n	8009086 <__multiply+0x92>
 8009048:	f105 0c14 	add.w	ip, r5, #20
 800904c:	f104 0314 	add.w	r3, r4, #20
 8009050:	eb0c 0c8a 	add.w	ip, ip, sl, lsl #2
 8009054:	eb03 0289 	add.w	r2, r3, r9, lsl #2
 8009058:	9202      	str	r2, [sp, #8]
 800905a:	ebac 0205 	sub.w	r2, ip, r5
 800905e:	3a15      	subs	r2, #21
 8009060:	f022 0203 	bic.w	r2, r2, #3
 8009064:	3204      	adds	r2, #4
 8009066:	f105 0115 	add.w	r1, r5, #21
 800906a:	458c      	cmp	ip, r1
 800906c:	bf38      	it	cc
 800906e:	2204      	movcc	r2, #4
 8009070:	9201      	str	r2, [sp, #4]
 8009072:	9a02      	ldr	r2, [sp, #8]
 8009074:	9303      	str	r3, [sp, #12]
 8009076:	429a      	cmp	r2, r3
 8009078:	d808      	bhi.n	800908c <__multiply+0x98>
 800907a:	2f00      	cmp	r7, #0
 800907c:	dc55      	bgt.n	800912a <__multiply+0x136>
 800907e:	6107      	str	r7, [r0, #16]
 8009080:	b005      	add	sp, #20
 8009082:	e8bd 8ff0 	ldmia.w	sp!, {r4, r5, r6, r7, r8, r9, sl, fp, pc}
 8009086:	f843 2b04 	str.w	r2, [r3], #4
 800908a:	e7db      	b.n	8009044 <__multiply+0x50>
 800908c:	f8b3 a000 	ldrh.w	sl, [r3]
 8009090:	f1ba 0f00 	cmp.w	sl, #0
 8009094:	d020      	beq.n	80090d8 <__multiply+0xe4>
 8009096:	f105 0e14 	add.w	lr, r5, #20
 800909a:	46b1      	mov	r9, r6
 800909c:	2200      	movs	r2, #0
 800909e:	f85e 4b04 	ldr.w	r4, [lr], #4
 80090a2:	f8d9 b000 	ldr.w	fp, [r9]
 80090a6:	b2a1      	uxth	r1, r4
 80090a8:	fa1f fb8b 	uxth.w	fp, fp
 80090ac:	fb0a b101 	mla	r1, sl, r1, fp
 80090b0:	4411      	add	r1, r2
 80090b2:	f8d9 2000 	ldr.w	r2, [r9]
 80090b6:	0c24      	lsrs	r4, r4, #16
 80090b8:	0c12      	lsrs	r2, r2, #16
 80090ba:	fb0a 2404 	mla	r4, sl, r4, r2
 80090be:	eb04 4411 	add.w	r4, r4, r1, lsr #16
 80090c2:	b289      	uxth	r1, r1
 80090c4:	ea41 4104 	orr.w	r1, r1, r4, lsl #16
 80090c8:	45f4      	cmp	ip, lr
 80090ca:	f849 1b04 	str.w	r1, [r9], #4
 80090ce:	ea4f 4214 	mov.w	r2, r4, lsr #16
 80090d2:	d8e4      	bhi.n	800909e <__multiply+0xaa>
 80090d4:	9901      	ldr	r1, [sp, #4]
 80090d6:	5072      	str	r2, [r6, r1]
 80090d8:	9a03      	ldr	r2, [sp, #12]
 80090da:	f8b2 9002 	ldrh.w	r9, [r2, #2]
 80090de:	3304      	adds	r3, #4
 80090e0:	f1b9 0f00 	cmp.w	r9, #0
 80090e4:	d01f      	beq.n	8009126 <__multiply+0x132>
 80090e6:	6834      	ldr	r4, [r6, #0]
 80090e8:	f105 0114 	add.w	r1, r5, #20
 80090ec:	46b6      	mov	lr, r6
 80090ee:	f04f 0a00 	mov.w	sl, #0
 80090f2:	880a      	ldrh	r2, [r1, #0]
 80090f4:	f8be b002 	ldrh.w	fp, [lr, #2]
 80090f8:	fb09 b202 	mla	r2, r9, r2, fp
 80090fc:	4492      	add	sl, r2
 80090fe:	b2a4      	uxth	r4, r4
 8009100:	ea44 440a 	orr.w	r4, r4, sl, lsl #16
 8009104:	f84e 4b04 	str.w	r4, [lr], #4
 8009108:	f851 4b04 	ldr.w	r4, [r1], #4
 800910c:	f8be 2000 	ldrh.w	r2, [lr]
 8009110:	0c24      	lsrs	r4, r4, #16
 8009112:	fb09 2404 	mla	r4, r9, r4, r2
 8009116:	eb04 441a 	add.w	r4, r4, sl, lsr #16
 800911a:	458c      	cmp	ip, r1
 800911c:	ea4f 4a14 	mov.w	sl, r4, lsr #16
 8009120:	d8e7      	bhi.n	80090f2 <__multiply+0xfe>
 8009122:	9a01      	ldr	r2, [sp, #4]
 8009124:	50b4      	str	r4, [r6, r2]
 8009126:	3604      	adds	r6, #4
 8009128:	e7a3      	b.n	8009072 <__multiply+0x7e>
 800912a:	f858 3d04 	ldr.w	r3, [r8, #-4]!
 800912e:	2b00      	cmp	r3, #0
 8009130:	d1a5      	bne.n	800907e <__multiply+0x8a>
 8009132:	3f01      	subs	r7, #1
 8009134:	e7a1      	b.n	800907a <__multiply+0x86>
 8009136:	bf00      	nop
 8009138:	0800b35c 	.word	0x0800b35c
 800913c:	0800b450 	.word	0x0800b450

08009140 <__pow5mult>:
 8009140:	e92d 43f8 	stmdb	sp!, {r3, r4, r5, r6, r7, r8, r9, lr}
 8009144:	4615      	mov	r5, r2
 8009146:	f012 0203 	ands.w	r2, r2, #3
 800914a:	4606      	mov	r6, r0
 800914c:	460f      	mov	r7, r1
 800914e:	d007      	beq.n	8009160 <__pow5mult+0x20>
 8009150:	4c25      	ldr	r4, [pc, #148]	; (80091e8 <__pow5mult+0xa8>)
 8009152:	3a01      	subs	r2, #1
 8009154:	2300      	movs	r3, #0
 8009156:	f854 2022 	ldr.w	r2, [r4, r2, lsl #2]
 800915a:	f7ff fe51 	bl	8008e00 <__multadd>
 800915e:	4607      	mov	r7, r0
 8009160:	10ad      	asrs	r5, r5, #2
 8009162:	d03d      	beq.n	80091e0 <__pow5mult+0xa0>
 8009164:	6a74      	ldr	r4, [r6, #36]	; 0x24
 8009166:	b97c      	cbnz	r4, 8009188 <__pow5mult+0x48>
 8009168:	2010      	movs	r0, #16
 800916a:	f7ff fdbf 	bl	8008cec <malloc>
 800916e:	4602      	mov	r2, r0
 8009170:	6270      	str	r0, [r6, #36]	; 0x24
 8009172:	b928      	cbnz	r0, 8009180 <__pow5mult+0x40>
 8009174:	4b1d      	ldr	r3, [pc, #116]	; (80091ec <__pow5mult+0xac>)
 8009176:	481e      	ldr	r0, [pc, #120]	; (80091f0 <__pow5mult+0xb0>)
 8009178:	f44f 71d7 	mov.w	r1, #430	; 0x1ae
 800917c:	f000 fe94 	bl	8009ea8 <__assert_func>
 8009180:	e9c0 4401 	strd	r4, r4, [r0, #4]
 8009184:	6004      	str	r4, [r0, #0]
 8009186:	60c4      	str	r4, [r0, #12]
 8009188:	f8d6 8024 	ldr.w	r8, [r6, #36]	; 0x24
 800918c:	f8d8 4008 	ldr.w	r4, [r8, #8]
 8009190:	b94c      	cbnz	r4, 80091a6 <__pow5mult+0x66>
 8009192:	f240 2171 	movw	r1, #625	; 0x271
 8009196:	4630      	mov	r0, r6
 8009198:	f7ff ff16 	bl	8008fc8 <__i2b>
 800919c:	2300      	movs	r3, #0
 800919e:	f8c8 0008 	str.w	r0, [r8, #8]
 80091a2:	4604      	mov	r4, r0
 80091a4:	6003      	str	r3, [r0, #0]
 80091a6:	f04f 0900 	mov.w	r9, #0
 80091aa:	07eb      	lsls	r3, r5, #31
 80091ac:	d50a      	bpl.n	80091c4 <__pow5mult+0x84>
 80091ae:	4639      	mov	r1, r7
 80091b0:	4622      	mov	r2, r4
 80091b2:	4630      	mov	r0, r6
 80091b4:	f7ff ff1e 	bl	8008ff4 <__multiply>
 80091b8:	4639      	mov	r1, r7
 80091ba:	4680      	mov	r8, r0
 80091bc:	4630      	mov	r0, r6
 80091be:	f7ff fdfd 	bl	8008dbc <_Bfree>
 80091c2:	4647      	mov	r7, r8
 80091c4:	106d      	asrs	r5, r5, #1
 80091c6:	d00b      	beq.n	80091e0 <__pow5mult+0xa0>
 80091c8:	6820      	ldr	r0, [r4, #0]
 80091ca:	b938      	cbnz	r0, 80091dc <__pow5mult+0x9c>
 80091cc:	4622      	mov	r2, r4
 80091ce:	4621      	mov	r1, r4
 80091d0:	4630      	mov	r0, r6
 80091d2:	f7ff ff0f 	bl	8008ff4 <__multiply>
 80091d6:	6020      	str	r0, [r4, #0]
 80091d8:	f8c0 9000 	str.w	r9, [r0]
 80091dc:	4604      	mov	r4, r0
 80091de:	e7e4      	b.n	80091aa <__pow5mult+0x6a>
 80091e0:	4638      	mov	r0, r7
 80091e2:	e8bd 83f8 	ldmia.w	sp!, {r3, r4, r5, r6, r7, r8, r9, pc}
 80091e6:	bf00      	nop
 80091e8:	0800b5a0 	.word	0x0800b5a0
 80091ec:	0800b2e6 	.word	0x0800b2e6
 80091f0:	0800b450 	.word	0x0800b450

080091f4 <__lshift>:
 80091f4:	e92d 47f0 	stmdb	sp!, {r4, r5, r6, r7, r8, r9, sl, lr}
 80091f8:	460c      	mov	r4, r1
 80091fa:	6849      	ldr	r1, [r1, #4]
 80091fc:	6923      	ldr	r3, [r4, #16]
 80091fe:	eb03 1862 	add.w	r8, r3, r2, asr #5
 8009202:	68a3      	ldr	r3, [r4, #8]
 8009204:	4607      	mov	r7, r0
 8009206:	4691      	mov	r9, r2
 8009208:	ea4f 1a62 	mov.w	sl, r2, asr #5
 800920c:	f108 0601 	add.w	r6, r8, #1
 8009210:	42b3      	cmp	r3, r6
 8009212:	db0b      	blt.n	800922c <__lshift+0x38>
 8009214:	4638      	mov	r0, r7
 8009216:	f7ff fd91 	bl	8008d3c <_Balloc>
 800921a:	4605      	mov	r5, r0
 800921c:	b948      	cbnz	r0, 8009232 <__lshift+0x3e>
 800921e:	4602      	mov	r2, r0
 8009220:	4b28      	ldr	r3, [pc, #160]	; (80092c4 <__lshift+0xd0>)
 8009222:	4829      	ldr	r0, [pc, #164]	; (80092c8 <__lshift+0xd4>)
 8009224:	f240 11d9 	movw	r1, #473	; 0x1d9
 8009228:	f000 fe3e 	bl	8009ea8 <__assert_func>
 800922c:	3101      	adds	r1, #1
 800922e:	005b      	lsls	r3, r3, #1
 8009230:	e7ee      	b.n	8009210 <__lshift+0x1c>
 8009232:	2300      	movs	r3, #0
 8009234:	f100 0114 	add.w	r1, r0, #20
 8009238:	f100 0210 	add.w	r2, r0, #16
 800923c:	4618      	mov	r0, r3
 800923e:	4553      	cmp	r3, sl
 8009240:	db33      	blt.n	80092aa <__lshift+0xb6>
 8009242:	6920      	ldr	r0, [r4, #16]
 8009244:	ea2a 7aea 	bic.w	sl, sl, sl, asr #31
 8009248:	f104 0314 	add.w	r3, r4, #20
 800924c:	f019 091f 	ands.w	r9, r9, #31
 8009250:	eb01 018a 	add.w	r1, r1, sl, lsl #2
 8009254:	eb03 0c80 	add.w	ip, r3, r0, lsl #2
 8009258:	d02b      	beq.n	80092b2 <__lshift+0xbe>
 800925a:	f1c9 0e20 	rsb	lr, r9, #32
 800925e:	468a      	mov	sl, r1
 8009260:	2200      	movs	r2, #0
 8009262:	6818      	ldr	r0, [r3, #0]
 8009264:	fa00 f009 	lsl.w	r0, r0, r9
 8009268:	4302      	orrs	r2, r0
 800926a:	f84a 2b04 	str.w	r2, [sl], #4
 800926e:	f853 2b04 	ldr.w	r2, [r3], #4
 8009272:	459c      	cmp	ip, r3
 8009274:	fa22 f20e 	lsr.w	r2, r2, lr
 8009278:	d8f3      	bhi.n	8009262 <__lshift+0x6e>
 800927a:	ebac 0304 	sub.w	r3, ip, r4
 800927e:	3b15      	subs	r3, #21
 8009280:	f023 0303 	bic.w	r3, r3, #3
 8009284:	3304      	adds	r3, #4
 8009286:	f104 0015 	add.w	r0, r4, #21
 800928a:	4584      	cmp	ip, r0
 800928c:	bf38      	it	cc
 800928e:	2304      	movcc	r3, #4
 8009290:	50ca      	str	r2, [r1, r3]
 8009292:	b10a      	cbz	r2, 8009298 <__lshift+0xa4>
 8009294:	f108 0602 	add.w	r6, r8, #2
 8009298:	3e01      	subs	r6, #1
 800929a:	4638      	mov	r0, r7
 800929c:	612e      	str	r6, [r5, #16]
 800929e:	4621      	mov	r1, r4
 80092a0:	f7ff fd8c 	bl	8008dbc <_Bfree>
 80092a4:	4628      	mov	r0, r5
 80092a6:	e8bd 87f0 	ldmia.w	sp!, {r4, r5, r6, r7, r8, r9, sl, pc}
 80092aa:	f842 0f04 	str.w	r0, [r2, #4]!
 80092ae:	3301      	adds	r3, #1
 80092b0:	e7c5      	b.n	800923e <__lshift+0x4a>
 80092b2:	3904      	subs	r1, #4
 80092b4:	f853 2b04 	ldr.w	r2, [r3], #4
 80092b8:	f841 2f04 	str.w	r2, [r1, #4]!
 80092bc:	459c      	cmp	ip, r3
 80092be:	d8f9      	bhi.n	80092b4 <__lshift+0xc0>
 80092c0:	e7ea      	b.n	8009298 <__lshift+0xa4>
 80092c2:	bf00      	nop
 80092c4:	0800b35c 	.word	0x0800b35c
 80092c8:	0800b450 	.word	0x0800b450

080092cc <__mcmp>:
 80092cc:	b530      	push	{r4, r5, lr}
 80092ce:	6902      	ldr	r2, [r0, #16]
 80092d0:	690c      	ldr	r4, [r1, #16]
 80092d2:	1b12      	subs	r2, r2, r4
 80092d4:	d10e      	bne.n	80092f4 <__mcmp+0x28>
 80092d6:	f100 0314 	add.w	r3, r0, #20
 80092da:	3114      	adds	r1, #20
 80092dc:	eb03 0084 	add.w	r0, r3, r4, lsl #2
 80092e0:	eb01 0184 	add.w	r1, r1, r4, lsl #2
 80092e4:	f850 5d04 	ldr.w	r5, [r0, #-4]!
 80092e8:	f851 4d04 	ldr.w	r4, [r1, #-4]!
 80092ec:	42a5      	cmp	r5, r4
 80092ee:	d003      	beq.n	80092f8 <__mcmp+0x2c>
 80092f0:	d305      	bcc.n	80092fe <__mcmp+0x32>
 80092f2:	2201      	movs	r2, #1
 80092f4:	4610      	mov	r0, r2
 80092f6:	bd30      	pop	{r4, r5, pc}
 80092f8:	4283      	cmp	r3, r0
 80092fa:	d3f3      	bcc.n	80092e4 <__mcmp+0x18>
 80092fc:	e7fa      	b.n	80092f4 <__mcmp+0x28>
 80092fe:	f04f 32ff 	mov.w	r2, #4294967295
 8009302:	e7f7      	b.n	80092f4 <__mcmp+0x28>

08009304 <__mdiff>:
 8009304:	e92d 4ff8 	stmdb	sp!, {r3, r4, r5, r6, r7, r8, r9, sl, fp, lr}
 8009308:	460c      	mov	r4, r1
 800930a:	4606      	mov	r6, r0
 800930c:	4611      	mov	r1, r2
 800930e:	4620      	mov	r0, r4
 8009310:	4617      	mov	r7, r2
 8009312:	f7ff ffdb 	bl	80092cc <__mcmp>
 8009316:	1e05      	subs	r5, r0, #0
 8009318:	d110      	bne.n	800933c <__mdiff+0x38>
 800931a:	4629      	mov	r1, r5
 800931c:	4630      	mov	r0, r6
 800931e:	f7ff fd0d 	bl	8008d3c <_Balloc>
 8009322:	b930      	cbnz	r0, 8009332 <__mdiff+0x2e>
 8009324:	4b39      	ldr	r3, [pc, #228]	; (800940c <__mdiff+0x108>)
 8009326:	4602      	mov	r2, r0
 8009328:	f240 2132 	movw	r1, #562	; 0x232
 800932c:	4838      	ldr	r0, [pc, #224]	; (8009410 <__mdiff+0x10c>)
 800932e:	f000 fdbb 	bl	8009ea8 <__assert_func>
 8009332:	2301      	movs	r3, #1
 8009334:	e9c0 3504 	strd	r3, r5, [r0, #16]
 8009338:	e8bd 8ff8 	ldmia.w	sp!, {r3, r4, r5, r6, r7, r8, r9, sl, fp, pc}
 800933c:	bfa4      	itt	ge
 800933e:	463b      	movge	r3, r7
 8009340:	4627      	movge	r7, r4
 8009342:	4630      	mov	r0, r6
 8009344:	6879      	ldr	r1, [r7, #4]
 8009346:	bfa6      	itte	ge
 8009348:	461c      	movge	r4, r3
 800934a:	2500      	movge	r5, #0
 800934c:	2501      	movlt	r5, #1
 800934e:	f7ff fcf5 	bl	8008d3c <_Balloc>
 8009352:	b920      	cbnz	r0, 800935e <__mdiff+0x5a>
 8009354:	4b2d      	ldr	r3, [pc, #180]	; (800940c <__mdiff+0x108>)
 8009356:	4602      	mov	r2, r0
 8009358:	f44f 7110 	mov.w	r1, #576	; 0x240
 800935c:	e7e6      	b.n	800932c <__mdiff+0x28>
 800935e:	693e      	ldr	r6, [r7, #16]
 8009360:	60c5      	str	r5, [r0, #12]
 8009362:	6925      	ldr	r5, [r4, #16]
 8009364:	f107 0114 	add.w	r1, r7, #20
 8009368:	f104 0914 	add.w	r9, r4, #20
 800936c:	f100 0e14 	add.w	lr, r0, #20
 8009370:	f107 0210 	add.w	r2, r7, #16
 8009374:	eb01 0c86 	add.w	ip, r1, r6, lsl #2
 8009378:	eb09 0585 	add.w	r5, r9, r5, lsl #2
 800937c:	46f2      	mov	sl, lr
 800937e:	2700      	movs	r7, #0
 8009380:	f859 3b04 	ldr.w	r3, [r9], #4
 8009384:	f852 bf04 	ldr.w	fp, [r2, #4]!
 8009388:	fa1f f883 	uxth.w	r8, r3
 800938c:	fa17 f78b 	uxtah	r7, r7, fp
 8009390:	0c1b      	lsrs	r3, r3, #16
 8009392:	eba7 0808 	sub.w	r8, r7, r8
 8009396:	ebc3 431b 	rsb	r3, r3, fp, lsr #16
 800939a:	eb03 4328 	add.w	r3, r3, r8, asr #16
 800939e:	fa1f f888 	uxth.w	r8, r8
 80093a2:	141f      	asrs	r7, r3, #16
 80093a4:	454d      	cmp	r5, r9
 80093a6:	ea48 4303 	orr.w	r3, r8, r3, lsl #16
 80093aa:	f84a 3b04 	str.w	r3, [sl], #4
 80093ae:	d8e7      	bhi.n	8009380 <__mdiff+0x7c>
 80093b0:	1b2b      	subs	r3, r5, r4
 80093b2:	3b15      	subs	r3, #21
 80093b4:	f023 0303 	bic.w	r3, r3, #3
 80093b8:	3304      	adds	r3, #4
 80093ba:	3415      	adds	r4, #21
 80093bc:	42a5      	cmp	r5, r4
 80093be:	bf38      	it	cc
 80093c0:	2304      	movcc	r3, #4
 80093c2:	4419      	add	r1, r3
 80093c4:	4473      	add	r3, lr
 80093c6:	469e      	mov	lr, r3
 80093c8:	460d      	mov	r5, r1
 80093ca:	4565      	cmp	r5, ip
 80093cc:	d30e      	bcc.n	80093ec <__mdiff+0xe8>
 80093ce:	f10c 0203 	add.w	r2, ip, #3
 80093d2:	1a52      	subs	r2, r2, r1
 80093d4:	f022 0203 	bic.w	r2, r2, #3
 80093d8:	3903      	subs	r1, #3
 80093da:	458c      	cmp	ip, r1
 80093dc:	bf38      	it	cc
 80093de:	2200      	movcc	r2, #0
 80093e0:	441a      	add	r2, r3
 80093e2:	f852 3d04 	ldr.w	r3, [r2, #-4]!
 80093e6:	b17b      	cbz	r3, 8009408 <__mdiff+0x104>
 80093e8:	6106      	str	r6, [r0, #16]
 80093ea:	e7a5      	b.n	8009338 <__mdiff+0x34>
 80093ec:	f855 8b04 	ldr.w	r8, [r5], #4
 80093f0:	fa17 f488 	uxtah	r4, r7, r8
 80093f4:	1422      	asrs	r2, r4, #16
 80093f6:	eb02 4218 	add.w	r2, r2, r8, lsr #16
 80093fa:	b2a4      	uxth	r4, r4
 80093fc:	ea44 4402 	orr.w	r4, r4, r2, lsl #16
 8009400:	f84e 4b04 	str.w	r4, [lr], #4
 8009404:	1417      	asrs	r7, r2, #16
 8009406:	e7e0      	b.n	80093ca <__mdiff+0xc6>
 8009408:	3e01      	subs	r6, #1
 800940a:	e7ea      	b.n	80093e2 <__mdiff+0xde>
 800940c:	0800b35c 	.word	0x0800b35c
 8009410:	0800b450 	.word	0x0800b450

08009414 <__ulp>:
 8009414:	b082      	sub	sp, #8
 8009416:	ed8d 0b00 	vstr	d0, [sp]
 800941a:	9b01      	ldr	r3, [sp, #4]
 800941c:	4912      	ldr	r1, [pc, #72]	; (8009468 <__ulp+0x54>)
 800941e:	4019      	ands	r1, r3
 8009420:	f1a1 7150 	sub.w	r1, r1, #54525952	; 0x3400000
 8009424:	2900      	cmp	r1, #0
 8009426:	dd05      	ble.n	8009434 <__ulp+0x20>
 8009428:	2200      	movs	r2, #0
 800942a:	460b      	mov	r3, r1
 800942c:	ec43 2b10 	vmov	d0, r2, r3
 8009430:	b002      	add	sp, #8
 8009432:	4770      	bx	lr
 8009434:	4249      	negs	r1, r1
 8009436:	f1b1 7fa0 	cmp.w	r1, #20971520	; 0x1400000
 800943a:	ea4f 5021 	mov.w	r0, r1, asr #20
 800943e:	f04f 0200 	mov.w	r2, #0
 8009442:	f04f 0300 	mov.w	r3, #0
 8009446:	da04      	bge.n	8009452 <__ulp+0x3e>
 8009448:	f44f 2100 	mov.w	r1, #524288	; 0x80000
 800944c:	fa41 f300 	asr.w	r3, r1, r0
 8009450:	e7ec      	b.n	800942c <__ulp+0x18>
 8009452:	f1a0 0114 	sub.w	r1, r0, #20
 8009456:	291e      	cmp	r1, #30
 8009458:	bfda      	itte	le
 800945a:	f04f 4000 	movle.w	r0, #2147483648	; 0x80000000
 800945e:	fa20 f101 	lsrle.w	r1, r0, r1
 8009462:	2101      	movgt	r1, #1
 8009464:	460a      	mov	r2, r1
 8009466:	e7e1      	b.n	800942c <__ulp+0x18>
 8009468:	7ff00000 	.word	0x7ff00000

0800946c <__b2d>:
 800946c:	b5f8      	push	{r3, r4, r5, r6, r7, lr}
 800946e:	6905      	ldr	r5, [r0, #16]
 8009470:	f100 0714 	add.w	r7, r0, #20
 8009474:	eb07 0585 	add.w	r5, r7, r5, lsl #2
 8009478:	1f2e      	subs	r6, r5, #4
 800947a:	f855 4c04 	ldr.w	r4, [r5, #-4]
 800947e:	4620      	mov	r0, r4
 8009480:	f7ff fd52 	bl	8008f28 <__hi0bits>
 8009484:	f1c0 0320 	rsb	r3, r0, #32
 8009488:	280a      	cmp	r0, #10
 800948a:	f8df c07c 	ldr.w	ip, [pc, #124]	; 8009508 <__b2d+0x9c>
 800948e:	600b      	str	r3, [r1, #0]
 8009490:	dc14      	bgt.n	80094bc <__b2d+0x50>
 8009492:	f1c0 0e0b 	rsb	lr, r0, #11
 8009496:	fa24 f10e 	lsr.w	r1, r4, lr
 800949a:	42b7      	cmp	r7, r6
 800949c:	ea41 030c 	orr.w	r3, r1, ip
 80094a0:	bf34      	ite	cc
 80094a2:	f855 1c08 	ldrcc.w	r1, [r5, #-8]
 80094a6:	2100      	movcs	r1, #0
 80094a8:	3015      	adds	r0, #21
 80094aa:	fa04 f000 	lsl.w	r0, r4, r0
 80094ae:	fa21 f10e 	lsr.w	r1, r1, lr
 80094b2:	ea40 0201 	orr.w	r2, r0, r1
 80094b6:	ec43 2b10 	vmov	d0, r2, r3
 80094ba:	bdf8      	pop	{r3, r4, r5, r6, r7, pc}
 80094bc:	42b7      	cmp	r7, r6
 80094be:	bf3a      	itte	cc
 80094c0:	f855 1c08 	ldrcc.w	r1, [r5, #-8]
 80094c4:	f1a5 0608 	subcc.w	r6, r5, #8
 80094c8:	2100      	movcs	r1, #0
 80094ca:	380b      	subs	r0, #11
 80094cc:	d017      	beq.n	80094fe <__b2d+0x92>
 80094ce:	f1c0 0c20 	rsb	ip, r0, #32
 80094d2:	fa04 f500 	lsl.w	r5, r4, r0
 80094d6:	42be      	cmp	r6, r7
 80094d8:	fa21 f40c 	lsr.w	r4, r1, ip
 80094dc:	ea45 0504 	orr.w	r5, r5, r4
 80094e0:	bf8c      	ite	hi
 80094e2:	f856 4c04 	ldrhi.w	r4, [r6, #-4]
 80094e6:	2400      	movls	r4, #0
 80094e8:	f045 537f 	orr.w	r3, r5, #1069547520	; 0x3fc00000
 80094ec:	fa01 f000 	lsl.w	r0, r1, r0
 80094f0:	fa24 f40c 	lsr.w	r4, r4, ip
 80094f4:	f443 1340 	orr.w	r3, r3, #3145728	; 0x300000
 80094f8:	ea40 0204 	orr.w	r2, r0, r4
 80094fc:	e7db      	b.n	80094b6 <__b2d+0x4a>
 80094fe:	ea44 030c 	orr.w	r3, r4, ip
 8009502:	460a      	mov	r2, r1
 8009504:	e7d7      	b.n	80094b6 <__b2d+0x4a>
 8009506:	bf00      	nop
 8009508:	3ff00000 	.word	0x3ff00000

0800950c <__d2b>:
 800950c:	e92d 43f7 	stmdb	sp!, {r0, r1, r2, r4, r5, r6, r7, r8, r9, lr}
 8009510:	4689      	mov	r9, r1
 8009512:	2101      	movs	r1, #1
 8009514:	ec57 6b10 	vmov	r6, r7, d0
 8009518:	4690      	mov	r8, r2
 800951a:	f7ff fc0f 	bl	8008d3c <_Balloc>
 800951e:	4604      	mov	r4, r0
 8009520:	b930      	cbnz	r0, 8009530 <__d2b+0x24>
 8009522:	4602      	mov	r2, r0
 8009524:	4b25      	ldr	r3, [pc, #148]	; (80095bc <__d2b+0xb0>)
 8009526:	4826      	ldr	r0, [pc, #152]	; (80095c0 <__d2b+0xb4>)
 8009528:	f240 310a 	movw	r1, #778	; 0x30a
 800952c:	f000 fcbc 	bl	8009ea8 <__assert_func>
 8009530:	f3c7 550a 	ubfx	r5, r7, #20, #11
 8009534:	f3c7 0313 	ubfx	r3, r7, #0, #20
 8009538:	bb35      	cbnz	r5, 8009588 <__d2b+0x7c>
 800953a:	2e00      	cmp	r6, #0
 800953c:	9301      	str	r3, [sp, #4]
 800953e:	d028      	beq.n	8009592 <__d2b+0x86>
 8009540:	4668      	mov	r0, sp
 8009542:	9600      	str	r6, [sp, #0]
 8009544:	f7ff fd10 	bl	8008f68 <__lo0bits>
 8009548:	9900      	ldr	r1, [sp, #0]
 800954a:	b300      	cbz	r0, 800958e <__d2b+0x82>
 800954c:	9a01      	ldr	r2, [sp, #4]
 800954e:	f1c0 0320 	rsb	r3, r0, #32
 8009552:	fa02 f303 	lsl.w	r3, r2, r3
 8009556:	430b      	orrs	r3, r1
 8009558:	40c2      	lsrs	r2, r0
 800955a:	6163      	str	r3, [r4, #20]
 800955c:	9201      	str	r2, [sp, #4]
 800955e:	9b01      	ldr	r3, [sp, #4]
 8009560:	61a3      	str	r3, [r4, #24]
 8009562:	2b00      	cmp	r3, #0
 8009564:	bf14      	ite	ne
 8009566:	2202      	movne	r2, #2
 8009568:	2201      	moveq	r2, #1
 800956a:	6122      	str	r2, [r4, #16]
 800956c:	b1d5      	cbz	r5, 80095a4 <__d2b+0x98>
 800956e:	f2a5 4533 	subw	r5, r5, #1075	; 0x433
 8009572:	4405      	add	r5, r0
 8009574:	f8c9 5000 	str.w	r5, [r9]
 8009578:	f1c0 0035 	rsb	r0, r0, #53	; 0x35
 800957c:	f8c8 0000 	str.w	r0, [r8]
 8009580:	4620      	mov	r0, r4
 8009582:	b003      	add	sp, #12
 8009584:	e8bd 83f0 	ldmia.w	sp!, {r4, r5, r6, r7, r8, r9, pc}
 8009588:	f443 1380 	orr.w	r3, r3, #1048576	; 0x100000
 800958c:	e7d5      	b.n	800953a <__d2b+0x2e>
 800958e:	6161      	str	r1, [r4, #20]
 8009590:	e7e5      	b.n	800955e <__d2b+0x52>
 8009592:	a801      	add	r0, sp, #4
 8009594:	f7ff fce8 	bl	8008f68 <__lo0bits>
 8009598:	9b01      	ldr	r3, [sp, #4]
 800959a:	6163      	str	r3, [r4, #20]
 800959c:	2201      	movs	r2, #1
 800959e:	6122      	str	r2, [r4, #16]
 80095a0:	3020      	adds	r0, #32
 80095a2:	e7e3      	b.n	800956c <__d2b+0x60>
 80095a4:	eb04 0382 	add.w	r3, r4, r2, lsl #2
 80095a8:	f2a0 4032 	subw	r0, r0, #1074	; 0x432
 80095ac:	f8c9 0000 	str.w	r0, [r9]
 80095b0:	6918      	ldr	r0, [r3, #16]
 80095b2:	f7ff fcb9 	bl	8008f28 <__hi0bits>
 80095b6:	ebc0 1042 	rsb	r0, r0, r2, lsl #5
 80095ba:	e7df      	b.n	800957c <__d2b+0x70>
 80095bc:	0800b35c 	.word	0x0800b35c
 80095c0:	0800b450 	.word	0x0800b450

080095c4 <__ratio>:
 80095c4:	e92d 4ff7 	stmdb	sp!, {r0, r1, r2, r4, r5, r6, r7, r8, r9, sl, fp, lr}
 80095c8:	4688      	mov	r8, r1
 80095ca:	4669      	mov	r1, sp
 80095cc:	4681      	mov	r9, r0
 80095ce:	f7ff ff4d 	bl	800946c <__b2d>
 80095d2:	a901      	add	r1, sp, #4
 80095d4:	4640      	mov	r0, r8
 80095d6:	ec55 4b10 	vmov	r4, r5, d0
 80095da:	f7ff ff47 	bl	800946c <__b2d>
 80095de:	f8d9 3010 	ldr.w	r3, [r9, #16]
 80095e2:	f8d8 2010 	ldr.w	r2, [r8, #16]
 80095e6:	eba3 0c02 	sub.w	ip, r3, r2
 80095ea:	e9dd 3200 	ldrd	r3, r2, [sp]
 80095ee:	1a9b      	subs	r3, r3, r2
 80095f0:	eb03 134c 	add.w	r3, r3, ip, lsl #5
 80095f4:	ec51 0b10 	vmov	r0, r1, d0
 80095f8:	2b00      	cmp	r3, #0
 80095fa:	bfd6      	itet	le
 80095fc:	460a      	movle	r2, r1
 80095fe:	462a      	movgt	r2, r5
 8009600:	ebc3 3303 	rsble	r3, r3, r3, lsl #12
 8009604:	468b      	mov	fp, r1
 8009606:	462f      	mov	r7, r5
 8009608:	bfd4      	ite	le
 800960a:	eb02 5b03 	addle.w	fp, r2, r3, lsl #20
 800960e:	eb02 5703 	addgt.w	r7, r2, r3, lsl #20
 8009612:	4620      	mov	r0, r4
 8009614:	ee10 2a10 	vmov	r2, s0
 8009618:	465b      	mov	r3, fp
 800961a:	4639      	mov	r1, r7
 800961c:	f7f7 f916 	bl	800084c <__aeabi_ddiv>
 8009620:	ec41 0b10 	vmov	d0, r0, r1
 8009624:	b003      	add	sp, #12
 8009626:	e8bd 8ff0 	ldmia.w	sp!, {r4, r5, r6, r7, r8, r9, sl, fp, pc}

0800962a <__copybits>:
 800962a:	3901      	subs	r1, #1
 800962c:	b570      	push	{r4, r5, r6, lr}
 800962e:	1149      	asrs	r1, r1, #5
 8009630:	6914      	ldr	r4, [r2, #16]
 8009632:	3101      	adds	r1, #1
 8009634:	f102 0314 	add.w	r3, r2, #20
 8009638:	eb00 0181 	add.w	r1, r0, r1, lsl #2
 800963c:	eb03 0484 	add.w	r4, r3, r4, lsl #2
 8009640:	1f05      	subs	r5, r0, #4
 8009642:	42a3      	cmp	r3, r4
 8009644:	d30c      	bcc.n	8009660 <__copybits+0x36>
 8009646:	1aa3      	subs	r3, r4, r2
 8009648:	3b11      	subs	r3, #17
 800964a:	f023 0303 	bic.w	r3, r3, #3
 800964e:	3211      	adds	r2, #17
 8009650:	42a2      	cmp	r2, r4
 8009652:	bf88      	it	hi
 8009654:	2300      	movhi	r3, #0
 8009656:	4418      	add	r0, r3
 8009658:	2300      	movs	r3, #0
 800965a:	4288      	cmp	r0, r1
 800965c:	d305      	bcc.n	800966a <__copybits+0x40>
 800965e:	bd70      	pop	{r4, r5, r6, pc}
 8009660:	f853 6b04 	ldr.w	r6, [r3], #4
 8009664:	f845 6f04 	str.w	r6, [r5, #4]!
 8009668:	e7eb      	b.n	8009642 <__copybits+0x18>
 800966a:	f840 3b04 	str.w	r3, [r0], #4
 800966e:	e7f4      	b.n	800965a <__copybits+0x30>

08009670 <__any_on>:
 8009670:	f100 0214 	add.w	r2, r0, #20
 8009674:	6900      	ldr	r0, [r0, #16]
 8009676:	114b      	asrs	r3, r1, #5
 8009678:	4298      	cmp	r0, r3
 800967a:	b510      	push	{r4, lr}
 800967c:	db11      	blt.n	80096a2 <__any_on+0x32>
 800967e:	dd0a      	ble.n	8009696 <__any_on+0x26>
 8009680:	f011 011f 	ands.w	r1, r1, #31
 8009684:	d007      	beq.n	8009696 <__any_on+0x26>
 8009686:	f852 4023 	ldr.w	r4, [r2, r3, lsl #2]
 800968a:	fa24 f001 	lsr.w	r0, r4, r1
 800968e:	fa00 f101 	lsl.w	r1, r0, r1
 8009692:	428c      	cmp	r4, r1
 8009694:	d10b      	bne.n	80096ae <__any_on+0x3e>
 8009696:	eb02 0383 	add.w	r3, r2, r3, lsl #2
 800969a:	4293      	cmp	r3, r2
 800969c:	d803      	bhi.n	80096a6 <__any_on+0x36>
 800969e:	2000      	movs	r0, #0
 80096a0:	bd10      	pop	{r4, pc}
 80096a2:	4603      	mov	r3, r0
 80096a4:	e7f7      	b.n	8009696 <__any_on+0x26>
 80096a6:	f853 1d04 	ldr.w	r1, [r3, #-4]!
 80096aa:	2900      	cmp	r1, #0
 80096ac:	d0f5      	beq.n	800969a <__any_on+0x2a>
 80096ae:	2001      	movs	r0, #1
 80096b0:	e7f6      	b.n	80096a0 <__any_on+0x30>

080096b2 <_calloc_r>:
 80096b2:	b513      	push	{r0, r1, r4, lr}
 80096b4:	434a      	muls	r2, r1
 80096b6:	4611      	mov	r1, r2
 80096b8:	9201      	str	r2, [sp, #4]
 80096ba:	f000 f859 	bl	8009770 <_malloc_r>
 80096be:	4604      	mov	r4, r0
 80096c0:	b118      	cbz	r0, 80096ca <_calloc_r+0x18>
 80096c2:	9a01      	ldr	r2, [sp, #4]
 80096c4:	2100      	movs	r1, #0
 80096c6:	f7fc f85d 	bl	8005784 <memset>
 80096ca:	4620      	mov	r0, r4
 80096cc:	b002      	add	sp, #8
 80096ce:	bd10      	pop	{r4, pc}

080096d0 <_free_r>:
 80096d0:	b537      	push	{r0, r1, r2, r4, r5, lr}
 80096d2:	2900      	cmp	r1, #0
 80096d4:	d048      	beq.n	8009768 <_free_r+0x98>
 80096d6:	f851 3c04 	ldr.w	r3, [r1, #-4]
 80096da:	9001      	str	r0, [sp, #4]
 80096dc:	2b00      	cmp	r3, #0
 80096de:	f1a1 0404 	sub.w	r4, r1, #4
 80096e2:	bfb8      	it	lt
 80096e4:	18e4      	addlt	r4, r4, r3
 80096e6:	f000 fc6d 	bl	8009fc4 <__malloc_lock>
 80096ea:	4a20      	ldr	r2, [pc, #128]	; (800976c <_free_r+0x9c>)
 80096ec:	9801      	ldr	r0, [sp, #4]
 80096ee:	6813      	ldr	r3, [r2, #0]
 80096f0:	4615      	mov	r5, r2
 80096f2:	b933      	cbnz	r3, 8009702 <_free_r+0x32>
 80096f4:	6063      	str	r3, [r4, #4]
 80096f6:	6014      	str	r4, [r2, #0]
 80096f8:	b003      	add	sp, #12
 80096fa:	e8bd 4030 	ldmia.w	sp!, {r4, r5, lr}
 80096fe:	f000 bc67 	b.w	8009fd0 <__malloc_unlock>
 8009702:	42a3      	cmp	r3, r4
 8009704:	d90b      	bls.n	800971e <_free_r+0x4e>
 8009706:	6821      	ldr	r1, [r4, #0]
 8009708:	1862      	adds	r2, r4, r1
 800970a:	4293      	cmp	r3, r2
 800970c:	bf04      	itt	eq
 800970e:	681a      	ldreq	r2, [r3, #0]
 8009710:	685b      	ldreq	r3, [r3, #4]
 8009712:	6063      	str	r3, [r4, #4]
 8009714:	bf04      	itt	eq
 8009716:	1852      	addeq	r2, r2, r1
 8009718:	6022      	streq	r2, [r4, #0]
 800971a:	602c      	str	r4, [r5, #0]
 800971c:	e7ec      	b.n	80096f8 <_free_r+0x28>
 800971e:	461a      	mov	r2, r3
 8009720:	685b      	ldr	r3, [r3, #4]
 8009722:	b10b      	cbz	r3, 8009728 <_free_r+0x58>
 8009724:	42a3      	cmp	r3, r4
 8009726:	d9fa      	bls.n	800971e <_free_r+0x4e>
 8009728:	6811      	ldr	r1, [r2, #0]
 800972a:	1855      	adds	r5, r2, r1
 800972c:	42a5      	cmp	r5, r4
 800972e:	d10b      	bne.n	8009748 <_free_r+0x78>
 8009730:	6824      	ldr	r4, [r4, #0]
 8009732:	4421      	add	r1, r4
 8009734:	1854      	adds	r4, r2, r1
 8009736:	42a3      	cmp	r3, r4
 8009738:	6011      	str	r1, [r2, #0]
 800973a:	d1dd      	bne.n	80096f8 <_free_r+0x28>
 800973c:	681c      	ldr	r4, [r3, #0]
 800973e:	685b      	ldr	r3, [r3, #4]
 8009740:	6053      	str	r3, [r2, #4]
 8009742:	4421      	add	r1, r4
 8009744:	6011      	str	r1, [r2, #0]
 8009746:	e7d7      	b.n	80096f8 <_free_r+0x28>
 8009748:	d902      	bls.n	8009750 <_free_r+0x80>
 800974a:	230c      	movs	r3, #12
 800974c:	6003      	str	r3, [r0, #0]
 800974e:	e7d3      	b.n	80096f8 <_free_r+0x28>
 8009750:	6825      	ldr	r5, [r4, #0]
 8009752:	1961      	adds	r1, r4, r5
 8009754:	428b      	cmp	r3, r1
 8009756:	bf04      	itt	eq
 8009758:	6819      	ldreq	r1, [r3, #0]
 800975a:	685b      	ldreq	r3, [r3, #4]
 800975c:	6063      	str	r3, [r4, #4]
 800975e:	bf04      	itt	eq
 8009760:	1949      	addeq	r1, r1, r5
 8009762:	6021      	streq	r1, [r4, #0]
 8009764:	6054      	str	r4, [r2, #4]
 8009766:	e7c7      	b.n	80096f8 <_free_r+0x28>
 8009768:	b003      	add	sp, #12
 800976a:	bd30      	pop	{r4, r5, pc}
 800976c:	2000023c 	.word	0x2000023c

08009770 <_malloc_r>:
 8009770:	b5f8      	push	{r3, r4, r5, r6, r7, lr}
 8009772:	1ccd      	adds	r5, r1, #3
 8009774:	f025 0503 	bic.w	r5, r5, #3
 8009778:	3508      	adds	r5, #8
 800977a:	2d0c      	cmp	r5, #12
 800977c:	bf38      	it	cc
 800977e:	250c      	movcc	r5, #12
 8009780:	2d00      	cmp	r5, #0
 8009782:	4606      	mov	r6, r0
 8009784:	db01      	blt.n	800978a <_malloc_r+0x1a>
 8009786:	42a9      	cmp	r1, r5
 8009788:	d903      	bls.n	8009792 <_malloc_r+0x22>
 800978a:	230c      	movs	r3, #12
 800978c:	6033      	str	r3, [r6, #0]
 800978e:	2000      	movs	r0, #0
 8009790:	bdf8      	pop	{r3, r4, r5, r6, r7, pc}
 8009792:	f000 fc17 	bl	8009fc4 <__malloc_lock>
 8009796:	4921      	ldr	r1, [pc, #132]	; (800981c <_malloc_r+0xac>)
 8009798:	680a      	ldr	r2, [r1, #0]
 800979a:	4614      	mov	r4, r2
 800979c:	b99c      	cbnz	r4, 80097c6 <_malloc_r+0x56>
 800979e:	4f20      	ldr	r7, [pc, #128]	; (8009820 <_malloc_r+0xb0>)
 80097a0:	683b      	ldr	r3, [r7, #0]
 80097a2:	b923      	cbnz	r3, 80097ae <_malloc_r+0x3e>
 80097a4:	4621      	mov	r1, r4
 80097a6:	4630      	mov	r0, r6
 80097a8:	f000 fafa 	bl	8009da0 <_sbrk_r>
 80097ac:	6038      	str	r0, [r7, #0]
 80097ae:	4629      	mov	r1, r5
 80097b0:	4630      	mov	r0, r6
 80097b2:	f000 faf5 	bl	8009da0 <_sbrk_r>
 80097b6:	1c43      	adds	r3, r0, #1
 80097b8:	d123      	bne.n	8009802 <_malloc_r+0x92>
 80097ba:	230c      	movs	r3, #12
 80097bc:	6033      	str	r3, [r6, #0]
 80097be:	4630      	mov	r0, r6
 80097c0:	f000 fc06 	bl	8009fd0 <__malloc_unlock>
 80097c4:	e7e3      	b.n	800978e <_malloc_r+0x1e>
 80097c6:	6823      	ldr	r3, [r4, #0]
 80097c8:	1b5b      	subs	r3, r3, r5
 80097ca:	d417      	bmi.n	80097fc <_malloc_r+0x8c>
 80097cc:	2b0b      	cmp	r3, #11
 80097ce:	d903      	bls.n	80097d8 <_malloc_r+0x68>
 80097d0:	6023      	str	r3, [r4, #0]
 80097d2:	441c      	add	r4, r3
 80097d4:	6025      	str	r5, [r4, #0]
 80097d6:	e004      	b.n	80097e2 <_malloc_r+0x72>
 80097d8:	6863      	ldr	r3, [r4, #4]
 80097da:	42a2      	cmp	r2, r4
 80097dc:	bf0c      	ite	eq
 80097de:	600b      	streq	r3, [r1, #0]
 80097e0:	6053      	strne	r3, [r2, #4]
 80097e2:	4630      	mov	r0, r6
 80097e4:	f000 fbf4 	bl	8009fd0 <__malloc_unlock>
 80097e8:	f104 000b 	add.w	r0, r4, #11
 80097ec:	1d23      	adds	r3, r4, #4
 80097ee:	f020 0007 	bic.w	r0, r0, #7
 80097f2:	1ac2      	subs	r2, r0, r3
 80097f4:	d0cc      	beq.n	8009790 <_malloc_r+0x20>
 80097f6:	1a1b      	subs	r3, r3, r0
 80097f8:	50a3      	str	r3, [r4, r2]
 80097fa:	e7c9      	b.n	8009790 <_malloc_r+0x20>
 80097fc:	4622      	mov	r2, r4
 80097fe:	6864      	ldr	r4, [r4, #4]
 8009800:	e7cc      	b.n	800979c <_malloc_r+0x2c>
 8009802:	1cc4      	adds	r4, r0, #3
 8009804:	f024 0403 	bic.w	r4, r4, #3
 8009808:	42a0      	cmp	r0, r4
 800980a:	d0e3      	beq.n	80097d4 <_malloc_r+0x64>
 800980c:	1a21      	subs	r1, r4, r0
 800980e:	4630      	mov	r0, r6
 8009810:	f000 fac6 	bl	8009da0 <_sbrk_r>
 8009814:	3001      	adds	r0, #1
 8009816:	d1dd      	bne.n	80097d4 <_malloc_r+0x64>
 8009818:	e7cf      	b.n	80097ba <_malloc_r+0x4a>
 800981a:	bf00      	nop
 800981c:	2000023c 	.word	0x2000023c
 8009820:	20000240 	.word	0x20000240

08009824 <__ssputs_r>:
 8009824:	e92d 47f0 	stmdb	sp!, {r4, r5, r6, r7, r8, r9, sl, lr}
 8009828:	688e      	ldr	r6, [r1, #8]
 800982a:	429e      	cmp	r6, r3
 800982c:	4682      	mov	sl, r0
 800982e:	460c      	mov	r4, r1
 8009830:	4690      	mov	r8, r2
 8009832:	461f      	mov	r7, r3
 8009834:	d838      	bhi.n	80098a8 <__ssputs_r+0x84>
 8009836:	898a      	ldrh	r2, [r1, #12]
 8009838:	f412 6f90 	tst.w	r2, #1152	; 0x480
 800983c:	d032      	beq.n	80098a4 <__ssputs_r+0x80>
 800983e:	6825      	ldr	r5, [r4, #0]
 8009840:	6909      	ldr	r1, [r1, #16]
 8009842:	eba5 0901 	sub.w	r9, r5, r1
 8009846:	6965      	ldr	r5, [r4, #20]
 8009848:	eb05 0545 	add.w	r5, r5, r5, lsl #1
 800984c:	eb05 75d5 	add.w	r5, r5, r5, lsr #31
 8009850:	3301      	adds	r3, #1
 8009852:	444b      	add	r3, r9
 8009854:	106d      	asrs	r5, r5, #1
 8009856:	429d      	cmp	r5, r3
 8009858:	bf38      	it	cc
 800985a:	461d      	movcc	r5, r3
 800985c:	0553      	lsls	r3, r2, #21
 800985e:	d531      	bpl.n	80098c4 <__ssputs_r+0xa0>
 8009860:	4629      	mov	r1, r5
 8009862:	f7ff ff85 	bl	8009770 <_malloc_r>
 8009866:	4606      	mov	r6, r0
 8009868:	b950      	cbnz	r0, 8009880 <__ssputs_r+0x5c>
 800986a:	230c      	movs	r3, #12
 800986c:	f8ca 3000 	str.w	r3, [sl]
 8009870:	89a3      	ldrh	r3, [r4, #12]
 8009872:	f043 0340 	orr.w	r3, r3, #64	; 0x40
 8009876:	81a3      	strh	r3, [r4, #12]
 8009878:	f04f 30ff 	mov.w	r0, #4294967295
 800987c:	e8bd 87f0 	ldmia.w	sp!, {r4, r5, r6, r7, r8, r9, sl, pc}
 8009880:	6921      	ldr	r1, [r4, #16]
 8009882:	464a      	mov	r2, r9
 8009884:	f7ff fa4c 	bl	8008d20 <memcpy>
 8009888:	89a3      	ldrh	r3, [r4, #12]
 800988a:	f423 6390 	bic.w	r3, r3, #1152	; 0x480
 800988e:	f043 0380 	orr.w	r3, r3, #128	; 0x80
 8009892:	81a3      	strh	r3, [r4, #12]
 8009894:	6126      	str	r6, [r4, #16]
 8009896:	6165      	str	r5, [r4, #20]
 8009898:	444e      	add	r6, r9
 800989a:	eba5 0509 	sub.w	r5, r5, r9
 800989e:	6026      	str	r6, [r4, #0]
 80098a0:	60a5      	str	r5, [r4, #8]
 80098a2:	463e      	mov	r6, r7
 80098a4:	42be      	cmp	r6, r7
 80098a6:	d900      	bls.n	80098aa <__ssputs_r+0x86>
 80098a8:	463e      	mov	r6, r7
 80098aa:	4632      	mov	r2, r6
 80098ac:	6820      	ldr	r0, [r4, #0]
 80098ae:	4641      	mov	r1, r8
 80098b0:	f000 fb6e 	bl	8009f90 <memmove>
 80098b4:	68a3      	ldr	r3, [r4, #8]
 80098b6:	6822      	ldr	r2, [r4, #0]
 80098b8:	1b9b      	subs	r3, r3, r6
 80098ba:	4432      	add	r2, r6
 80098bc:	60a3      	str	r3, [r4, #8]
 80098be:	6022      	str	r2, [r4, #0]
 80098c0:	2000      	movs	r0, #0
 80098c2:	e7db      	b.n	800987c <__ssputs_r+0x58>
 80098c4:	462a      	mov	r2, r5
 80098c6:	f000 fb89 	bl	8009fdc <_realloc_r>
 80098ca:	4606      	mov	r6, r0
 80098cc:	2800      	cmp	r0, #0
 80098ce:	d1e1      	bne.n	8009894 <__ssputs_r+0x70>
 80098d0:	6921      	ldr	r1, [r4, #16]
 80098d2:	4650      	mov	r0, sl
 80098d4:	f7ff fefc 	bl	80096d0 <_free_r>
 80098d8:	e7c7      	b.n	800986a <__ssputs_r+0x46>
	...

080098dc <_svfiprintf_r>:
 80098dc:	e92d 4ff0 	stmdb	sp!, {r4, r5, r6, r7, r8, r9, sl, fp, lr}
 80098e0:	4698      	mov	r8, r3
 80098e2:	898b      	ldrh	r3, [r1, #12]
 80098e4:	061b      	lsls	r3, r3, #24
 80098e6:	b09d      	sub	sp, #116	; 0x74
 80098e8:	4607      	mov	r7, r0
 80098ea:	460d      	mov	r5, r1
 80098ec:	4614      	mov	r4, r2
 80098ee:	d50e      	bpl.n	800990e <_svfiprintf_r+0x32>
 80098f0:	690b      	ldr	r3, [r1, #16]
 80098f2:	b963      	cbnz	r3, 800990e <_svfiprintf_r+0x32>
 80098f4:	2140      	movs	r1, #64	; 0x40
 80098f6:	f7ff ff3b 	bl	8009770 <_malloc_r>
 80098fa:	6028      	str	r0, [r5, #0]
 80098fc:	6128      	str	r0, [r5, #16]
 80098fe:	b920      	cbnz	r0, 800990a <_svfiprintf_r+0x2e>
 8009900:	230c      	movs	r3, #12
 8009902:	603b      	str	r3, [r7, #0]
 8009904:	f04f 30ff 	mov.w	r0, #4294967295
 8009908:	e0d1      	b.n	8009aae <_svfiprintf_r+0x1d2>
 800990a:	2340      	movs	r3, #64	; 0x40
 800990c:	616b      	str	r3, [r5, #20]
 800990e:	2300      	movs	r3, #0
 8009910:	9309      	str	r3, [sp, #36]	; 0x24
 8009912:	2320      	movs	r3, #32
 8009914:	f88d 3029 	strb.w	r3, [sp, #41]	; 0x29
 8009918:	f8cd 800c 	str.w	r8, [sp, #12]
 800991c:	2330      	movs	r3, #48	; 0x30
 800991e:	f8df 81a8 	ldr.w	r8, [pc, #424]	; 8009ac8 <_svfiprintf_r+0x1ec>
 8009922:	f88d 302a 	strb.w	r3, [sp, #42]	; 0x2a
 8009926:	f04f 0901 	mov.w	r9, #1
 800992a:	4623      	mov	r3, r4
 800992c:	469a      	mov	sl, r3
 800992e:	f813 2b01 	ldrb.w	r2, [r3], #1
 8009932:	b10a      	cbz	r2, 8009938 <_svfiprintf_r+0x5c>
 8009934:	2a25      	cmp	r2, #37	; 0x25
 8009936:	d1f9      	bne.n	800992c <_svfiprintf_r+0x50>
 8009938:	ebba 0b04 	subs.w	fp, sl, r4
 800993c:	d00b      	beq.n	8009956 <_svfiprintf_r+0x7a>
 800993e:	465b      	mov	r3, fp
 8009940:	4622      	mov	r2, r4
 8009942:	4629      	mov	r1, r5
 8009944:	4638      	mov	r0, r7
 8009946:	f7ff ff6d 	bl	8009824 <__ssputs_r>
 800994a:	3001      	adds	r0, #1
 800994c:	f000 80aa 	beq.w	8009aa4 <_svfiprintf_r+0x1c8>
 8009950:	9a09      	ldr	r2, [sp, #36]	; 0x24
 8009952:	445a      	add	r2, fp
 8009954:	9209      	str	r2, [sp, #36]	; 0x24
 8009956:	f89a 3000 	ldrb.w	r3, [sl]
 800995a:	2b00      	cmp	r3, #0
 800995c:	f000 80a2 	beq.w	8009aa4 <_svfiprintf_r+0x1c8>
 8009960:	2300      	movs	r3, #0
 8009962:	f04f 32ff 	mov.w	r2, #4294967295
 8009966:	e9cd 2305 	strd	r2, r3, [sp, #20]
 800996a:	f10a 0a01 	add.w	sl, sl, #1
 800996e:	9304      	str	r3, [sp, #16]
 8009970:	9307      	str	r3, [sp, #28]
 8009972:	f88d 3053 	strb.w	r3, [sp, #83]	; 0x53
 8009976:	931a      	str	r3, [sp, #104]	; 0x68
 8009978:	4654      	mov	r4, sl
 800997a:	2205      	movs	r2, #5
 800997c:	f814 1b01 	ldrb.w	r1, [r4], #1
 8009980:	4851      	ldr	r0, [pc, #324]	; (8009ac8 <_svfiprintf_r+0x1ec>)
 8009982:	f7f6 fc2d 	bl	80001e0 <memchr>
 8009986:	9a04      	ldr	r2, [sp, #16]
 8009988:	b9d8      	cbnz	r0, 80099c2 <_svfiprintf_r+0xe6>
 800998a:	06d0      	lsls	r0, r2, #27
 800998c:	bf44      	itt	mi
 800998e:	2320      	movmi	r3, #32
 8009990:	f88d 3053 	strbmi.w	r3, [sp, #83]	; 0x53
 8009994:	0711      	lsls	r1, r2, #28
 8009996:	bf44      	itt	mi
 8009998:	232b      	movmi	r3, #43	; 0x2b
 800999a:	f88d 3053 	strbmi.w	r3, [sp, #83]	; 0x53
 800999e:	f89a 3000 	ldrb.w	r3, [sl]
 80099a2:	2b2a      	cmp	r3, #42	; 0x2a
 80099a4:	d015      	beq.n	80099d2 <_svfiprintf_r+0xf6>
 80099a6:	9a07      	ldr	r2, [sp, #28]
 80099a8:	4654      	mov	r4, sl
 80099aa:	2000      	movs	r0, #0
 80099ac:	f04f 0c0a 	mov.w	ip, #10
 80099b0:	4621      	mov	r1, r4
 80099b2:	f811 3b01 	ldrb.w	r3, [r1], #1
 80099b6:	3b30      	subs	r3, #48	; 0x30
 80099b8:	2b09      	cmp	r3, #9
 80099ba:	d94e      	bls.n	8009a5a <_svfiprintf_r+0x17e>
 80099bc:	b1b0      	cbz	r0, 80099ec <_svfiprintf_r+0x110>
 80099be:	9207      	str	r2, [sp, #28]
 80099c0:	e014      	b.n	80099ec <_svfiprintf_r+0x110>
 80099c2:	eba0 0308 	sub.w	r3, r0, r8
 80099c6:	fa09 f303 	lsl.w	r3, r9, r3
 80099ca:	4313      	orrs	r3, r2
 80099cc:	9304      	str	r3, [sp, #16]
 80099ce:	46a2      	mov	sl, r4
 80099d0:	e7d2      	b.n	8009978 <_svfiprintf_r+0x9c>
 80099d2:	9b03      	ldr	r3, [sp, #12]
 80099d4:	1d19      	adds	r1, r3, #4
 80099d6:	681b      	ldr	r3, [r3, #0]
 80099d8:	9103      	str	r1, [sp, #12]
 80099da:	2b00      	cmp	r3, #0
 80099dc:	bfbb      	ittet	lt
 80099de:	425b      	neglt	r3, r3
 80099e0:	f042 0202 	orrlt.w	r2, r2, #2
 80099e4:	9307      	strge	r3, [sp, #28]
 80099e6:	9307      	strlt	r3, [sp, #28]
 80099e8:	bfb8      	it	lt
 80099ea:	9204      	strlt	r2, [sp, #16]
 80099ec:	7823      	ldrb	r3, [r4, #0]
 80099ee:	2b2e      	cmp	r3, #46	; 0x2e
 80099f0:	d10c      	bne.n	8009a0c <_svfiprintf_r+0x130>
 80099f2:	7863      	ldrb	r3, [r4, #1]
 80099f4:	2b2a      	cmp	r3, #42	; 0x2a
 80099f6:	d135      	bne.n	8009a64 <_svfiprintf_r+0x188>
 80099f8:	9b03      	ldr	r3, [sp, #12]
 80099fa:	1d1a      	adds	r2, r3, #4
 80099fc:	681b      	ldr	r3, [r3, #0]
 80099fe:	9203      	str	r2, [sp, #12]
 8009a00:	2b00      	cmp	r3, #0
 8009a02:	bfb8      	it	lt
 8009a04:	f04f 33ff 	movlt.w	r3, #4294967295
 8009a08:	3402      	adds	r4, #2
 8009a0a:	9305      	str	r3, [sp, #20]
 8009a0c:	f8df a0c8 	ldr.w	sl, [pc, #200]	; 8009ad8 <_svfiprintf_r+0x1fc>
 8009a10:	7821      	ldrb	r1, [r4, #0]
 8009a12:	2203      	movs	r2, #3
 8009a14:	4650      	mov	r0, sl
 8009a16:	f7f6 fbe3 	bl	80001e0 <memchr>
 8009a1a:	b140      	cbz	r0, 8009a2e <_svfiprintf_r+0x152>
 8009a1c:	2340      	movs	r3, #64	; 0x40
 8009a1e:	eba0 000a 	sub.w	r0, r0, sl
 8009a22:	fa03 f000 	lsl.w	r0, r3, r0
 8009a26:	9b04      	ldr	r3, [sp, #16]
 8009a28:	4303      	orrs	r3, r0
 8009a2a:	3401      	adds	r4, #1
 8009a2c:	9304      	str	r3, [sp, #16]
 8009a2e:	f814 1b01 	ldrb.w	r1, [r4], #1
 8009a32:	4826      	ldr	r0, [pc, #152]	; (8009acc <_svfiprintf_r+0x1f0>)
 8009a34:	f88d 1028 	strb.w	r1, [sp, #40]	; 0x28
 8009a38:	2206      	movs	r2, #6
 8009a3a:	f7f6 fbd1 	bl	80001e0 <memchr>
 8009a3e:	2800      	cmp	r0, #0
 8009a40:	d038      	beq.n	8009ab4 <_svfiprintf_r+0x1d8>
 8009a42:	4b23      	ldr	r3, [pc, #140]	; (8009ad0 <_svfiprintf_r+0x1f4>)
 8009a44:	bb1b      	cbnz	r3, 8009a8e <_svfiprintf_r+0x1b2>
 8009a46:	9b03      	ldr	r3, [sp, #12]
 8009a48:	3307      	adds	r3, #7
 8009a4a:	f023 0307 	bic.w	r3, r3, #7
 8009a4e:	3308      	adds	r3, #8
 8009a50:	9303      	str	r3, [sp, #12]
 8009a52:	9b09      	ldr	r3, [sp, #36]	; 0x24
 8009a54:	4433      	add	r3, r6
 8009a56:	9309      	str	r3, [sp, #36]	; 0x24
 8009a58:	e767      	b.n	800992a <_svfiprintf_r+0x4e>
 8009a5a:	fb0c 3202 	mla	r2, ip, r2, r3
 8009a5e:	460c      	mov	r4, r1
 8009a60:	2001      	movs	r0, #1
 8009a62:	e7a5      	b.n	80099b0 <_svfiprintf_r+0xd4>
 8009a64:	2300      	movs	r3, #0
 8009a66:	3401      	adds	r4, #1
 8009a68:	9305      	str	r3, [sp, #20]
 8009a6a:	4619      	mov	r1, r3
 8009a6c:	f04f 0c0a 	mov.w	ip, #10
 8009a70:	4620      	mov	r0, r4
 8009a72:	f810 2b01 	ldrb.w	r2, [r0], #1
 8009a76:	3a30      	subs	r2, #48	; 0x30
 8009a78:	2a09      	cmp	r2, #9
 8009a7a:	d903      	bls.n	8009a84 <_svfiprintf_r+0x1a8>
 8009a7c:	2b00      	cmp	r3, #0
 8009a7e:	d0c5      	beq.n	8009a0c <_svfiprintf_r+0x130>
 8009a80:	9105      	str	r1, [sp, #20]
 8009a82:	e7c3      	b.n	8009a0c <_svfiprintf_r+0x130>
 8009a84:	fb0c 2101 	mla	r1, ip, r1, r2
 8009a88:	4604      	mov	r4, r0
 8009a8a:	2301      	movs	r3, #1
 8009a8c:	e7f0      	b.n	8009a70 <_svfiprintf_r+0x194>
 8009a8e:	ab03      	add	r3, sp, #12
 8009a90:	9300      	str	r3, [sp, #0]
 8009a92:	462a      	mov	r2, r5
 8009a94:	4b0f      	ldr	r3, [pc, #60]	; (8009ad4 <_svfiprintf_r+0x1f8>)
 8009a96:	a904      	add	r1, sp, #16
 8009a98:	4638      	mov	r0, r7
 8009a9a:	f7fb ff1b 	bl	80058d4 <_printf_float>
 8009a9e:	1c42      	adds	r2, r0, #1
 8009aa0:	4606      	mov	r6, r0
 8009aa2:	d1d6      	bne.n	8009a52 <_svfiprintf_r+0x176>
 8009aa4:	89ab      	ldrh	r3, [r5, #12]
 8009aa6:	065b      	lsls	r3, r3, #25
 8009aa8:	f53f af2c 	bmi.w	8009904 <_svfiprintf_r+0x28>
 8009aac:	9809      	ldr	r0, [sp, #36]	; 0x24
 8009aae:	b01d      	add	sp, #116	; 0x74
 8009ab0:	e8bd 8ff0 	ldmia.w	sp!, {r4, r5, r6, r7, r8, r9, sl, fp, pc}
 8009ab4:	ab03      	add	r3, sp, #12
 8009ab6:	9300      	str	r3, [sp, #0]
 8009ab8:	462a      	mov	r2, r5
 8009aba:	4b06      	ldr	r3, [pc, #24]	; (8009ad4 <_svfiprintf_r+0x1f8>)
 8009abc:	a904      	add	r1, sp, #16
 8009abe:	4638      	mov	r0, r7
 8009ac0:	f7fc f9ac 	bl	8005e1c <_printf_i>
 8009ac4:	e7eb      	b.n	8009a9e <_svfiprintf_r+0x1c2>
 8009ac6:	bf00      	nop
 8009ac8:	0800b5ac 	.word	0x0800b5ac
 8009acc:	0800b5b6 	.word	0x0800b5b6
 8009ad0:	080058d5 	.word	0x080058d5
 8009ad4:	08009825 	.word	0x08009825
 8009ad8:	0800b5b2 	.word	0x0800b5b2

08009adc <__sfputc_r>:
 8009adc:	6893      	ldr	r3, [r2, #8]
 8009ade:	3b01      	subs	r3, #1
 8009ae0:	2b00      	cmp	r3, #0
 8009ae2:	b410      	push	{r4}
 8009ae4:	6093      	str	r3, [r2, #8]
 8009ae6:	da08      	bge.n	8009afa <__sfputc_r+0x1e>
 8009ae8:	6994      	ldr	r4, [r2, #24]
 8009aea:	42a3      	cmp	r3, r4
 8009aec:	db01      	blt.n	8009af2 <__sfputc_r+0x16>
 8009aee:	290a      	cmp	r1, #10
 8009af0:	d103      	bne.n	8009afa <__sfputc_r+0x1e>
 8009af2:	f85d 4b04 	ldr.w	r4, [sp], #4
 8009af6:	f7fd bc2d 	b.w	8007354 <__swbuf_r>
 8009afa:	6813      	ldr	r3, [r2, #0]
 8009afc:	1c58      	adds	r0, r3, #1
 8009afe:	6010      	str	r0, [r2, #0]
 8009b00:	7019      	strb	r1, [r3, #0]
 8009b02:	4608      	mov	r0, r1
 8009b04:	f85d 4b04 	ldr.w	r4, [sp], #4
 8009b08:	4770      	bx	lr

08009b0a <__sfputs_r>:
 8009b0a:	b5f8      	push	{r3, r4, r5, r6, r7, lr}
 8009b0c:	4606      	mov	r6, r0
 8009b0e:	460f      	mov	r7, r1
 8009b10:	4614      	mov	r4, r2
 8009b12:	18d5      	adds	r5, r2, r3
 8009b14:	42ac      	cmp	r4, r5
 8009b16:	d101      	bne.n	8009b1c <__sfputs_r+0x12>
 8009b18:	2000      	movs	r0, #0
 8009b1a:	e007      	b.n	8009b2c <__sfputs_r+0x22>
 8009b1c:	f814 1b01 	ldrb.w	r1, [r4], #1
 8009b20:	463a      	mov	r2, r7
 8009b22:	4630      	mov	r0, r6
 8009b24:	f7ff ffda 	bl	8009adc <__sfputc_r>
 8009b28:	1c43      	adds	r3, r0, #1
 8009b2a:	d1f3      	bne.n	8009b14 <__sfputs_r+0xa>
 8009b2c:	bdf8      	pop	{r3, r4, r5, r6, r7, pc}
	...

08009b30 <_vfiprintf_r>:
 8009b30:	e92d 4ff0 	stmdb	sp!, {r4, r5, r6, r7, r8, r9, sl, fp, lr}
 8009b34:	460d      	mov	r5, r1
 8009b36:	b09d      	sub	sp, #116	; 0x74
 8009b38:	4614      	mov	r4, r2
 8009b3a:	4698      	mov	r8, r3
 8009b3c:	4606      	mov	r6, r0
 8009b3e:	b118      	cbz	r0, 8009b48 <_vfiprintf_r+0x18>
 8009b40:	6983      	ldr	r3, [r0, #24]
 8009b42:	b90b      	cbnz	r3, 8009b48 <_vfiprintf_r+0x18>
 8009b44:	f7fe fc5a 	bl	80083fc <__sinit>
 8009b48:	4b89      	ldr	r3, [pc, #548]	; (8009d70 <_vfiprintf_r+0x240>)
 8009b4a:	429d      	cmp	r5, r3
 8009b4c:	d11b      	bne.n	8009b86 <_vfiprintf_r+0x56>
 8009b4e:	6875      	ldr	r5, [r6, #4]
 8009b50:	6e6b      	ldr	r3, [r5, #100]	; 0x64
 8009b52:	07d9      	lsls	r1, r3, #31
 8009b54:	d405      	bmi.n	8009b62 <_vfiprintf_r+0x32>
 8009b56:	89ab      	ldrh	r3, [r5, #12]
 8009b58:	059a      	lsls	r2, r3, #22
 8009b5a:	d402      	bmi.n	8009b62 <_vfiprintf_r+0x32>
 8009b5c:	6da8      	ldr	r0, [r5, #88]	; 0x58
 8009b5e:	f7ff f85e 	bl	8008c1e <__retarget_lock_acquire_recursive>
 8009b62:	89ab      	ldrh	r3, [r5, #12]
 8009b64:	071b      	lsls	r3, r3, #28
 8009b66:	d501      	bpl.n	8009b6c <_vfiprintf_r+0x3c>
 8009b68:	692b      	ldr	r3, [r5, #16]
 8009b6a:	b9eb      	cbnz	r3, 8009ba8 <_vfiprintf_r+0x78>
 8009b6c:	4629      	mov	r1, r5
 8009b6e:	4630      	mov	r0, r6
 8009b70:	f7fd fc42 	bl	80073f8 <__swsetup_r>
 8009b74:	b1c0      	cbz	r0, 8009ba8 <_vfiprintf_r+0x78>
 8009b76:	6e6b      	ldr	r3, [r5, #100]	; 0x64
 8009b78:	07dc      	lsls	r4, r3, #31
 8009b7a:	d50e      	bpl.n	8009b9a <_vfiprintf_r+0x6a>
 8009b7c:	f04f 30ff 	mov.w	r0, #4294967295
 8009b80:	b01d      	add	sp, #116	; 0x74
 8009b82:	e8bd 8ff0 	ldmia.w	sp!, {r4, r5, r6, r7, r8, r9, sl, fp, pc}
 8009b86:	4b7b      	ldr	r3, [pc, #492]	; (8009d74 <_vfiprintf_r+0x244>)
 8009b88:	429d      	cmp	r5, r3
 8009b8a:	d101      	bne.n	8009b90 <_vfiprintf_r+0x60>
 8009b8c:	68b5      	ldr	r5, [r6, #8]
 8009b8e:	e7df      	b.n	8009b50 <_vfiprintf_r+0x20>
 8009b90:	4b79      	ldr	r3, [pc, #484]	; (8009d78 <_vfiprintf_r+0x248>)
 8009b92:	429d      	cmp	r5, r3
 8009b94:	bf08      	it	eq
 8009b96:	68f5      	ldreq	r5, [r6, #12]
 8009b98:	e7da      	b.n	8009b50 <_vfiprintf_r+0x20>
 8009b9a:	89ab      	ldrh	r3, [r5, #12]
 8009b9c:	0598      	lsls	r0, r3, #22
 8009b9e:	d4ed      	bmi.n	8009b7c <_vfiprintf_r+0x4c>
 8009ba0:	6da8      	ldr	r0, [r5, #88]	; 0x58
 8009ba2:	f7ff f83d 	bl	8008c20 <__retarget_lock_release_recursive>
 8009ba6:	e7e9      	b.n	8009b7c <_vfiprintf_r+0x4c>
 8009ba8:	2300      	movs	r3, #0
 8009baa:	9309      	str	r3, [sp, #36]	; 0x24
 8009bac:	2320      	movs	r3, #32
 8009bae:	f88d 3029 	strb.w	r3, [sp, #41]	; 0x29
 8009bb2:	f8cd 800c 	str.w	r8, [sp, #12]
 8009bb6:	2330      	movs	r3, #48	; 0x30
 8009bb8:	f8df 81c0 	ldr.w	r8, [pc, #448]	; 8009d7c <_vfiprintf_r+0x24c>
 8009bbc:	f88d 302a 	strb.w	r3, [sp, #42]	; 0x2a
 8009bc0:	f04f 0901 	mov.w	r9, #1
 8009bc4:	4623      	mov	r3, r4
 8009bc6:	469a      	mov	sl, r3
 8009bc8:	f813 2b01 	ldrb.w	r2, [r3], #1
 8009bcc:	b10a      	cbz	r2, 8009bd2 <_vfiprintf_r+0xa2>
 8009bce:	2a25      	cmp	r2, #37	; 0x25
 8009bd0:	d1f9      	bne.n	8009bc6 <_vfiprintf_r+0x96>
 8009bd2:	ebba 0b04 	subs.w	fp, sl, r4
 8009bd6:	d00b      	beq.n	8009bf0 <_vfiprintf_r+0xc0>
 8009bd8:	465b      	mov	r3, fp
 8009bda:	4622      	mov	r2, r4
 8009bdc:	4629      	mov	r1, r5
 8009bde:	4630      	mov	r0, r6
 8009be0:	f7ff ff93 	bl	8009b0a <__sfputs_r>
 8009be4:	3001      	adds	r0, #1
 8009be6:	f000 80aa 	beq.w	8009d3e <_vfiprintf_r+0x20e>
 8009bea:	9a09      	ldr	r2, [sp, #36]	; 0x24
 8009bec:	445a      	add	r2, fp
 8009bee:	9209      	str	r2, [sp, #36]	; 0x24
 8009bf0:	f89a 3000 	ldrb.w	r3, [sl]
 8009bf4:	2b00      	cmp	r3, #0
 8009bf6:	f000 80a2 	beq.w	8009d3e <_vfiprintf_r+0x20e>
 8009bfa:	2300      	movs	r3, #0
 8009bfc:	f04f 32ff 	mov.w	r2, #4294967295
 8009c00:	e9cd 2305 	strd	r2, r3, [sp, #20]
 8009c04:	f10a 0a01 	add.w	sl, sl, #1
 8009c08:	9304      	str	r3, [sp, #16]
 8009c0a:	9307      	str	r3, [sp, #28]
 8009c0c:	f88d 3053 	strb.w	r3, [sp, #83]	; 0x53
 8009c10:	931a      	str	r3, [sp, #104]	; 0x68
 8009c12:	4654      	mov	r4, sl
 8009c14:	2205      	movs	r2, #5
 8009c16:	f814 1b01 	ldrb.w	r1, [r4], #1
 8009c1a:	4858      	ldr	r0, [pc, #352]	; (8009d7c <_vfiprintf_r+0x24c>)
 8009c1c:	f7f6 fae0 	bl	80001e0 <memchr>
 8009c20:	9a04      	ldr	r2, [sp, #16]
 8009c22:	b9d8      	cbnz	r0, 8009c5c <_vfiprintf_r+0x12c>
 8009c24:	06d1      	lsls	r1, r2, #27
 8009c26:	bf44      	itt	mi
 8009c28:	2320      	movmi	r3, #32
 8009c2a:	f88d 3053 	strbmi.w	r3, [sp, #83]	; 0x53
 8009c2e:	0713      	lsls	r3, r2, #28
 8009c30:	bf44      	itt	mi
 8009c32:	232b      	movmi	r3, #43	; 0x2b
 8009c34:	f88d 3053 	strbmi.w	r3, [sp, #83]	; 0x53
 8009c38:	f89a 3000 	ldrb.w	r3, [sl]
 8009c3c:	2b2a      	cmp	r3, #42	; 0x2a
 8009c3e:	d015      	beq.n	8009c6c <_vfiprintf_r+0x13c>
 8009c40:	9a07      	ldr	r2, [sp, #28]
 8009c42:	4654      	mov	r4, sl
 8009c44:	2000      	movs	r0, #0
 8009c46:	f04f 0c0a 	mov.w	ip, #10
 8009c4a:	4621      	mov	r1, r4
 8009c4c:	f811 3b01 	ldrb.w	r3, [r1], #1
 8009c50:	3b30      	subs	r3, #48	; 0x30
 8009c52:	2b09      	cmp	r3, #9
 8009c54:	d94e      	bls.n	8009cf4 <_vfiprintf_r+0x1c4>
 8009c56:	b1b0      	cbz	r0, 8009c86 <_vfiprintf_r+0x156>
 8009c58:	9207      	str	r2, [sp, #28]
 8009c5a:	e014      	b.n	8009c86 <_vfiprintf_r+0x156>
 8009c5c:	eba0 0308 	sub.w	r3, r0, r8
 8009c60:	fa09 f303 	lsl.w	r3, r9, r3
 8009c64:	4313      	orrs	r3, r2
 8009c66:	9304      	str	r3, [sp, #16]
 8009c68:	46a2      	mov	sl, r4
 8009c6a:	e7d2      	b.n	8009c12 <_vfiprintf_r+0xe2>
 8009c6c:	9b03      	ldr	r3, [sp, #12]
 8009c6e:	1d19      	adds	r1, r3, #4
 8009c70:	681b      	ldr	r3, [r3, #0]
 8009c72:	9103      	str	r1, [sp, #12]
 8009c74:	2b00      	cmp	r3, #0
 8009c76:	bfbb      	ittet	lt
 8009c78:	425b      	neglt	r3, r3
 8009c7a:	f042 0202 	orrlt.w	r2, r2, #2
 8009c7e:	9307      	strge	r3, [sp, #28]
 8009c80:	9307      	strlt	r3, [sp, #28]
 8009c82:	bfb8      	it	lt
 8009c84:	9204      	strlt	r2, [sp, #16]
 8009c86:	7823      	ldrb	r3, [r4, #0]
 8009c88:	2b2e      	cmp	r3, #46	; 0x2e
 8009c8a:	d10c      	bne.n	8009ca6 <_vfiprintf_r+0x176>
 8009c8c:	7863      	ldrb	r3, [r4, #1]
 8009c8e:	2b2a      	cmp	r3, #42	; 0x2a
 8009c90:	d135      	bne.n	8009cfe <_vfiprintf_r+0x1ce>
 8009c92:	9b03      	ldr	r3, [sp, #12]
 8009c94:	1d1a      	adds	r2, r3, #4
 8009c96:	681b      	ldr	r3, [r3, #0]
 8009c98:	9203      	str	r2, [sp, #12]
 8009c9a:	2b00      	cmp	r3, #0
 8009c9c:	bfb8      	it	lt
 8009c9e:	f04f 33ff 	movlt.w	r3, #4294967295
 8009ca2:	3402      	adds	r4, #2
 8009ca4:	9305      	str	r3, [sp, #20]
 8009ca6:	f8df a0e4 	ldr.w	sl, [pc, #228]	; 8009d8c <_vfiprintf_r+0x25c>
 8009caa:	7821      	ldrb	r1, [r4, #0]
 8009cac:	2203      	movs	r2, #3
 8009cae:	4650      	mov	r0, sl
 8009cb0:	f7f6 fa96 	bl	80001e0 <memchr>
 8009cb4:	b140      	cbz	r0, 8009cc8 <_vfiprintf_r+0x198>
 8009cb6:	2340      	movs	r3, #64	; 0x40
 8009cb8:	eba0 000a 	sub.w	r0, r0, sl
 8009cbc:	fa03 f000 	lsl.w	r0, r3, r0
 8009cc0:	9b04      	ldr	r3, [sp, #16]
 8009cc2:	4303      	orrs	r3, r0
 8009cc4:	3401      	adds	r4, #1
 8009cc6:	9304      	str	r3, [sp, #16]
 8009cc8:	f814 1b01 	ldrb.w	r1, [r4], #1
 8009ccc:	482c      	ldr	r0, [pc, #176]	; (8009d80 <_vfiprintf_r+0x250>)
 8009cce:	f88d 1028 	strb.w	r1, [sp, #40]	; 0x28
 8009cd2:	2206      	movs	r2, #6
 8009cd4:	f7f6 fa84 	bl	80001e0 <memchr>
 8009cd8:	2800      	cmp	r0, #0
 8009cda:	d03f      	beq.n	8009d5c <_vfiprintf_r+0x22c>
 8009cdc:	4b29      	ldr	r3, [pc, #164]	; (8009d84 <_vfiprintf_r+0x254>)
 8009cde:	bb1b      	cbnz	r3, 8009d28 <_vfiprintf_r+0x1f8>
 8009ce0:	9b03      	ldr	r3, [sp, #12]
 8009ce2:	3307      	adds	r3, #7
 8009ce4:	f023 0307 	bic.w	r3, r3, #7
 8009ce8:	3308      	adds	r3, #8
 8009cea:	9303      	str	r3, [sp, #12]
 8009cec:	9b09      	ldr	r3, [sp, #36]	; 0x24
 8009cee:	443b      	add	r3, r7
 8009cf0:	9309      	str	r3, [sp, #36]	; 0x24
 8009cf2:	e767      	b.n	8009bc4 <_vfiprintf_r+0x94>
 8009cf4:	fb0c 3202 	mla	r2, ip, r2, r3
 8009cf8:	460c      	mov	r4, r1
 8009cfa:	2001      	movs	r0, #1
 8009cfc:	e7a5      	b.n	8009c4a <_vfiprintf_r+0x11a>
 8009cfe:	2300      	movs	r3, #0
 8009d00:	3401      	adds	r4, #1
 8009d02:	9305      	str	r3, [sp, #20]
 8009d04:	4619      	mov	r1, r3
 8009d06:	f04f 0c0a 	mov.w	ip, #10
 8009d0a:	4620      	mov	r0, r4
 8009d0c:	f810 2b01 	ldrb.w	r2, [r0], #1
 8009d10:	3a30      	subs	r2, #48	; 0x30
 8009d12:	2a09      	cmp	r2, #9
 8009d14:	d903      	bls.n	8009d1e <_vfiprintf_r+0x1ee>
 8009d16:	2b00      	cmp	r3, #0
 8009d18:	d0c5      	beq.n	8009ca6 <_vfiprintf_r+0x176>
 8009d1a:	9105      	str	r1, [sp, #20]
 8009d1c:	e7c3      	b.n	8009ca6 <_vfiprintf_r+0x176>
 8009d1e:	fb0c 2101 	mla	r1, ip, r1, r2
 8009d22:	4604      	mov	r4, r0
 8009d24:	2301      	movs	r3, #1
 8009d26:	e7f0      	b.n	8009d0a <_vfiprintf_r+0x1da>
 8009d28:	ab03      	add	r3, sp, #12
 8009d2a:	9300      	str	r3, [sp, #0]
 8009d2c:	462a      	mov	r2, r5
 8009d2e:	4b16      	ldr	r3, [pc, #88]	; (8009d88 <_vfiprintf_r+0x258>)
 8009d30:	a904      	add	r1, sp, #16
 8009d32:	4630      	mov	r0, r6
 8009d34:	f7fb fdce 	bl	80058d4 <_printf_float>
 8009d38:	4607      	mov	r7, r0
 8009d3a:	1c78      	adds	r0, r7, #1
 8009d3c:	d1d6      	bne.n	8009cec <_vfiprintf_r+0x1bc>
 8009d3e:	6e6b      	ldr	r3, [r5, #100]	; 0x64
 8009d40:	07d9      	lsls	r1, r3, #31
 8009d42:	d405      	bmi.n	8009d50 <_vfiprintf_r+0x220>
 8009d44:	89ab      	ldrh	r3, [r5, #12]
 8009d46:	059a      	lsls	r2, r3, #22
 8009d48:	d402      	bmi.n	8009d50 <_vfiprintf_r+0x220>
 8009d4a:	6da8      	ldr	r0, [r5, #88]	; 0x58
 8009d4c:	f7fe ff68 	bl	8008c20 <__retarget_lock_release_recursive>
 8009d50:	89ab      	ldrh	r3, [r5, #12]
 8009d52:	065b      	lsls	r3, r3, #25
 8009d54:	f53f af12 	bmi.w	8009b7c <_vfiprintf_r+0x4c>
 8009d58:	9809      	ldr	r0, [sp, #36]	; 0x24
 8009d5a:	e711      	b.n	8009b80 <_vfiprintf_r+0x50>
 8009d5c:	ab03      	add	r3, sp, #12
 8009d5e:	9300      	str	r3, [sp, #0]
 8009d60:	462a      	mov	r2, r5
 8009d62:	4b09      	ldr	r3, [pc, #36]	; (8009d88 <_vfiprintf_r+0x258>)
 8009d64:	a904      	add	r1, sp, #16
 8009d66:	4630      	mov	r0, r6
 8009d68:	f7fc f858 	bl	8005e1c <_printf_i>
 8009d6c:	e7e4      	b.n	8009d38 <_vfiprintf_r+0x208>
 8009d6e:	bf00      	nop
 8009d70:	0800b390 	.word	0x0800b390
 8009d74:	0800b3b0 	.word	0x0800b3b0
 8009d78:	0800b370 	.word	0x0800b370
 8009d7c:	0800b5ac 	.word	0x0800b5ac
 8009d80:	0800b5b6 	.word	0x0800b5b6
 8009d84:	080058d5 	.word	0x080058d5
 8009d88:	08009b0b 	.word	0x08009b0b
 8009d8c:	0800b5b2 	.word	0x0800b5b2

08009d90 <nan>:
 8009d90:	ed9f 0b01 	vldr	d0, [pc, #4]	; 8009d98 <nan+0x8>
 8009d94:	4770      	bx	lr
 8009d96:	bf00      	nop
 8009d98:	00000000 	.word	0x00000000
 8009d9c:	7ff80000 	.word	0x7ff80000

08009da0 <_sbrk_r>:
 8009da0:	b538      	push	{r3, r4, r5, lr}
 8009da2:	4d06      	ldr	r5, [pc, #24]	; (8009dbc <_sbrk_r+0x1c>)
 8009da4:	2300      	movs	r3, #0
 8009da6:	4604      	mov	r4, r0
 8009da8:	4608      	mov	r0, r1
 8009daa:	602b      	str	r3, [r5, #0]
 8009dac:	f7f8 f962 	bl	8002074 <_sbrk>
 8009db0:	1c43      	adds	r3, r0, #1
 8009db2:	d102      	bne.n	8009dba <_sbrk_r+0x1a>
 8009db4:	682b      	ldr	r3, [r5, #0]
 8009db6:	b103      	cbz	r3, 8009dba <_sbrk_r+0x1a>
 8009db8:	6023      	str	r3, [r4, #0]
 8009dba:	bd38      	pop	{r3, r4, r5, pc}
 8009dbc:	200005b4 	.word	0x200005b4

08009dc0 <__sread>:
 8009dc0:	b510      	push	{r4, lr}
 8009dc2:	460c      	mov	r4, r1
 8009dc4:	f9b1 100e 	ldrsh.w	r1, [r1, #14]
 8009dc8:	f000 f92e 	bl	800a028 <_read_r>
 8009dcc:	2800      	cmp	r0, #0
 8009dce:	bfab      	itete	ge
 8009dd0:	6d63      	ldrge	r3, [r4, #84]	; 0x54
 8009dd2:	89a3      	ldrhlt	r3, [r4, #12]
 8009dd4:	181b      	addge	r3, r3, r0
 8009dd6:	f423 5380 	biclt.w	r3, r3, #4096	; 0x1000
 8009dda:	bfac      	ite	ge
 8009ddc:	6563      	strge	r3, [r4, #84]	; 0x54
 8009dde:	81a3      	strhlt	r3, [r4, #12]
 8009de0:	bd10      	pop	{r4, pc}

08009de2 <__swrite>:
 8009de2:	e92d 41f0 	stmdb	sp!, {r4, r5, r6, r7, r8, lr}
 8009de6:	461f      	mov	r7, r3
 8009de8:	898b      	ldrh	r3, [r1, #12]
 8009dea:	05db      	lsls	r3, r3, #23
 8009dec:	4605      	mov	r5, r0
 8009dee:	460c      	mov	r4, r1
 8009df0:	4616      	mov	r6, r2
 8009df2:	d505      	bpl.n	8009e00 <__swrite+0x1e>
 8009df4:	f9b1 100e 	ldrsh.w	r1, [r1, #14]
 8009df8:	2302      	movs	r3, #2
 8009dfa:	2200      	movs	r2, #0
 8009dfc:	f000 f8b6 	bl	8009f6c <_lseek_r>
 8009e00:	89a3      	ldrh	r3, [r4, #12]
 8009e02:	f9b4 100e 	ldrsh.w	r1, [r4, #14]
 8009e06:	f423 5380 	bic.w	r3, r3, #4096	; 0x1000
 8009e0a:	81a3      	strh	r3, [r4, #12]
 8009e0c:	4632      	mov	r2, r6
 8009e0e:	463b      	mov	r3, r7
 8009e10:	4628      	mov	r0, r5
 8009e12:	e8bd 41f0 	ldmia.w	sp!, {r4, r5, r6, r7, r8, lr}
 8009e16:	f000 b835 	b.w	8009e84 <_write_r>

08009e1a <__sseek>:
 8009e1a:	b510      	push	{r4, lr}
 8009e1c:	460c      	mov	r4, r1
 8009e1e:	f9b1 100e 	ldrsh.w	r1, [r1, #14]
 8009e22:	f000 f8a3 	bl	8009f6c <_lseek_r>
 8009e26:	1c43      	adds	r3, r0, #1
 8009e28:	89a3      	ldrh	r3, [r4, #12]
 8009e2a:	bf15      	itete	ne
 8009e2c:	6560      	strne	r0, [r4, #84]	; 0x54
 8009e2e:	f423 5380 	biceq.w	r3, r3, #4096	; 0x1000
 8009e32:	f443 5380 	orrne.w	r3, r3, #4096	; 0x1000
 8009e36:	81a3      	strheq	r3, [r4, #12]
 8009e38:	bf18      	it	ne
 8009e3a:	81a3      	strhne	r3, [r4, #12]
 8009e3c:	bd10      	pop	{r4, pc}

08009e3e <__sclose>:
 8009e3e:	f9b1 100e 	ldrsh.w	r1, [r1, #14]
 8009e42:	f000 b84f 	b.w	8009ee4 <_close_r>

08009e46 <strncmp>:
 8009e46:	b510      	push	{r4, lr}
 8009e48:	b16a      	cbz	r2, 8009e66 <strncmp+0x20>
 8009e4a:	3901      	subs	r1, #1
 8009e4c:	1884      	adds	r4, r0, r2
 8009e4e:	f810 3b01 	ldrb.w	r3, [r0], #1
 8009e52:	f811 2f01 	ldrb.w	r2, [r1, #1]!
 8009e56:	4293      	cmp	r3, r2
 8009e58:	d103      	bne.n	8009e62 <strncmp+0x1c>
 8009e5a:	42a0      	cmp	r0, r4
 8009e5c:	d001      	beq.n	8009e62 <strncmp+0x1c>
 8009e5e:	2b00      	cmp	r3, #0
 8009e60:	d1f5      	bne.n	8009e4e <strncmp+0x8>
 8009e62:	1a98      	subs	r0, r3, r2
 8009e64:	bd10      	pop	{r4, pc}
 8009e66:	4610      	mov	r0, r2
 8009e68:	e7fc      	b.n	8009e64 <strncmp+0x1e>

08009e6a <__ascii_wctomb>:
 8009e6a:	b149      	cbz	r1, 8009e80 <__ascii_wctomb+0x16>
 8009e6c:	2aff      	cmp	r2, #255	; 0xff
 8009e6e:	bf85      	ittet	hi
 8009e70:	238a      	movhi	r3, #138	; 0x8a
 8009e72:	6003      	strhi	r3, [r0, #0]
 8009e74:	700a      	strbls	r2, [r1, #0]
 8009e76:	f04f 30ff 	movhi.w	r0, #4294967295
 8009e7a:	bf98      	it	ls
 8009e7c:	2001      	movls	r0, #1
 8009e7e:	4770      	bx	lr
 8009e80:	4608      	mov	r0, r1
 8009e82:	4770      	bx	lr

08009e84 <_write_r>:
 8009e84:	b538      	push	{r3, r4, r5, lr}
 8009e86:	4d07      	ldr	r5, [pc, #28]	; (8009ea4 <_write_r+0x20>)
 8009e88:	4604      	mov	r4, r0
 8009e8a:	4608      	mov	r0, r1
 8009e8c:	4611      	mov	r1, r2
 8009e8e:	2200      	movs	r2, #0
 8009e90:	602a      	str	r2, [r5, #0]
 8009e92:	461a      	mov	r2, r3
 8009e94:	f7f7 fcea 	bl	800186c <_write>
 8009e98:	1c43      	adds	r3, r0, #1
 8009e9a:	d102      	bne.n	8009ea2 <_write_r+0x1e>
 8009e9c:	682b      	ldr	r3, [r5, #0]
 8009e9e:	b103      	cbz	r3, 8009ea2 <_write_r+0x1e>
 8009ea0:	6023      	str	r3, [r4, #0]
 8009ea2:	bd38      	pop	{r3, r4, r5, pc}
 8009ea4:	200005b4 	.word	0x200005b4

08009ea8 <__assert_func>:
 8009ea8:	b51f      	push	{r0, r1, r2, r3, r4, lr}
 8009eaa:	4614      	mov	r4, r2
 8009eac:	461a      	mov	r2, r3
 8009eae:	4b09      	ldr	r3, [pc, #36]	; (8009ed4 <__assert_func+0x2c>)
 8009eb0:	681b      	ldr	r3, [r3, #0]
 8009eb2:	4605      	mov	r5, r0
 8009eb4:	68d8      	ldr	r0, [r3, #12]
 8009eb6:	b14c      	cbz	r4, 8009ecc <__assert_func+0x24>
 8009eb8:	4b07      	ldr	r3, [pc, #28]	; (8009ed8 <__assert_func+0x30>)
 8009eba:	9100      	str	r1, [sp, #0]
 8009ebc:	e9cd 3401 	strd	r3, r4, [sp, #4]
 8009ec0:	4906      	ldr	r1, [pc, #24]	; (8009edc <__assert_func+0x34>)
 8009ec2:	462b      	mov	r3, r5
 8009ec4:	f000 f81e 	bl	8009f04 <fiprintf>
 8009ec8:	f000 f8c0 	bl	800a04c <abort>
 8009ecc:	4b04      	ldr	r3, [pc, #16]	; (8009ee0 <__assert_func+0x38>)
 8009ece:	461c      	mov	r4, r3
 8009ed0:	e7f3      	b.n	8009eba <__assert_func+0x12>
 8009ed2:	bf00      	nop
 8009ed4:	20000014 	.word	0x20000014
 8009ed8:	0800b5bd 	.word	0x0800b5bd
 8009edc:	0800b5ca 	.word	0x0800b5ca
 8009ee0:	0800b5f8 	.word	0x0800b5f8

08009ee4 <_close_r>:
 8009ee4:	b538      	push	{r3, r4, r5, lr}
 8009ee6:	4d06      	ldr	r5, [pc, #24]	; (8009f00 <_close_r+0x1c>)
 8009ee8:	2300      	movs	r3, #0
 8009eea:	4604      	mov	r4, r0
 8009eec:	4608      	mov	r0, r1
 8009eee:	602b      	str	r3, [r5, #0]
 8009ef0:	f7f8 f88b 	bl	800200a <_close>
 8009ef4:	1c43      	adds	r3, r0, #1
 8009ef6:	d102      	bne.n	8009efe <_close_r+0x1a>
 8009ef8:	682b      	ldr	r3, [r5, #0]
 8009efa:	b103      	cbz	r3, 8009efe <_close_r+0x1a>
 8009efc:	6023      	str	r3, [r4, #0]
 8009efe:	bd38      	pop	{r3, r4, r5, pc}
 8009f00:	200005b4 	.word	0x200005b4

08009f04 <fiprintf>:
 8009f04:	b40e      	push	{r1, r2, r3}
 8009f06:	b503      	push	{r0, r1, lr}
 8009f08:	4601      	mov	r1, r0
 8009f0a:	ab03      	add	r3, sp, #12
 8009f0c:	4805      	ldr	r0, [pc, #20]	; (8009f24 <fiprintf+0x20>)
 8009f0e:	f853 2b04 	ldr.w	r2, [r3], #4
 8009f12:	6800      	ldr	r0, [r0, #0]
 8009f14:	9301      	str	r3, [sp, #4]
 8009f16:	f7ff fe0b 	bl	8009b30 <_vfiprintf_r>
 8009f1a:	b002      	add	sp, #8
 8009f1c:	f85d eb04 	ldr.w	lr, [sp], #4
 8009f20:	b003      	add	sp, #12
 8009f22:	4770      	bx	lr
 8009f24:	20000014 	.word	0x20000014

08009f28 <_fstat_r>:
 8009f28:	b538      	push	{r3, r4, r5, lr}
 8009f2a:	4d07      	ldr	r5, [pc, #28]	; (8009f48 <_fstat_r+0x20>)
 8009f2c:	2300      	movs	r3, #0
 8009f2e:	4604      	mov	r4, r0
 8009f30:	4608      	mov	r0, r1
 8009f32:	4611      	mov	r1, r2
 8009f34:	602b      	str	r3, [r5, #0]
 8009f36:	f7f8 f874 	bl	8002022 <_fstat>
 8009f3a:	1c43      	adds	r3, r0, #1
 8009f3c:	d102      	bne.n	8009f44 <_fstat_r+0x1c>
 8009f3e:	682b      	ldr	r3, [r5, #0]
 8009f40:	b103      	cbz	r3, 8009f44 <_fstat_r+0x1c>
 8009f42:	6023      	str	r3, [r4, #0]
 8009f44:	bd38      	pop	{r3, r4, r5, pc}
 8009f46:	bf00      	nop
 8009f48:	200005b4 	.word	0x200005b4

08009f4c <_isatty_r>:
 8009f4c:	b538      	push	{r3, r4, r5, lr}
 8009f4e:	4d06      	ldr	r5, [pc, #24]	; (8009f68 <_isatty_r+0x1c>)
 8009f50:	2300      	movs	r3, #0
 8009f52:	4604      	mov	r4, r0
 8009f54:	4608      	mov	r0, r1
 8009f56:	602b      	str	r3, [r5, #0]
 8009f58:	f7f8 f873 	bl	8002042 <_isatty>
 8009f5c:	1c43      	adds	r3, r0, #1
 8009f5e:	d102      	bne.n	8009f66 <_isatty_r+0x1a>
 8009f60:	682b      	ldr	r3, [r5, #0]
 8009f62:	b103      	cbz	r3, 8009f66 <_isatty_r+0x1a>
 8009f64:	6023      	str	r3, [r4, #0]
 8009f66:	bd38      	pop	{r3, r4, r5, pc}
 8009f68:	200005b4 	.word	0x200005b4

08009f6c <_lseek_r>:
 8009f6c:	b538      	push	{r3, r4, r5, lr}
 8009f6e:	4d07      	ldr	r5, [pc, #28]	; (8009f8c <_lseek_r+0x20>)
 8009f70:	4604      	mov	r4, r0
 8009f72:	4608      	mov	r0, r1
 8009f74:	4611      	mov	r1, r2
 8009f76:	2200      	movs	r2, #0
 8009f78:	602a      	str	r2, [r5, #0]
 8009f7a:	461a      	mov	r2, r3
 8009f7c:	f7f8 f86c 	bl	8002058 <_lseek>
 8009f80:	1c43      	adds	r3, r0, #1
 8009f82:	d102      	bne.n	8009f8a <_lseek_r+0x1e>
 8009f84:	682b      	ldr	r3, [r5, #0]
 8009f86:	b103      	cbz	r3, 8009f8a <_lseek_r+0x1e>
 8009f88:	6023      	str	r3, [r4, #0]
 8009f8a:	bd38      	pop	{r3, r4, r5, pc}
 8009f8c:	200005b4 	.word	0x200005b4

08009f90 <memmove>:
 8009f90:	4288      	cmp	r0, r1
 8009f92:	b510      	push	{r4, lr}
 8009f94:	eb01 0402 	add.w	r4, r1, r2
 8009f98:	d902      	bls.n	8009fa0 <memmove+0x10>
 8009f9a:	4284      	cmp	r4, r0
 8009f9c:	4623      	mov	r3, r4
 8009f9e:	d807      	bhi.n	8009fb0 <memmove+0x20>
 8009fa0:	1e43      	subs	r3, r0, #1
 8009fa2:	42a1      	cmp	r1, r4
 8009fa4:	d008      	beq.n	8009fb8 <memmove+0x28>
 8009fa6:	f811 2b01 	ldrb.w	r2, [r1], #1
 8009faa:	f803 2f01 	strb.w	r2, [r3, #1]!
 8009fae:	e7f8      	b.n	8009fa2 <memmove+0x12>
 8009fb0:	4402      	add	r2, r0
 8009fb2:	4601      	mov	r1, r0
 8009fb4:	428a      	cmp	r2, r1
 8009fb6:	d100      	bne.n	8009fba <memmove+0x2a>
 8009fb8:	bd10      	pop	{r4, pc}
 8009fba:	f813 4d01 	ldrb.w	r4, [r3, #-1]!
 8009fbe:	f802 4d01 	strb.w	r4, [r2, #-1]!
 8009fc2:	e7f7      	b.n	8009fb4 <memmove+0x24>

08009fc4 <__malloc_lock>:
 8009fc4:	4801      	ldr	r0, [pc, #4]	; (8009fcc <__malloc_lock+0x8>)
 8009fc6:	f7fe be2a 	b.w	8008c1e <__retarget_lock_acquire_recursive>
 8009fca:	bf00      	nop
 8009fcc:	200005ac 	.word	0x200005ac

08009fd0 <__malloc_unlock>:
 8009fd0:	4801      	ldr	r0, [pc, #4]	; (8009fd8 <__malloc_unlock+0x8>)
 8009fd2:	f7fe be25 	b.w	8008c20 <__retarget_lock_release_recursive>
 8009fd6:	bf00      	nop
 8009fd8:	200005ac 	.word	0x200005ac

08009fdc <_realloc_r>:
 8009fdc:	b5f8      	push	{r3, r4, r5, r6, r7, lr}
 8009fde:	4607      	mov	r7, r0
 8009fe0:	4614      	mov	r4, r2
 8009fe2:	460e      	mov	r6, r1
 8009fe4:	b921      	cbnz	r1, 8009ff0 <_realloc_r+0x14>
 8009fe6:	e8bd 40f8 	ldmia.w	sp!, {r3, r4, r5, r6, r7, lr}
 8009fea:	4611      	mov	r1, r2
 8009fec:	f7ff bbc0 	b.w	8009770 <_malloc_r>
 8009ff0:	b922      	cbnz	r2, 8009ffc <_realloc_r+0x20>
 8009ff2:	f7ff fb6d 	bl	80096d0 <_free_r>
 8009ff6:	4625      	mov	r5, r4
 8009ff8:	4628      	mov	r0, r5
 8009ffa:	bdf8      	pop	{r3, r4, r5, r6, r7, pc}
 8009ffc:	f000 f82d 	bl	800a05a <_malloc_usable_size_r>
 800a000:	42a0      	cmp	r0, r4
 800a002:	d20f      	bcs.n	800a024 <_realloc_r+0x48>
 800a004:	4621      	mov	r1, r4
 800a006:	4638      	mov	r0, r7
 800a008:	f7ff fbb2 	bl	8009770 <_malloc_r>
 800a00c:	4605      	mov	r5, r0
 800a00e:	2800      	cmp	r0, #0
 800a010:	d0f2      	beq.n	8009ff8 <_realloc_r+0x1c>
 800a012:	4631      	mov	r1, r6
 800a014:	4622      	mov	r2, r4
 800a016:	f7fe fe83 	bl	8008d20 <memcpy>
 800a01a:	4631      	mov	r1, r6
 800a01c:	4638      	mov	r0, r7
 800a01e:	f7ff fb57 	bl	80096d0 <_free_r>
 800a022:	e7e9      	b.n	8009ff8 <_realloc_r+0x1c>
 800a024:	4635      	mov	r5, r6
 800a026:	e7e7      	b.n	8009ff8 <_realloc_r+0x1c>

0800a028 <_read_r>:
 800a028:	b538      	push	{r3, r4, r5, lr}
 800a02a:	4d07      	ldr	r5, [pc, #28]	; (800a048 <_read_r+0x20>)
 800a02c:	4604      	mov	r4, r0
 800a02e:	4608      	mov	r0, r1
 800a030:	4611      	mov	r1, r2
 800a032:	2200      	movs	r2, #0
 800a034:	602a      	str	r2, [r5, #0]
 800a036:	461a      	mov	r2, r3
 800a038:	f7f7 ffca 	bl	8001fd0 <_read>
 800a03c:	1c43      	adds	r3, r0, #1
 800a03e:	d102      	bne.n	800a046 <_read_r+0x1e>
 800a040:	682b      	ldr	r3, [r5, #0]
 800a042:	b103      	cbz	r3, 800a046 <_read_r+0x1e>
 800a044:	6023      	str	r3, [r4, #0]
 800a046:	bd38      	pop	{r3, r4, r5, pc}
 800a048:	200005b4 	.word	0x200005b4

0800a04c <abort>:
 800a04c:	b508      	push	{r3, lr}
 800a04e:	2006      	movs	r0, #6
 800a050:	f000 f834 	bl	800a0bc <raise>
 800a054:	2001      	movs	r0, #1
 800a056:	f7f7 ffb1 	bl	8001fbc <_exit>

0800a05a <_malloc_usable_size_r>:
 800a05a:	f851 3c04 	ldr.w	r3, [r1, #-4]
 800a05e:	1f18      	subs	r0, r3, #4
 800a060:	2b00      	cmp	r3, #0
 800a062:	bfbc      	itt	lt
 800a064:	580b      	ldrlt	r3, [r1, r0]
 800a066:	18c0      	addlt	r0, r0, r3
 800a068:	4770      	bx	lr

0800a06a <_raise_r>:
 800a06a:	291f      	cmp	r1, #31
 800a06c:	b538      	push	{r3, r4, r5, lr}
 800a06e:	4604      	mov	r4, r0
 800a070:	460d      	mov	r5, r1
 800a072:	d904      	bls.n	800a07e <_raise_r+0x14>
 800a074:	2316      	movs	r3, #22
 800a076:	6003      	str	r3, [r0, #0]
 800a078:	f04f 30ff 	mov.w	r0, #4294967295
 800a07c:	bd38      	pop	{r3, r4, r5, pc}
 800a07e:	6c42      	ldr	r2, [r0, #68]	; 0x44
 800a080:	b112      	cbz	r2, 800a088 <_raise_r+0x1e>
 800a082:	f852 3021 	ldr.w	r3, [r2, r1, lsl #2]
 800a086:	b94b      	cbnz	r3, 800a09c <_raise_r+0x32>
 800a088:	4620      	mov	r0, r4
 800a08a:	f000 f831 	bl	800a0f0 <_getpid_r>
 800a08e:	462a      	mov	r2, r5
 800a090:	4601      	mov	r1, r0
 800a092:	4620      	mov	r0, r4
 800a094:	e8bd 4038 	ldmia.w	sp!, {r3, r4, r5, lr}
 800a098:	f000 b818 	b.w	800a0cc <_kill_r>
 800a09c:	2b01      	cmp	r3, #1
 800a09e:	d00a      	beq.n	800a0b6 <_raise_r+0x4c>
 800a0a0:	1c59      	adds	r1, r3, #1
 800a0a2:	d103      	bne.n	800a0ac <_raise_r+0x42>
 800a0a4:	2316      	movs	r3, #22
 800a0a6:	6003      	str	r3, [r0, #0]
 800a0a8:	2001      	movs	r0, #1
 800a0aa:	e7e7      	b.n	800a07c <_raise_r+0x12>
 800a0ac:	2400      	movs	r4, #0
 800a0ae:	f842 4025 	str.w	r4, [r2, r5, lsl #2]
 800a0b2:	4628      	mov	r0, r5
 800a0b4:	4798      	blx	r3
 800a0b6:	2000      	movs	r0, #0
 800a0b8:	e7e0      	b.n	800a07c <_raise_r+0x12>
	...

0800a0bc <raise>:
 800a0bc:	4b02      	ldr	r3, [pc, #8]	; (800a0c8 <raise+0xc>)
 800a0be:	4601      	mov	r1, r0
 800a0c0:	6818      	ldr	r0, [r3, #0]
 800a0c2:	f7ff bfd2 	b.w	800a06a <_raise_r>
 800a0c6:	bf00      	nop
 800a0c8:	20000014 	.word	0x20000014

0800a0cc <_kill_r>:
 800a0cc:	b538      	push	{r3, r4, r5, lr}
 800a0ce:	4d07      	ldr	r5, [pc, #28]	; (800a0ec <_kill_r+0x20>)
 800a0d0:	2300      	movs	r3, #0
 800a0d2:	4604      	mov	r4, r0
 800a0d4:	4608      	mov	r0, r1
 800a0d6:	4611      	mov	r1, r2
 800a0d8:	602b      	str	r3, [r5, #0]
 800a0da:	f7f7 ff5f 	bl	8001f9c <_kill>
 800a0de:	1c43      	adds	r3, r0, #1
 800a0e0:	d102      	bne.n	800a0e8 <_kill_r+0x1c>
 800a0e2:	682b      	ldr	r3, [r5, #0]
 800a0e4:	b103      	cbz	r3, 800a0e8 <_kill_r+0x1c>
 800a0e6:	6023      	str	r3, [r4, #0]
 800a0e8:	bd38      	pop	{r3, r4, r5, pc}
 800a0ea:	bf00      	nop
 800a0ec:	200005b4 	.word	0x200005b4

0800a0f0 <_getpid_r>:
 800a0f0:	f7f7 bf4c 	b.w	8001f8c <_getpid>

0800a0f4 <pow>:
 800a0f4:	e92d 43f8 	stmdb	sp!, {r3, r4, r5, r6, r7, r8, r9, lr}
 800a0f8:	ec59 8b10 	vmov	r8, r9, d0
 800a0fc:	ec57 6b11 	vmov	r6, r7, d1
 800a100:	f000 f8a6 	bl	800a250 <__ieee754_pow>
 800a104:	4b4e      	ldr	r3, [pc, #312]	; (800a240 <pow+0x14c>)
 800a106:	f993 3000 	ldrsb.w	r3, [r3]
 800a10a:	3301      	adds	r3, #1
 800a10c:	ec55 4b10 	vmov	r4, r5, d0
 800a110:	d015      	beq.n	800a13e <pow+0x4a>
 800a112:	4632      	mov	r2, r6
 800a114:	463b      	mov	r3, r7
 800a116:	4630      	mov	r0, r6
 800a118:	4639      	mov	r1, r7
 800a11a:	f7f6 fd07 	bl	8000b2c <__aeabi_dcmpun>
 800a11e:	b970      	cbnz	r0, 800a13e <pow+0x4a>
 800a120:	4642      	mov	r2, r8
 800a122:	464b      	mov	r3, r9
 800a124:	4640      	mov	r0, r8
 800a126:	4649      	mov	r1, r9
 800a128:	f7f6 fd00 	bl	8000b2c <__aeabi_dcmpun>
 800a12c:	2200      	movs	r2, #0
 800a12e:	2300      	movs	r3, #0
 800a130:	b148      	cbz	r0, 800a146 <pow+0x52>
 800a132:	4630      	mov	r0, r6
 800a134:	4639      	mov	r1, r7
 800a136:	f7f6 fcc7 	bl	8000ac8 <__aeabi_dcmpeq>
 800a13a:	2800      	cmp	r0, #0
 800a13c:	d17d      	bne.n	800a23a <pow+0x146>
 800a13e:	ec45 4b10 	vmov	d0, r4, r5
 800a142:	e8bd 83f8 	ldmia.w	sp!, {r3, r4, r5, r6, r7, r8, r9, pc}
 800a146:	4640      	mov	r0, r8
 800a148:	4649      	mov	r1, r9
 800a14a:	f7f6 fcbd 	bl	8000ac8 <__aeabi_dcmpeq>
 800a14e:	b1e0      	cbz	r0, 800a18a <pow+0x96>
 800a150:	2200      	movs	r2, #0
 800a152:	2300      	movs	r3, #0
 800a154:	4630      	mov	r0, r6
 800a156:	4639      	mov	r1, r7
 800a158:	f7f6 fcb6 	bl	8000ac8 <__aeabi_dcmpeq>
 800a15c:	2800      	cmp	r0, #0
 800a15e:	d16c      	bne.n	800a23a <pow+0x146>
 800a160:	ec47 6b10 	vmov	d0, r6, r7
 800a164:	f000 fe53 	bl	800ae0e <finite>
 800a168:	2800      	cmp	r0, #0
 800a16a:	d0e8      	beq.n	800a13e <pow+0x4a>
 800a16c:	2200      	movs	r2, #0
 800a16e:	2300      	movs	r3, #0
 800a170:	4630      	mov	r0, r6
 800a172:	4639      	mov	r1, r7
 800a174:	f7f6 fcb2 	bl	8000adc <__aeabi_dcmplt>
 800a178:	2800      	cmp	r0, #0
 800a17a:	d0e0      	beq.n	800a13e <pow+0x4a>
 800a17c:	f7fb fad8 	bl	8005730 <__errno>
 800a180:	2321      	movs	r3, #33	; 0x21
 800a182:	6003      	str	r3, [r0, #0]
 800a184:	2400      	movs	r4, #0
 800a186:	4d2f      	ldr	r5, [pc, #188]	; (800a244 <pow+0x150>)
 800a188:	e7d9      	b.n	800a13e <pow+0x4a>
 800a18a:	ec45 4b10 	vmov	d0, r4, r5
 800a18e:	f000 fe3e 	bl	800ae0e <finite>
 800a192:	bbb8      	cbnz	r0, 800a204 <pow+0x110>
 800a194:	ec49 8b10 	vmov	d0, r8, r9
 800a198:	f000 fe39 	bl	800ae0e <finite>
 800a19c:	b390      	cbz	r0, 800a204 <pow+0x110>
 800a19e:	ec47 6b10 	vmov	d0, r6, r7
 800a1a2:	f000 fe34 	bl	800ae0e <finite>
 800a1a6:	b368      	cbz	r0, 800a204 <pow+0x110>
 800a1a8:	4622      	mov	r2, r4
 800a1aa:	462b      	mov	r3, r5
 800a1ac:	4620      	mov	r0, r4
 800a1ae:	4629      	mov	r1, r5
 800a1b0:	f7f6 fcbc 	bl	8000b2c <__aeabi_dcmpun>
 800a1b4:	b160      	cbz	r0, 800a1d0 <pow+0xdc>
 800a1b6:	f7fb fabb 	bl	8005730 <__errno>
 800a1ba:	2321      	movs	r3, #33	; 0x21
 800a1bc:	6003      	str	r3, [r0, #0]
 800a1be:	2200      	movs	r2, #0
 800a1c0:	2300      	movs	r3, #0
 800a1c2:	4610      	mov	r0, r2
 800a1c4:	4619      	mov	r1, r3
 800a1c6:	f7f6 fb41 	bl	800084c <__aeabi_ddiv>
 800a1ca:	4604      	mov	r4, r0
 800a1cc:	460d      	mov	r5, r1
 800a1ce:	e7b6      	b.n	800a13e <pow+0x4a>
 800a1d0:	f7fb faae 	bl	8005730 <__errno>
 800a1d4:	2322      	movs	r3, #34	; 0x22
 800a1d6:	6003      	str	r3, [r0, #0]
 800a1d8:	2200      	movs	r2, #0
 800a1da:	2300      	movs	r3, #0
 800a1dc:	4640      	mov	r0, r8
 800a1de:	4649      	mov	r1, r9
 800a1e0:	f7f6 fc7c 	bl	8000adc <__aeabi_dcmplt>
 800a1e4:	2400      	movs	r4, #0
 800a1e6:	b158      	cbz	r0, 800a200 <pow+0x10c>
 800a1e8:	ec47 6b10 	vmov	d0, r6, r7
 800a1ec:	f000 fe1a 	bl	800ae24 <rint>
 800a1f0:	4632      	mov	r2, r6
 800a1f2:	ec51 0b10 	vmov	r0, r1, d0
 800a1f6:	463b      	mov	r3, r7
 800a1f8:	f7f6 fc66 	bl	8000ac8 <__aeabi_dcmpeq>
 800a1fc:	2800      	cmp	r0, #0
 800a1fe:	d0c2      	beq.n	800a186 <pow+0x92>
 800a200:	4d11      	ldr	r5, [pc, #68]	; (800a248 <pow+0x154>)
 800a202:	e79c      	b.n	800a13e <pow+0x4a>
 800a204:	2200      	movs	r2, #0
 800a206:	2300      	movs	r3, #0
 800a208:	4620      	mov	r0, r4
 800a20a:	4629      	mov	r1, r5
 800a20c:	f7f6 fc5c 	bl	8000ac8 <__aeabi_dcmpeq>
 800a210:	2800      	cmp	r0, #0
 800a212:	d094      	beq.n	800a13e <pow+0x4a>
 800a214:	ec49 8b10 	vmov	d0, r8, r9
 800a218:	f000 fdf9 	bl	800ae0e <finite>
 800a21c:	2800      	cmp	r0, #0
 800a21e:	d08e      	beq.n	800a13e <pow+0x4a>
 800a220:	ec47 6b10 	vmov	d0, r6, r7
 800a224:	f000 fdf3 	bl	800ae0e <finite>
 800a228:	2800      	cmp	r0, #0
 800a22a:	d088      	beq.n	800a13e <pow+0x4a>
 800a22c:	f7fb fa80 	bl	8005730 <__errno>
 800a230:	2322      	movs	r3, #34	; 0x22
 800a232:	6003      	str	r3, [r0, #0]
 800a234:	2400      	movs	r4, #0
 800a236:	2500      	movs	r5, #0
 800a238:	e781      	b.n	800a13e <pow+0x4a>
 800a23a:	4d04      	ldr	r5, [pc, #16]	; (800a24c <pow+0x158>)
 800a23c:	2400      	movs	r4, #0
 800a23e:	e77e      	b.n	800a13e <pow+0x4a>
 800a240:	200001e8 	.word	0x200001e8
 800a244:	fff00000 	.word	0xfff00000
 800a248:	7ff00000 	.word	0x7ff00000
 800a24c:	3ff00000 	.word	0x3ff00000

0800a250 <__ieee754_pow>:
 800a250:	e92d 4ff0 	stmdb	sp!, {r4, r5, r6, r7, r8, r9, sl, fp, lr}
 800a254:	ed2d 8b06 	vpush	{d8-d10}
 800a258:	b08d      	sub	sp, #52	; 0x34
 800a25a:	ed8d 1b02 	vstr	d1, [sp, #8]
 800a25e:	e9dd 0702 	ldrd	r0, r7, [sp, #8]
 800a262:	f027 4600 	bic.w	r6, r7, #2147483648	; 0x80000000
 800a266:	ea56 0100 	orrs.w	r1, r6, r0
 800a26a:	ec53 2b10 	vmov	r2, r3, d0
 800a26e:	f000 84d1 	beq.w	800ac14 <__ieee754_pow+0x9c4>
 800a272:	497f      	ldr	r1, [pc, #508]	; (800a470 <__ieee754_pow+0x220>)
 800a274:	f023 4400 	bic.w	r4, r3, #2147483648	; 0x80000000
 800a278:	428c      	cmp	r4, r1
 800a27a:	ee10 8a10 	vmov	r8, s0
 800a27e:	4699      	mov	r9, r3
 800a280:	dc09      	bgt.n	800a296 <__ieee754_pow+0x46>
 800a282:	d103      	bne.n	800a28c <__ieee754_pow+0x3c>
 800a284:	b97a      	cbnz	r2, 800a2a6 <__ieee754_pow+0x56>
 800a286:	42a6      	cmp	r6, r4
 800a288:	dd02      	ble.n	800a290 <__ieee754_pow+0x40>
 800a28a:	e00c      	b.n	800a2a6 <__ieee754_pow+0x56>
 800a28c:	428e      	cmp	r6, r1
 800a28e:	dc02      	bgt.n	800a296 <__ieee754_pow+0x46>
 800a290:	428e      	cmp	r6, r1
 800a292:	d110      	bne.n	800a2b6 <__ieee754_pow+0x66>
 800a294:	b178      	cbz	r0, 800a2b6 <__ieee754_pow+0x66>
 800a296:	f104 4440 	add.w	r4, r4, #3221225472	; 0xc0000000
 800a29a:	f504 1480 	add.w	r4, r4, #1048576	; 0x100000
 800a29e:	ea54 0308 	orrs.w	r3, r4, r8
 800a2a2:	f000 84b7 	beq.w	800ac14 <__ieee754_pow+0x9c4>
 800a2a6:	4873      	ldr	r0, [pc, #460]	; (800a474 <__ieee754_pow+0x224>)
 800a2a8:	b00d      	add	sp, #52	; 0x34
 800a2aa:	ecbd 8b06 	vpop	{d8-d10}
 800a2ae:	e8bd 4ff0 	ldmia.w	sp!, {r4, r5, r6, r7, r8, r9, sl, fp, lr}
 800a2b2:	f7ff bd6d 	b.w	8009d90 <nan>
 800a2b6:	f1b9 0f00 	cmp.w	r9, #0
 800a2ba:	da36      	bge.n	800a32a <__ieee754_pow+0xda>
 800a2bc:	496e      	ldr	r1, [pc, #440]	; (800a478 <__ieee754_pow+0x228>)
 800a2be:	428e      	cmp	r6, r1
 800a2c0:	dc51      	bgt.n	800a366 <__ieee754_pow+0x116>
 800a2c2:	f1a1 7154 	sub.w	r1, r1, #55574528	; 0x3500000
 800a2c6:	428e      	cmp	r6, r1
 800a2c8:	f340 84af 	ble.w	800ac2a <__ieee754_pow+0x9da>
 800a2cc:	1531      	asrs	r1, r6, #20
 800a2ce:	f2a1 31ff 	subw	r1, r1, #1023	; 0x3ff
 800a2d2:	2914      	cmp	r1, #20
 800a2d4:	dd0f      	ble.n	800a2f6 <__ieee754_pow+0xa6>
 800a2d6:	f1c1 0134 	rsb	r1, r1, #52	; 0x34
 800a2da:	fa20 fc01 	lsr.w	ip, r0, r1
 800a2de:	fa0c f101 	lsl.w	r1, ip, r1
 800a2e2:	4281      	cmp	r1, r0
 800a2e4:	f040 84a1 	bne.w	800ac2a <__ieee754_pow+0x9da>
 800a2e8:	f00c 0c01 	and.w	ip, ip, #1
 800a2ec:	f1cc 0102 	rsb	r1, ip, #2
 800a2f0:	9100      	str	r1, [sp, #0]
 800a2f2:	b180      	cbz	r0, 800a316 <__ieee754_pow+0xc6>
 800a2f4:	e059      	b.n	800a3aa <__ieee754_pow+0x15a>
 800a2f6:	2800      	cmp	r0, #0
 800a2f8:	d155      	bne.n	800a3a6 <__ieee754_pow+0x156>
 800a2fa:	f1c1 0114 	rsb	r1, r1, #20
 800a2fe:	fa46 fc01 	asr.w	ip, r6, r1
 800a302:	fa0c f101 	lsl.w	r1, ip, r1
 800a306:	42b1      	cmp	r1, r6
 800a308:	f040 848c 	bne.w	800ac24 <__ieee754_pow+0x9d4>
 800a30c:	f00c 0c01 	and.w	ip, ip, #1
 800a310:	f1cc 0102 	rsb	r1, ip, #2
 800a314:	9100      	str	r1, [sp, #0]
 800a316:	4959      	ldr	r1, [pc, #356]	; (800a47c <__ieee754_pow+0x22c>)
 800a318:	428e      	cmp	r6, r1
 800a31a:	d12d      	bne.n	800a378 <__ieee754_pow+0x128>
 800a31c:	2f00      	cmp	r7, #0
 800a31e:	da79      	bge.n	800a414 <__ieee754_pow+0x1c4>
 800a320:	4956      	ldr	r1, [pc, #344]	; (800a47c <__ieee754_pow+0x22c>)
 800a322:	2000      	movs	r0, #0
 800a324:	f7f6 fa92 	bl	800084c <__aeabi_ddiv>
 800a328:	e016      	b.n	800a358 <__ieee754_pow+0x108>
 800a32a:	2100      	movs	r1, #0
 800a32c:	9100      	str	r1, [sp, #0]
 800a32e:	2800      	cmp	r0, #0
 800a330:	d13b      	bne.n	800a3aa <__ieee754_pow+0x15a>
 800a332:	494f      	ldr	r1, [pc, #316]	; (800a470 <__ieee754_pow+0x220>)
 800a334:	428e      	cmp	r6, r1
 800a336:	d1ee      	bne.n	800a316 <__ieee754_pow+0xc6>
 800a338:	f104 4340 	add.w	r3, r4, #3221225472	; 0xc0000000
 800a33c:	f503 1380 	add.w	r3, r3, #1048576	; 0x100000
 800a340:	ea53 0308 	orrs.w	r3, r3, r8
 800a344:	f000 8466 	beq.w	800ac14 <__ieee754_pow+0x9c4>
 800a348:	4b4d      	ldr	r3, [pc, #308]	; (800a480 <__ieee754_pow+0x230>)
 800a34a:	429c      	cmp	r4, r3
 800a34c:	dd0d      	ble.n	800a36a <__ieee754_pow+0x11a>
 800a34e:	2f00      	cmp	r7, #0
 800a350:	f280 8464 	bge.w	800ac1c <__ieee754_pow+0x9cc>
 800a354:	2000      	movs	r0, #0
 800a356:	2100      	movs	r1, #0
 800a358:	ec41 0b10 	vmov	d0, r0, r1
 800a35c:	b00d      	add	sp, #52	; 0x34
 800a35e:	ecbd 8b06 	vpop	{d8-d10}
 800a362:	e8bd 8ff0 	ldmia.w	sp!, {r4, r5, r6, r7, r8, r9, sl, fp, pc}
 800a366:	2102      	movs	r1, #2
 800a368:	e7e0      	b.n	800a32c <__ieee754_pow+0xdc>
 800a36a:	2f00      	cmp	r7, #0
 800a36c:	daf2      	bge.n	800a354 <__ieee754_pow+0x104>
 800a36e:	e9dd 0302 	ldrd	r0, r3, [sp, #8]
 800a372:	f103 4100 	add.w	r1, r3, #2147483648	; 0x80000000
 800a376:	e7ef      	b.n	800a358 <__ieee754_pow+0x108>
 800a378:	f1b7 4f80 	cmp.w	r7, #1073741824	; 0x40000000
 800a37c:	d104      	bne.n	800a388 <__ieee754_pow+0x138>
 800a37e:	4610      	mov	r0, r2
 800a380:	4619      	mov	r1, r3
 800a382:	f7f6 f939 	bl	80005f8 <__aeabi_dmul>
 800a386:	e7e7      	b.n	800a358 <__ieee754_pow+0x108>
 800a388:	493e      	ldr	r1, [pc, #248]	; (800a484 <__ieee754_pow+0x234>)
 800a38a:	428f      	cmp	r7, r1
 800a38c:	d10d      	bne.n	800a3aa <__ieee754_pow+0x15a>
 800a38e:	f1b9 0f00 	cmp.w	r9, #0
 800a392:	db0a      	blt.n	800a3aa <__ieee754_pow+0x15a>
 800a394:	ec43 2b10 	vmov	d0, r2, r3
 800a398:	b00d      	add	sp, #52	; 0x34
 800a39a:	ecbd 8b06 	vpop	{d8-d10}
 800a39e:	e8bd 4ff0 	ldmia.w	sp!, {r4, r5, r6, r7, r8, r9, sl, fp, lr}
 800a3a2:	f000 bc77 	b.w	800ac94 <__ieee754_sqrt>
 800a3a6:	2100      	movs	r1, #0
 800a3a8:	9100      	str	r1, [sp, #0]
 800a3aa:	ec43 2b10 	vmov	d0, r2, r3
 800a3ae:	e9cd 2304 	strd	r2, r3, [sp, #16]
 800a3b2:	f000 fd23 	bl	800adfc <fabs>
 800a3b6:	e9dd 2304 	ldrd	r2, r3, [sp, #16]
 800a3ba:	ec51 0b10 	vmov	r0, r1, d0
 800a3be:	f1b8 0f00 	cmp.w	r8, #0
 800a3c2:	d12a      	bne.n	800a41a <__ieee754_pow+0x1ca>
 800a3c4:	b12c      	cbz	r4, 800a3d2 <__ieee754_pow+0x182>
 800a3c6:	f8df c0b4 	ldr.w	ip, [pc, #180]	; 800a47c <__ieee754_pow+0x22c>
 800a3ca:	f029 4e40 	bic.w	lr, r9, #3221225472	; 0xc0000000
 800a3ce:	45e6      	cmp	lr, ip
 800a3d0:	d123      	bne.n	800a41a <__ieee754_pow+0x1ca>
 800a3d2:	2f00      	cmp	r7, #0
 800a3d4:	da05      	bge.n	800a3e2 <__ieee754_pow+0x192>
 800a3d6:	4602      	mov	r2, r0
 800a3d8:	460b      	mov	r3, r1
 800a3da:	2000      	movs	r0, #0
 800a3dc:	4927      	ldr	r1, [pc, #156]	; (800a47c <__ieee754_pow+0x22c>)
 800a3de:	f7f6 fa35 	bl	800084c <__aeabi_ddiv>
 800a3e2:	f1b9 0f00 	cmp.w	r9, #0
 800a3e6:	dab7      	bge.n	800a358 <__ieee754_pow+0x108>
 800a3e8:	9b00      	ldr	r3, [sp, #0]
 800a3ea:	f104 4440 	add.w	r4, r4, #3221225472	; 0xc0000000
 800a3ee:	f504 1480 	add.w	r4, r4, #1048576	; 0x100000
 800a3f2:	4323      	orrs	r3, r4
 800a3f4:	d108      	bne.n	800a408 <__ieee754_pow+0x1b8>
 800a3f6:	4602      	mov	r2, r0
 800a3f8:	460b      	mov	r3, r1
 800a3fa:	4610      	mov	r0, r2
 800a3fc:	4619      	mov	r1, r3
 800a3fe:	f7f5 ff43 	bl	8000288 <__aeabi_dsub>
 800a402:	4602      	mov	r2, r0
 800a404:	460b      	mov	r3, r1
 800a406:	e78d      	b.n	800a324 <__ieee754_pow+0xd4>
 800a408:	9b00      	ldr	r3, [sp, #0]
 800a40a:	2b01      	cmp	r3, #1
 800a40c:	d1a4      	bne.n	800a358 <__ieee754_pow+0x108>
 800a40e:	4602      	mov	r2, r0
 800a410:	f101 4300 	add.w	r3, r1, #2147483648	; 0x80000000
 800a414:	4610      	mov	r0, r2
 800a416:	4619      	mov	r1, r3
 800a418:	e79e      	b.n	800a358 <__ieee754_pow+0x108>
 800a41a:	ea4f 7cd9 	mov.w	ip, r9, lsr #31
 800a41e:	f10c 35ff 	add.w	r5, ip, #4294967295
 800a422:	950a      	str	r5, [sp, #40]	; 0x28
 800a424:	9d00      	ldr	r5, [sp, #0]
 800a426:	46ac      	mov	ip, r5
 800a428:	9d0a      	ldr	r5, [sp, #40]	; 0x28
 800a42a:	ea5c 0505 	orrs.w	r5, ip, r5
 800a42e:	d0e4      	beq.n	800a3fa <__ieee754_pow+0x1aa>
 800a430:	4b15      	ldr	r3, [pc, #84]	; (800a488 <__ieee754_pow+0x238>)
 800a432:	429e      	cmp	r6, r3
 800a434:	f340 80fc 	ble.w	800a630 <__ieee754_pow+0x3e0>
 800a438:	f103 7304 	add.w	r3, r3, #34603008	; 0x2100000
 800a43c:	429e      	cmp	r6, r3
 800a43e:	4b10      	ldr	r3, [pc, #64]	; (800a480 <__ieee754_pow+0x230>)
 800a440:	dd07      	ble.n	800a452 <__ieee754_pow+0x202>
 800a442:	429c      	cmp	r4, r3
 800a444:	dc0a      	bgt.n	800a45c <__ieee754_pow+0x20c>
 800a446:	2f00      	cmp	r7, #0
 800a448:	da84      	bge.n	800a354 <__ieee754_pow+0x104>
 800a44a:	a307      	add	r3, pc, #28	; (adr r3, 800a468 <__ieee754_pow+0x218>)
 800a44c:	e9d3 2300 	ldrd	r2, r3, [r3]
 800a450:	e795      	b.n	800a37e <__ieee754_pow+0x12e>
 800a452:	429c      	cmp	r4, r3
 800a454:	dbf7      	blt.n	800a446 <__ieee754_pow+0x1f6>
 800a456:	4b09      	ldr	r3, [pc, #36]	; (800a47c <__ieee754_pow+0x22c>)
 800a458:	429c      	cmp	r4, r3
 800a45a:	dd17      	ble.n	800a48c <__ieee754_pow+0x23c>
 800a45c:	2f00      	cmp	r7, #0
 800a45e:	dcf4      	bgt.n	800a44a <__ieee754_pow+0x1fa>
 800a460:	e778      	b.n	800a354 <__ieee754_pow+0x104>
 800a462:	bf00      	nop
 800a464:	f3af 8000 	nop.w
 800a468:	8800759c 	.word	0x8800759c
 800a46c:	7e37e43c 	.word	0x7e37e43c
 800a470:	7ff00000 	.word	0x7ff00000
 800a474:	0800b5f8 	.word	0x0800b5f8
 800a478:	433fffff 	.word	0x433fffff
 800a47c:	3ff00000 	.word	0x3ff00000
 800a480:	3fefffff 	.word	0x3fefffff
 800a484:	3fe00000 	.word	0x3fe00000
 800a488:	41e00000 	.word	0x41e00000
 800a48c:	4b64      	ldr	r3, [pc, #400]	; (800a620 <__ieee754_pow+0x3d0>)
 800a48e:	2200      	movs	r2, #0
 800a490:	f7f5 fefa 	bl	8000288 <__aeabi_dsub>
 800a494:	a356      	add	r3, pc, #344	; (adr r3, 800a5f0 <__ieee754_pow+0x3a0>)
 800a496:	e9d3 2300 	ldrd	r2, r3, [r3]
 800a49a:	4604      	mov	r4, r0
 800a49c:	460d      	mov	r5, r1
 800a49e:	f7f6 f8ab 	bl	80005f8 <__aeabi_dmul>
 800a4a2:	a355      	add	r3, pc, #340	; (adr r3, 800a5f8 <__ieee754_pow+0x3a8>)
 800a4a4:	e9d3 2300 	ldrd	r2, r3, [r3]
 800a4a8:	4606      	mov	r6, r0
 800a4aa:	460f      	mov	r7, r1
 800a4ac:	4620      	mov	r0, r4
 800a4ae:	4629      	mov	r1, r5
 800a4b0:	f7f6 f8a2 	bl	80005f8 <__aeabi_dmul>
 800a4b4:	4b5b      	ldr	r3, [pc, #364]	; (800a624 <__ieee754_pow+0x3d4>)
 800a4b6:	4682      	mov	sl, r0
 800a4b8:	468b      	mov	fp, r1
 800a4ba:	2200      	movs	r2, #0
 800a4bc:	4620      	mov	r0, r4
 800a4be:	4629      	mov	r1, r5
 800a4c0:	f7f6 f89a 	bl	80005f8 <__aeabi_dmul>
 800a4c4:	4602      	mov	r2, r0
 800a4c6:	460b      	mov	r3, r1
 800a4c8:	a14d      	add	r1, pc, #308	; (adr r1, 800a600 <__ieee754_pow+0x3b0>)
 800a4ca:	e9d1 0100 	ldrd	r0, r1, [r1]
 800a4ce:	f7f5 fedb 	bl	8000288 <__aeabi_dsub>
 800a4d2:	4622      	mov	r2, r4
 800a4d4:	462b      	mov	r3, r5
 800a4d6:	f7f6 f88f 	bl	80005f8 <__aeabi_dmul>
 800a4da:	4602      	mov	r2, r0
 800a4dc:	460b      	mov	r3, r1
 800a4de:	2000      	movs	r0, #0
 800a4e0:	4951      	ldr	r1, [pc, #324]	; (800a628 <__ieee754_pow+0x3d8>)
 800a4e2:	f7f5 fed1 	bl	8000288 <__aeabi_dsub>
 800a4e6:	4622      	mov	r2, r4
 800a4e8:	4680      	mov	r8, r0
 800a4ea:	4689      	mov	r9, r1
 800a4ec:	462b      	mov	r3, r5
 800a4ee:	4620      	mov	r0, r4
 800a4f0:	4629      	mov	r1, r5
 800a4f2:	f7f6 f881 	bl	80005f8 <__aeabi_dmul>
 800a4f6:	4602      	mov	r2, r0
 800a4f8:	460b      	mov	r3, r1
 800a4fa:	4640      	mov	r0, r8
 800a4fc:	4649      	mov	r1, r9
 800a4fe:	f7f6 f87b 	bl	80005f8 <__aeabi_dmul>
 800a502:	a341      	add	r3, pc, #260	; (adr r3, 800a608 <__ieee754_pow+0x3b8>)
 800a504:	e9d3 2300 	ldrd	r2, r3, [r3]
 800a508:	f7f6 f876 	bl	80005f8 <__aeabi_dmul>
 800a50c:	4602      	mov	r2, r0
 800a50e:	460b      	mov	r3, r1
 800a510:	4650      	mov	r0, sl
 800a512:	4659      	mov	r1, fp
 800a514:	f7f5 feb8 	bl	8000288 <__aeabi_dsub>
 800a518:	4602      	mov	r2, r0
 800a51a:	460b      	mov	r3, r1
 800a51c:	4680      	mov	r8, r0
 800a51e:	4689      	mov	r9, r1
 800a520:	4630      	mov	r0, r6
 800a522:	4639      	mov	r1, r7
 800a524:	f7f5 feb2 	bl	800028c <__adddf3>
 800a528:	2400      	movs	r4, #0
 800a52a:	4632      	mov	r2, r6
 800a52c:	463b      	mov	r3, r7
 800a52e:	4620      	mov	r0, r4
 800a530:	460d      	mov	r5, r1
 800a532:	f7f5 fea9 	bl	8000288 <__aeabi_dsub>
 800a536:	4602      	mov	r2, r0
 800a538:	460b      	mov	r3, r1
 800a53a:	4640      	mov	r0, r8
 800a53c:	4649      	mov	r1, r9
 800a53e:	f7f5 fea3 	bl	8000288 <__aeabi_dsub>
 800a542:	9b00      	ldr	r3, [sp, #0]
 800a544:	9a0a      	ldr	r2, [sp, #40]	; 0x28
 800a546:	3b01      	subs	r3, #1
 800a548:	4313      	orrs	r3, r2
 800a54a:	4682      	mov	sl, r0
 800a54c:	468b      	mov	fp, r1
 800a54e:	f040 81f1 	bne.w	800a934 <__ieee754_pow+0x6e4>
 800a552:	ed9f 7b2f 	vldr	d7, [pc, #188]	; 800a610 <__ieee754_pow+0x3c0>
 800a556:	eeb0 8a47 	vmov.f32	s16, s14
 800a55a:	eef0 8a67 	vmov.f32	s17, s15
 800a55e:	e9dd 6702 	ldrd	r6, r7, [sp, #8]
 800a562:	2600      	movs	r6, #0
 800a564:	4632      	mov	r2, r6
 800a566:	463b      	mov	r3, r7
 800a568:	e9dd 0102 	ldrd	r0, r1, [sp, #8]
 800a56c:	f7f5 fe8c 	bl	8000288 <__aeabi_dsub>
 800a570:	4622      	mov	r2, r4
 800a572:	462b      	mov	r3, r5
 800a574:	f7f6 f840 	bl	80005f8 <__aeabi_dmul>
 800a578:	e9dd 2302 	ldrd	r2, r3, [sp, #8]
 800a57c:	4680      	mov	r8, r0
 800a57e:	4689      	mov	r9, r1
 800a580:	4650      	mov	r0, sl
 800a582:	4659      	mov	r1, fp
 800a584:	f7f6 f838 	bl	80005f8 <__aeabi_dmul>
 800a588:	4602      	mov	r2, r0
 800a58a:	460b      	mov	r3, r1
 800a58c:	4640      	mov	r0, r8
 800a58e:	4649      	mov	r1, r9
 800a590:	f7f5 fe7c 	bl	800028c <__adddf3>
 800a594:	4632      	mov	r2, r6
 800a596:	463b      	mov	r3, r7
 800a598:	4680      	mov	r8, r0
 800a59a:	4689      	mov	r9, r1
 800a59c:	4620      	mov	r0, r4
 800a59e:	4629      	mov	r1, r5
 800a5a0:	f7f6 f82a 	bl	80005f8 <__aeabi_dmul>
 800a5a4:	460b      	mov	r3, r1
 800a5a6:	4604      	mov	r4, r0
 800a5a8:	460d      	mov	r5, r1
 800a5aa:	4602      	mov	r2, r0
 800a5ac:	4649      	mov	r1, r9
 800a5ae:	4640      	mov	r0, r8
 800a5b0:	f7f5 fe6c 	bl	800028c <__adddf3>
 800a5b4:	4b1d      	ldr	r3, [pc, #116]	; (800a62c <__ieee754_pow+0x3dc>)
 800a5b6:	4299      	cmp	r1, r3
 800a5b8:	ec45 4b19 	vmov	d9, r4, r5
 800a5bc:	4606      	mov	r6, r0
 800a5be:	460f      	mov	r7, r1
 800a5c0:	468b      	mov	fp, r1
 800a5c2:	f340 82fe 	ble.w	800abc2 <__ieee754_pow+0x972>
 800a5c6:	f101 433f 	add.w	r3, r1, #3204448256	; 0xbf000000
 800a5ca:	f503 03e0 	add.w	r3, r3, #7340032	; 0x700000
 800a5ce:	4303      	orrs	r3, r0
 800a5d0:	f000 81f0 	beq.w	800a9b4 <__ieee754_pow+0x764>
 800a5d4:	a310      	add	r3, pc, #64	; (adr r3, 800a618 <__ieee754_pow+0x3c8>)
 800a5d6:	e9d3 2300 	ldrd	r2, r3, [r3]
 800a5da:	ec51 0b18 	vmov	r0, r1, d8
 800a5de:	f7f6 f80b 	bl	80005f8 <__aeabi_dmul>
 800a5e2:	a30d      	add	r3, pc, #52	; (adr r3, 800a618 <__ieee754_pow+0x3c8>)
 800a5e4:	e9d3 2300 	ldrd	r2, r3, [r3]
 800a5e8:	e6cb      	b.n	800a382 <__ieee754_pow+0x132>
 800a5ea:	bf00      	nop
 800a5ec:	f3af 8000 	nop.w
 800a5f0:	60000000 	.word	0x60000000
 800a5f4:	3ff71547 	.word	0x3ff71547
 800a5f8:	f85ddf44 	.word	0xf85ddf44
 800a5fc:	3e54ae0b 	.word	0x3e54ae0b
 800a600:	55555555 	.word	0x55555555
 800a604:	3fd55555 	.word	0x3fd55555
 800a608:	652b82fe 	.word	0x652b82fe
 800a60c:	3ff71547 	.word	0x3ff71547
 800a610:	00000000 	.word	0x00000000
 800a614:	bff00000 	.word	0xbff00000
 800a618:	8800759c 	.word	0x8800759c
 800a61c:	7e37e43c 	.word	0x7e37e43c
 800a620:	3ff00000 	.word	0x3ff00000
 800a624:	3fd00000 	.word	0x3fd00000
 800a628:	3fe00000 	.word	0x3fe00000
 800a62c:	408fffff 	.word	0x408fffff
 800a630:	4bd7      	ldr	r3, [pc, #860]	; (800a990 <__ieee754_pow+0x740>)
 800a632:	ea03 0309 	and.w	r3, r3, r9
 800a636:	2200      	movs	r2, #0
 800a638:	b92b      	cbnz	r3, 800a646 <__ieee754_pow+0x3f6>
 800a63a:	4bd6      	ldr	r3, [pc, #856]	; (800a994 <__ieee754_pow+0x744>)
 800a63c:	f7f5 ffdc 	bl	80005f8 <__aeabi_dmul>
 800a640:	f06f 0234 	mvn.w	r2, #52	; 0x34
 800a644:	460c      	mov	r4, r1
 800a646:	1523      	asrs	r3, r4, #20
 800a648:	f2a3 33ff 	subw	r3, r3, #1023	; 0x3ff
 800a64c:	4413      	add	r3, r2
 800a64e:	9309      	str	r3, [sp, #36]	; 0x24
 800a650:	4bd1      	ldr	r3, [pc, #836]	; (800a998 <__ieee754_pow+0x748>)
 800a652:	f3c4 0413 	ubfx	r4, r4, #0, #20
 800a656:	f044 557f 	orr.w	r5, r4, #1069547520	; 0x3fc00000
 800a65a:	429c      	cmp	r4, r3
 800a65c:	f445 1540 	orr.w	r5, r5, #3145728	; 0x300000
 800a660:	dd08      	ble.n	800a674 <__ieee754_pow+0x424>
 800a662:	4bce      	ldr	r3, [pc, #824]	; (800a99c <__ieee754_pow+0x74c>)
 800a664:	429c      	cmp	r4, r3
 800a666:	f340 8163 	ble.w	800a930 <__ieee754_pow+0x6e0>
 800a66a:	9b09      	ldr	r3, [sp, #36]	; 0x24
 800a66c:	3301      	adds	r3, #1
 800a66e:	9309      	str	r3, [sp, #36]	; 0x24
 800a670:	f5a5 1580 	sub.w	r5, r5, #1048576	; 0x100000
 800a674:	2400      	movs	r4, #0
 800a676:	00e3      	lsls	r3, r4, #3
 800a678:	930b      	str	r3, [sp, #44]	; 0x2c
 800a67a:	4bc9      	ldr	r3, [pc, #804]	; (800a9a0 <__ieee754_pow+0x750>)
 800a67c:	eb03 03c4 	add.w	r3, r3, r4, lsl #3
 800a680:	ed93 7b00 	vldr	d7, [r3]
 800a684:	4629      	mov	r1, r5
 800a686:	ec53 2b17 	vmov	r2, r3, d7
 800a68a:	eeb0 8a47 	vmov.f32	s16, s14
 800a68e:	eef0 8a67 	vmov.f32	s17, s15
 800a692:	4682      	mov	sl, r0
 800a694:	f7f5 fdf8 	bl	8000288 <__aeabi_dsub>
 800a698:	4652      	mov	r2, sl
 800a69a:	4606      	mov	r6, r0
 800a69c:	460f      	mov	r7, r1
 800a69e:	462b      	mov	r3, r5
 800a6a0:	ec51 0b18 	vmov	r0, r1, d8
 800a6a4:	f7f5 fdf2 	bl	800028c <__adddf3>
 800a6a8:	4602      	mov	r2, r0
 800a6aa:	460b      	mov	r3, r1
 800a6ac:	2000      	movs	r0, #0
 800a6ae:	49bd      	ldr	r1, [pc, #756]	; (800a9a4 <__ieee754_pow+0x754>)
 800a6b0:	f7f6 f8cc 	bl	800084c <__aeabi_ddiv>
 800a6b4:	ec41 0b19 	vmov	d9, r0, r1
 800a6b8:	4602      	mov	r2, r0
 800a6ba:	460b      	mov	r3, r1
 800a6bc:	4630      	mov	r0, r6
 800a6be:	4639      	mov	r1, r7
 800a6c0:	f7f5 ff9a 	bl	80005f8 <__aeabi_dmul>
 800a6c4:	e9cd 0106 	strd	r0, r1, [sp, #24]
 800a6c8:	e9dd 2306 	ldrd	r2, r3, [sp, #24]
 800a6cc:	e9cd 2304 	strd	r2, r3, [sp, #16]
 800a6d0:	2300      	movs	r3, #0
 800a6d2:	9304      	str	r3, [sp, #16]
 800a6d4:	e9dd 8904 	ldrd	r8, r9, [sp, #16]
 800a6d8:	46ab      	mov	fp, r5
 800a6da:	106d      	asrs	r5, r5, #1
 800a6dc:	f045 5500 	orr.w	r5, r5, #536870912	; 0x20000000
 800a6e0:	f505 2500 	add.w	r5, r5, #524288	; 0x80000
 800a6e4:	eb05 4384 	add.w	r3, r5, r4, lsl #18
 800a6e8:	2200      	movs	r2, #0
 800a6ea:	4640      	mov	r0, r8
 800a6ec:	4649      	mov	r1, r9
 800a6ee:	4614      	mov	r4, r2
 800a6f0:	461d      	mov	r5, r3
 800a6f2:	f7f5 ff81 	bl	80005f8 <__aeabi_dmul>
 800a6f6:	4602      	mov	r2, r0
 800a6f8:	460b      	mov	r3, r1
 800a6fa:	4630      	mov	r0, r6
 800a6fc:	4639      	mov	r1, r7
 800a6fe:	f7f5 fdc3 	bl	8000288 <__aeabi_dsub>
 800a702:	ec53 2b18 	vmov	r2, r3, d8
 800a706:	4606      	mov	r6, r0
 800a708:	460f      	mov	r7, r1
 800a70a:	4620      	mov	r0, r4
 800a70c:	4629      	mov	r1, r5
 800a70e:	f7f5 fdbb 	bl	8000288 <__aeabi_dsub>
 800a712:	4602      	mov	r2, r0
 800a714:	460b      	mov	r3, r1
 800a716:	4650      	mov	r0, sl
 800a718:	4659      	mov	r1, fp
 800a71a:	f7f5 fdb5 	bl	8000288 <__aeabi_dsub>
 800a71e:	4642      	mov	r2, r8
 800a720:	464b      	mov	r3, r9
 800a722:	f7f5 ff69 	bl	80005f8 <__aeabi_dmul>
 800a726:	4602      	mov	r2, r0
 800a728:	460b      	mov	r3, r1
 800a72a:	4630      	mov	r0, r6
 800a72c:	4639      	mov	r1, r7
 800a72e:	f7f5 fdab 	bl	8000288 <__aeabi_dsub>
 800a732:	ec53 2b19 	vmov	r2, r3, d9
 800a736:	f7f5 ff5f 	bl	80005f8 <__aeabi_dmul>
 800a73a:	e9dd 2306 	ldrd	r2, r3, [sp, #24]
 800a73e:	ec41 0b18 	vmov	d8, r0, r1
 800a742:	4610      	mov	r0, r2
 800a744:	4619      	mov	r1, r3
 800a746:	f7f5 ff57 	bl	80005f8 <__aeabi_dmul>
 800a74a:	a37d      	add	r3, pc, #500	; (adr r3, 800a940 <__ieee754_pow+0x6f0>)
 800a74c:	e9d3 2300 	ldrd	r2, r3, [r3]
 800a750:	4604      	mov	r4, r0
 800a752:	460d      	mov	r5, r1
 800a754:	f7f5 ff50 	bl	80005f8 <__aeabi_dmul>
 800a758:	a37b      	add	r3, pc, #492	; (adr r3, 800a948 <__ieee754_pow+0x6f8>)
 800a75a:	e9d3 2300 	ldrd	r2, r3, [r3]
 800a75e:	f7f5 fd95 	bl	800028c <__adddf3>
 800a762:	4622      	mov	r2, r4
 800a764:	462b      	mov	r3, r5
 800a766:	f7f5 ff47 	bl	80005f8 <__aeabi_dmul>
 800a76a:	a379      	add	r3, pc, #484	; (adr r3, 800a950 <__ieee754_pow+0x700>)
 800a76c:	e9d3 2300 	ldrd	r2, r3, [r3]
 800a770:	f7f5 fd8c 	bl	800028c <__adddf3>
 800a774:	4622      	mov	r2, r4
 800a776:	462b      	mov	r3, r5
 800a778:	f7f5 ff3e 	bl	80005f8 <__aeabi_dmul>
 800a77c:	a376      	add	r3, pc, #472	; (adr r3, 800a958 <__ieee754_pow+0x708>)
 800a77e:	e9d3 2300 	ldrd	r2, r3, [r3]
 800a782:	f7f5 fd83 	bl	800028c <__adddf3>
 800a786:	4622      	mov	r2, r4
 800a788:	462b      	mov	r3, r5
 800a78a:	f7f5 ff35 	bl	80005f8 <__aeabi_dmul>
 800a78e:	a374      	add	r3, pc, #464	; (adr r3, 800a960 <__ieee754_pow+0x710>)
 800a790:	e9d3 2300 	ldrd	r2, r3, [r3]
 800a794:	f7f5 fd7a 	bl	800028c <__adddf3>
 800a798:	4622      	mov	r2, r4
 800a79a:	462b      	mov	r3, r5
 800a79c:	f7f5 ff2c 	bl	80005f8 <__aeabi_dmul>
 800a7a0:	a371      	add	r3, pc, #452	; (adr r3, 800a968 <__ieee754_pow+0x718>)
 800a7a2:	e9d3 2300 	ldrd	r2, r3, [r3]
 800a7a6:	f7f5 fd71 	bl	800028c <__adddf3>
 800a7aa:	4622      	mov	r2, r4
 800a7ac:	4606      	mov	r6, r0
 800a7ae:	460f      	mov	r7, r1
 800a7b0:	462b      	mov	r3, r5
 800a7b2:	4620      	mov	r0, r4
 800a7b4:	4629      	mov	r1, r5
 800a7b6:	f7f5 ff1f 	bl	80005f8 <__aeabi_dmul>
 800a7ba:	4602      	mov	r2, r0
 800a7bc:	460b      	mov	r3, r1
 800a7be:	4630      	mov	r0, r6
 800a7c0:	4639      	mov	r1, r7
 800a7c2:	f7f5 ff19 	bl	80005f8 <__aeabi_dmul>
 800a7c6:	4642      	mov	r2, r8
 800a7c8:	4604      	mov	r4, r0
 800a7ca:	460d      	mov	r5, r1
 800a7cc:	464b      	mov	r3, r9
 800a7ce:	e9dd 0106 	ldrd	r0, r1, [sp, #24]
 800a7d2:	f7f5 fd5b 	bl	800028c <__adddf3>
 800a7d6:	ec53 2b18 	vmov	r2, r3, d8
 800a7da:	f7f5 ff0d 	bl	80005f8 <__aeabi_dmul>
 800a7de:	4622      	mov	r2, r4
 800a7e0:	462b      	mov	r3, r5
 800a7e2:	f7f5 fd53 	bl	800028c <__adddf3>
 800a7e6:	4642      	mov	r2, r8
 800a7e8:	4682      	mov	sl, r0
 800a7ea:	468b      	mov	fp, r1
 800a7ec:	464b      	mov	r3, r9
 800a7ee:	4640      	mov	r0, r8
 800a7f0:	4649      	mov	r1, r9
 800a7f2:	f7f5 ff01 	bl	80005f8 <__aeabi_dmul>
 800a7f6:	4b6c      	ldr	r3, [pc, #432]	; (800a9a8 <__ieee754_pow+0x758>)
 800a7f8:	2200      	movs	r2, #0
 800a7fa:	4606      	mov	r6, r0
 800a7fc:	460f      	mov	r7, r1
 800a7fe:	f7f5 fd45 	bl	800028c <__adddf3>
 800a802:	4652      	mov	r2, sl
 800a804:	465b      	mov	r3, fp
 800a806:	f7f5 fd41 	bl	800028c <__adddf3>
 800a80a:	9c04      	ldr	r4, [sp, #16]
 800a80c:	460d      	mov	r5, r1
 800a80e:	4622      	mov	r2, r4
 800a810:	460b      	mov	r3, r1
 800a812:	4640      	mov	r0, r8
 800a814:	4649      	mov	r1, r9
 800a816:	f7f5 feef 	bl	80005f8 <__aeabi_dmul>
 800a81a:	4b63      	ldr	r3, [pc, #396]	; (800a9a8 <__ieee754_pow+0x758>)
 800a81c:	4680      	mov	r8, r0
 800a81e:	4689      	mov	r9, r1
 800a820:	2200      	movs	r2, #0
 800a822:	4620      	mov	r0, r4
 800a824:	4629      	mov	r1, r5
 800a826:	f7f5 fd2f 	bl	8000288 <__aeabi_dsub>
 800a82a:	4632      	mov	r2, r6
 800a82c:	463b      	mov	r3, r7
 800a82e:	f7f5 fd2b 	bl	8000288 <__aeabi_dsub>
 800a832:	4602      	mov	r2, r0
 800a834:	460b      	mov	r3, r1
 800a836:	4650      	mov	r0, sl
 800a838:	4659      	mov	r1, fp
 800a83a:	f7f5 fd25 	bl	8000288 <__aeabi_dsub>
 800a83e:	e9dd 2306 	ldrd	r2, r3, [sp, #24]
 800a842:	f7f5 fed9 	bl	80005f8 <__aeabi_dmul>
 800a846:	4622      	mov	r2, r4
 800a848:	4606      	mov	r6, r0
 800a84a:	460f      	mov	r7, r1
 800a84c:	462b      	mov	r3, r5
 800a84e:	ec51 0b18 	vmov	r0, r1, d8
 800a852:	f7f5 fed1 	bl	80005f8 <__aeabi_dmul>
 800a856:	4602      	mov	r2, r0
 800a858:	460b      	mov	r3, r1
 800a85a:	4630      	mov	r0, r6
 800a85c:	4639      	mov	r1, r7
 800a85e:	f7f5 fd15 	bl	800028c <__adddf3>
 800a862:	4606      	mov	r6, r0
 800a864:	460f      	mov	r7, r1
 800a866:	4602      	mov	r2, r0
 800a868:	460b      	mov	r3, r1
 800a86a:	4640      	mov	r0, r8
 800a86c:	4649      	mov	r1, r9
 800a86e:	f7f5 fd0d 	bl	800028c <__adddf3>
 800a872:	9c04      	ldr	r4, [sp, #16]
 800a874:	a33e      	add	r3, pc, #248	; (adr r3, 800a970 <__ieee754_pow+0x720>)
 800a876:	e9d3 2300 	ldrd	r2, r3, [r3]
 800a87a:	4620      	mov	r0, r4
 800a87c:	460d      	mov	r5, r1
 800a87e:	f7f5 febb 	bl	80005f8 <__aeabi_dmul>
 800a882:	4642      	mov	r2, r8
 800a884:	ec41 0b18 	vmov	d8, r0, r1
 800a888:	464b      	mov	r3, r9
 800a88a:	4620      	mov	r0, r4
 800a88c:	4629      	mov	r1, r5
 800a88e:	f7f5 fcfb 	bl	8000288 <__aeabi_dsub>
 800a892:	4602      	mov	r2, r0
 800a894:	460b      	mov	r3, r1
 800a896:	4630      	mov	r0, r6
 800a898:	4639      	mov	r1, r7
 800a89a:	f7f5 fcf5 	bl	8000288 <__aeabi_dsub>
 800a89e:	a336      	add	r3, pc, #216	; (adr r3, 800a978 <__ieee754_pow+0x728>)
 800a8a0:	e9d3 2300 	ldrd	r2, r3, [r3]
 800a8a4:	f7f5 fea8 	bl	80005f8 <__aeabi_dmul>
 800a8a8:	a335      	add	r3, pc, #212	; (adr r3, 800a980 <__ieee754_pow+0x730>)
 800a8aa:	e9d3 2300 	ldrd	r2, r3, [r3]
 800a8ae:	4606      	mov	r6, r0
 800a8b0:	460f      	mov	r7, r1
 800a8b2:	4620      	mov	r0, r4
 800a8b4:	4629      	mov	r1, r5
 800a8b6:	f7f5 fe9f 	bl	80005f8 <__aeabi_dmul>
 800a8ba:	4602      	mov	r2, r0
 800a8bc:	460b      	mov	r3, r1
 800a8be:	4630      	mov	r0, r6
 800a8c0:	4639      	mov	r1, r7
 800a8c2:	f7f5 fce3 	bl	800028c <__adddf3>
 800a8c6:	9a0b      	ldr	r2, [sp, #44]	; 0x2c
 800a8c8:	4b38      	ldr	r3, [pc, #224]	; (800a9ac <__ieee754_pow+0x75c>)
 800a8ca:	4413      	add	r3, r2
 800a8cc:	e9d3 2300 	ldrd	r2, r3, [r3]
 800a8d0:	f7f5 fcdc 	bl	800028c <__adddf3>
 800a8d4:	4682      	mov	sl, r0
 800a8d6:	9809      	ldr	r0, [sp, #36]	; 0x24
 800a8d8:	468b      	mov	fp, r1
 800a8da:	f7f5 fe23 	bl	8000524 <__aeabi_i2d>
 800a8de:	9a0b      	ldr	r2, [sp, #44]	; 0x2c
 800a8e0:	4b33      	ldr	r3, [pc, #204]	; (800a9b0 <__ieee754_pow+0x760>)
 800a8e2:	4413      	add	r3, r2
 800a8e4:	e9d3 8900 	ldrd	r8, r9, [r3]
 800a8e8:	4606      	mov	r6, r0
 800a8ea:	460f      	mov	r7, r1
 800a8ec:	4652      	mov	r2, sl
 800a8ee:	465b      	mov	r3, fp
 800a8f0:	ec51 0b18 	vmov	r0, r1, d8
 800a8f4:	f7f5 fcca 	bl	800028c <__adddf3>
 800a8f8:	4642      	mov	r2, r8
 800a8fa:	464b      	mov	r3, r9
 800a8fc:	f7f5 fcc6 	bl	800028c <__adddf3>
 800a900:	4632      	mov	r2, r6
 800a902:	463b      	mov	r3, r7
 800a904:	f7f5 fcc2 	bl	800028c <__adddf3>
 800a908:	9c04      	ldr	r4, [sp, #16]
 800a90a:	4632      	mov	r2, r6
 800a90c:	463b      	mov	r3, r7
 800a90e:	4620      	mov	r0, r4
 800a910:	460d      	mov	r5, r1
 800a912:	f7f5 fcb9 	bl	8000288 <__aeabi_dsub>
 800a916:	4642      	mov	r2, r8
 800a918:	464b      	mov	r3, r9
 800a91a:	f7f5 fcb5 	bl	8000288 <__aeabi_dsub>
 800a91e:	ec53 2b18 	vmov	r2, r3, d8
 800a922:	f7f5 fcb1 	bl	8000288 <__aeabi_dsub>
 800a926:	4602      	mov	r2, r0
 800a928:	460b      	mov	r3, r1
 800a92a:	4650      	mov	r0, sl
 800a92c:	4659      	mov	r1, fp
 800a92e:	e606      	b.n	800a53e <__ieee754_pow+0x2ee>
 800a930:	2401      	movs	r4, #1
 800a932:	e6a0      	b.n	800a676 <__ieee754_pow+0x426>
 800a934:	ed9f 7b14 	vldr	d7, [pc, #80]	; 800a988 <__ieee754_pow+0x738>
 800a938:	e60d      	b.n	800a556 <__ieee754_pow+0x306>
 800a93a:	bf00      	nop
 800a93c:	f3af 8000 	nop.w
 800a940:	4a454eef 	.word	0x4a454eef
 800a944:	3fca7e28 	.word	0x3fca7e28
 800a948:	93c9db65 	.word	0x93c9db65
 800a94c:	3fcd864a 	.word	0x3fcd864a
 800a950:	a91d4101 	.word	0xa91d4101
 800a954:	3fd17460 	.word	0x3fd17460
 800a958:	518f264d 	.word	0x518f264d
 800a95c:	3fd55555 	.word	0x3fd55555
 800a960:	db6fabff 	.word	0xdb6fabff
 800a964:	3fdb6db6 	.word	0x3fdb6db6
 800a968:	33333303 	.word	0x33333303
 800a96c:	3fe33333 	.word	0x3fe33333
 800a970:	e0000000 	.word	0xe0000000
 800a974:	3feec709 	.word	0x3feec709
 800a978:	dc3a03fd 	.word	0xdc3a03fd
 800a97c:	3feec709 	.word	0x3feec709
 800a980:	145b01f5 	.word	0x145b01f5
 800a984:	be3e2fe0 	.word	0xbe3e2fe0
 800a988:	00000000 	.word	0x00000000
 800a98c:	3ff00000 	.word	0x3ff00000
 800a990:	7ff00000 	.word	0x7ff00000
 800a994:	43400000 	.word	0x43400000
 800a998:	0003988e 	.word	0x0003988e
 800a99c:	000bb679 	.word	0x000bb679
 800a9a0:	0800b600 	.word	0x0800b600
 800a9a4:	3ff00000 	.word	0x3ff00000
 800a9a8:	40080000 	.word	0x40080000
 800a9ac:	0800b620 	.word	0x0800b620
 800a9b0:	0800b610 	.word	0x0800b610
 800a9b4:	a3b5      	add	r3, pc, #724	; (adr r3, 800ac8c <__ieee754_pow+0xa3c>)
 800a9b6:	e9d3 2300 	ldrd	r2, r3, [r3]
 800a9ba:	4640      	mov	r0, r8
 800a9bc:	4649      	mov	r1, r9
 800a9be:	f7f5 fc65 	bl	800028c <__adddf3>
 800a9c2:	4622      	mov	r2, r4
 800a9c4:	ec41 0b1a 	vmov	d10, r0, r1
 800a9c8:	462b      	mov	r3, r5
 800a9ca:	4630      	mov	r0, r6
 800a9cc:	4639      	mov	r1, r7
 800a9ce:	f7f5 fc5b 	bl	8000288 <__aeabi_dsub>
 800a9d2:	4602      	mov	r2, r0
 800a9d4:	460b      	mov	r3, r1
 800a9d6:	ec51 0b1a 	vmov	r0, r1, d10
 800a9da:	f7f6 f89d 	bl	8000b18 <__aeabi_dcmpgt>
 800a9de:	2800      	cmp	r0, #0
 800a9e0:	f47f adf8 	bne.w	800a5d4 <__ieee754_pow+0x384>
 800a9e4:	4aa4      	ldr	r2, [pc, #656]	; (800ac78 <__ieee754_pow+0xa28>)
 800a9e6:	f02b 4300 	bic.w	r3, fp, #2147483648	; 0x80000000
 800a9ea:	4293      	cmp	r3, r2
 800a9ec:	f340 810b 	ble.w	800ac06 <__ieee754_pow+0x9b6>
 800a9f0:	151b      	asrs	r3, r3, #20
 800a9f2:	f44f 1a80 	mov.w	sl, #1048576	; 0x100000
 800a9f6:	f2a3 33fe 	subw	r3, r3, #1022	; 0x3fe
 800a9fa:	fa4a f303 	asr.w	r3, sl, r3
 800a9fe:	445b      	add	r3, fp
 800aa00:	f3c3 520a 	ubfx	r2, r3, #20, #11
 800aa04:	4e9d      	ldr	r6, [pc, #628]	; (800ac7c <__ieee754_pow+0xa2c>)
 800aa06:	f2a2 32ff 	subw	r2, r2, #1023	; 0x3ff
 800aa0a:	4116      	asrs	r6, r2
 800aa0c:	f3c3 0a13 	ubfx	sl, r3, #0, #20
 800aa10:	2000      	movs	r0, #0
 800aa12:	ea23 0106 	bic.w	r1, r3, r6
 800aa16:	f1c2 0214 	rsb	r2, r2, #20
 800aa1a:	f44a 1a80 	orr.w	sl, sl, #1048576	; 0x100000
 800aa1e:	fa4a fa02 	asr.w	sl, sl, r2
 800aa22:	f1bb 0f00 	cmp.w	fp, #0
 800aa26:	4602      	mov	r2, r0
 800aa28:	460b      	mov	r3, r1
 800aa2a:	4620      	mov	r0, r4
 800aa2c:	4629      	mov	r1, r5
 800aa2e:	bfb8      	it	lt
 800aa30:	f1ca 0a00 	rsblt	sl, sl, #0
 800aa34:	f7f5 fc28 	bl	8000288 <__aeabi_dsub>
 800aa38:	ec41 0b19 	vmov	d9, r0, r1
 800aa3c:	4642      	mov	r2, r8
 800aa3e:	464b      	mov	r3, r9
 800aa40:	ec51 0b19 	vmov	r0, r1, d9
 800aa44:	f7f5 fc22 	bl	800028c <__adddf3>
 800aa48:	2400      	movs	r4, #0
 800aa4a:	a379      	add	r3, pc, #484	; (adr r3, 800ac30 <__ieee754_pow+0x9e0>)
 800aa4c:	e9d3 2300 	ldrd	r2, r3, [r3]
 800aa50:	4620      	mov	r0, r4
 800aa52:	460d      	mov	r5, r1
 800aa54:	f7f5 fdd0 	bl	80005f8 <__aeabi_dmul>
 800aa58:	ec53 2b19 	vmov	r2, r3, d9
 800aa5c:	4606      	mov	r6, r0
 800aa5e:	460f      	mov	r7, r1
 800aa60:	4620      	mov	r0, r4
 800aa62:	4629      	mov	r1, r5
 800aa64:	f7f5 fc10 	bl	8000288 <__aeabi_dsub>
 800aa68:	4602      	mov	r2, r0
 800aa6a:	460b      	mov	r3, r1
 800aa6c:	4640      	mov	r0, r8
 800aa6e:	4649      	mov	r1, r9
 800aa70:	f7f5 fc0a 	bl	8000288 <__aeabi_dsub>
 800aa74:	a370      	add	r3, pc, #448	; (adr r3, 800ac38 <__ieee754_pow+0x9e8>)
 800aa76:	e9d3 2300 	ldrd	r2, r3, [r3]
 800aa7a:	f7f5 fdbd 	bl	80005f8 <__aeabi_dmul>
 800aa7e:	a370      	add	r3, pc, #448	; (adr r3, 800ac40 <__ieee754_pow+0x9f0>)
 800aa80:	e9d3 2300 	ldrd	r2, r3, [r3]
 800aa84:	4680      	mov	r8, r0
 800aa86:	4689      	mov	r9, r1
 800aa88:	4620      	mov	r0, r4
 800aa8a:	4629      	mov	r1, r5
 800aa8c:	f7f5 fdb4 	bl	80005f8 <__aeabi_dmul>
 800aa90:	4602      	mov	r2, r0
 800aa92:	460b      	mov	r3, r1
 800aa94:	4640      	mov	r0, r8
 800aa96:	4649      	mov	r1, r9
 800aa98:	f7f5 fbf8 	bl	800028c <__adddf3>
 800aa9c:	4604      	mov	r4, r0
 800aa9e:	460d      	mov	r5, r1
 800aaa0:	4602      	mov	r2, r0
 800aaa2:	460b      	mov	r3, r1
 800aaa4:	4630      	mov	r0, r6
 800aaa6:	4639      	mov	r1, r7
 800aaa8:	f7f5 fbf0 	bl	800028c <__adddf3>
 800aaac:	4632      	mov	r2, r6
 800aaae:	463b      	mov	r3, r7
 800aab0:	4680      	mov	r8, r0
 800aab2:	4689      	mov	r9, r1
 800aab4:	f7f5 fbe8 	bl	8000288 <__aeabi_dsub>
 800aab8:	4602      	mov	r2, r0
 800aaba:	460b      	mov	r3, r1
 800aabc:	4620      	mov	r0, r4
 800aabe:	4629      	mov	r1, r5
 800aac0:	f7f5 fbe2 	bl	8000288 <__aeabi_dsub>
 800aac4:	4642      	mov	r2, r8
 800aac6:	4606      	mov	r6, r0
 800aac8:	460f      	mov	r7, r1
 800aaca:	464b      	mov	r3, r9
 800aacc:	4640      	mov	r0, r8
 800aace:	4649      	mov	r1, r9
 800aad0:	f7f5 fd92 	bl	80005f8 <__aeabi_dmul>
 800aad4:	a35c      	add	r3, pc, #368	; (adr r3, 800ac48 <__ieee754_pow+0x9f8>)
 800aad6:	e9d3 2300 	ldrd	r2, r3, [r3]
 800aada:	4604      	mov	r4, r0
 800aadc:	460d      	mov	r5, r1
 800aade:	f7f5 fd8b 	bl	80005f8 <__aeabi_dmul>
 800aae2:	a35b      	add	r3, pc, #364	; (adr r3, 800ac50 <__ieee754_pow+0xa00>)
 800aae4:	e9d3 2300 	ldrd	r2, r3, [r3]
 800aae8:	f7f5 fbce 	bl	8000288 <__aeabi_dsub>
 800aaec:	4622      	mov	r2, r4
 800aaee:	462b      	mov	r3, r5
 800aaf0:	f7f5 fd82 	bl	80005f8 <__aeabi_dmul>
 800aaf4:	a358      	add	r3, pc, #352	; (adr r3, 800ac58 <__ieee754_pow+0xa08>)
 800aaf6:	e9d3 2300 	ldrd	r2, r3, [r3]
 800aafa:	f7f5 fbc7 	bl	800028c <__adddf3>
 800aafe:	4622      	mov	r2, r4
 800ab00:	462b      	mov	r3, r5
 800ab02:	f7f5 fd79 	bl	80005f8 <__aeabi_dmul>
 800ab06:	a356      	add	r3, pc, #344	; (adr r3, 800ac60 <__ieee754_pow+0xa10>)
 800ab08:	e9d3 2300 	ldrd	r2, r3, [r3]
 800ab0c:	f7f5 fbbc 	bl	8000288 <__aeabi_dsub>
 800ab10:	4622      	mov	r2, r4
 800ab12:	462b      	mov	r3, r5
 800ab14:	f7f5 fd70 	bl	80005f8 <__aeabi_dmul>
 800ab18:	a353      	add	r3, pc, #332	; (adr r3, 800ac68 <__ieee754_pow+0xa18>)
 800ab1a:	e9d3 2300 	ldrd	r2, r3, [r3]
 800ab1e:	f7f5 fbb5 	bl	800028c <__adddf3>
 800ab22:	4622      	mov	r2, r4
 800ab24:	462b      	mov	r3, r5
 800ab26:	f7f5 fd67 	bl	80005f8 <__aeabi_dmul>
 800ab2a:	4602      	mov	r2, r0
 800ab2c:	460b      	mov	r3, r1
 800ab2e:	4640      	mov	r0, r8
 800ab30:	4649      	mov	r1, r9
 800ab32:	f7f5 fba9 	bl	8000288 <__aeabi_dsub>
 800ab36:	4604      	mov	r4, r0
 800ab38:	460d      	mov	r5, r1
 800ab3a:	4602      	mov	r2, r0
 800ab3c:	460b      	mov	r3, r1
 800ab3e:	4640      	mov	r0, r8
 800ab40:	4649      	mov	r1, r9
 800ab42:	f7f5 fd59 	bl	80005f8 <__aeabi_dmul>
 800ab46:	2200      	movs	r2, #0
 800ab48:	ec41 0b19 	vmov	d9, r0, r1
 800ab4c:	f04f 4380 	mov.w	r3, #1073741824	; 0x40000000
 800ab50:	4620      	mov	r0, r4
 800ab52:	4629      	mov	r1, r5
 800ab54:	f7f5 fb98 	bl	8000288 <__aeabi_dsub>
 800ab58:	4602      	mov	r2, r0
 800ab5a:	460b      	mov	r3, r1
 800ab5c:	ec51 0b19 	vmov	r0, r1, d9
 800ab60:	f7f5 fe74 	bl	800084c <__aeabi_ddiv>
 800ab64:	4632      	mov	r2, r6
 800ab66:	4604      	mov	r4, r0
 800ab68:	460d      	mov	r5, r1
 800ab6a:	463b      	mov	r3, r7
 800ab6c:	4640      	mov	r0, r8
 800ab6e:	4649      	mov	r1, r9
 800ab70:	f7f5 fd42 	bl	80005f8 <__aeabi_dmul>
 800ab74:	4632      	mov	r2, r6
 800ab76:	463b      	mov	r3, r7
 800ab78:	f7f5 fb88 	bl	800028c <__adddf3>
 800ab7c:	4602      	mov	r2, r0
 800ab7e:	460b      	mov	r3, r1
 800ab80:	4620      	mov	r0, r4
 800ab82:	4629      	mov	r1, r5
 800ab84:	f7f5 fb80 	bl	8000288 <__aeabi_dsub>
 800ab88:	4642      	mov	r2, r8
 800ab8a:	464b      	mov	r3, r9
 800ab8c:	f7f5 fb7c 	bl	8000288 <__aeabi_dsub>
 800ab90:	460b      	mov	r3, r1
 800ab92:	4602      	mov	r2, r0
 800ab94:	493a      	ldr	r1, [pc, #232]	; (800ac80 <__ieee754_pow+0xa30>)
 800ab96:	2000      	movs	r0, #0
 800ab98:	f7f5 fb76 	bl	8000288 <__aeabi_dsub>
 800ab9c:	e9cd 0100 	strd	r0, r1, [sp]
 800aba0:	9b01      	ldr	r3, [sp, #4]
 800aba2:	eb03 530a 	add.w	r3, r3, sl, lsl #20
 800aba6:	f5b3 1f80 	cmp.w	r3, #1048576	; 0x100000
 800abaa:	da2f      	bge.n	800ac0c <__ieee754_pow+0x9bc>
 800abac:	4650      	mov	r0, sl
 800abae:	ed9d 0b00 	vldr	d0, [sp]
 800abb2:	f000 f9c1 	bl	800af38 <scalbn>
 800abb6:	ec51 0b10 	vmov	r0, r1, d0
 800abba:	ec53 2b18 	vmov	r2, r3, d8
 800abbe:	f7ff bbe0 	b.w	800a382 <__ieee754_pow+0x132>
 800abc2:	4b30      	ldr	r3, [pc, #192]	; (800ac84 <__ieee754_pow+0xa34>)
 800abc4:	f021 4600 	bic.w	r6, r1, #2147483648	; 0x80000000
 800abc8:	429e      	cmp	r6, r3
 800abca:	f77f af0b 	ble.w	800a9e4 <__ieee754_pow+0x794>
 800abce:	4b2e      	ldr	r3, [pc, #184]	; (800ac88 <__ieee754_pow+0xa38>)
 800abd0:	440b      	add	r3, r1
 800abd2:	4303      	orrs	r3, r0
 800abd4:	d00b      	beq.n	800abee <__ieee754_pow+0x99e>
 800abd6:	a326      	add	r3, pc, #152	; (adr r3, 800ac70 <__ieee754_pow+0xa20>)
 800abd8:	e9d3 2300 	ldrd	r2, r3, [r3]
 800abdc:	ec51 0b18 	vmov	r0, r1, d8
 800abe0:	f7f5 fd0a 	bl	80005f8 <__aeabi_dmul>
 800abe4:	a322      	add	r3, pc, #136	; (adr r3, 800ac70 <__ieee754_pow+0xa20>)
 800abe6:	e9d3 2300 	ldrd	r2, r3, [r3]
 800abea:	f7ff bbca 	b.w	800a382 <__ieee754_pow+0x132>
 800abee:	4622      	mov	r2, r4
 800abf0:	462b      	mov	r3, r5
 800abf2:	f7f5 fb49 	bl	8000288 <__aeabi_dsub>
 800abf6:	4642      	mov	r2, r8
 800abf8:	464b      	mov	r3, r9
 800abfa:	f7f5 ff83 	bl	8000b04 <__aeabi_dcmpge>
 800abfe:	2800      	cmp	r0, #0
 800ac00:	f43f aef0 	beq.w	800a9e4 <__ieee754_pow+0x794>
 800ac04:	e7e7      	b.n	800abd6 <__ieee754_pow+0x986>
 800ac06:	f04f 0a00 	mov.w	sl, #0
 800ac0a:	e717      	b.n	800aa3c <__ieee754_pow+0x7ec>
 800ac0c:	e9dd 0100 	ldrd	r0, r1, [sp]
 800ac10:	4619      	mov	r1, r3
 800ac12:	e7d2      	b.n	800abba <__ieee754_pow+0x96a>
 800ac14:	491a      	ldr	r1, [pc, #104]	; (800ac80 <__ieee754_pow+0xa30>)
 800ac16:	2000      	movs	r0, #0
 800ac18:	f7ff bb9e 	b.w	800a358 <__ieee754_pow+0x108>
 800ac1c:	e9dd 0102 	ldrd	r0, r1, [sp, #8]
 800ac20:	f7ff bb9a 	b.w	800a358 <__ieee754_pow+0x108>
 800ac24:	9000      	str	r0, [sp, #0]
 800ac26:	f7ff bb76 	b.w	800a316 <__ieee754_pow+0xc6>
 800ac2a:	2100      	movs	r1, #0
 800ac2c:	f7ff bb60 	b.w	800a2f0 <__ieee754_pow+0xa0>
 800ac30:	00000000 	.word	0x00000000
 800ac34:	3fe62e43 	.word	0x3fe62e43
 800ac38:	fefa39ef 	.word	0xfefa39ef
 800ac3c:	3fe62e42 	.word	0x3fe62e42
 800ac40:	0ca86c39 	.word	0x0ca86c39
 800ac44:	be205c61 	.word	0xbe205c61
 800ac48:	72bea4d0 	.word	0x72bea4d0
 800ac4c:	3e663769 	.word	0x3e663769
 800ac50:	c5d26bf1 	.word	0xc5d26bf1
 800ac54:	3ebbbd41 	.word	0x3ebbbd41
 800ac58:	af25de2c 	.word	0xaf25de2c
 800ac5c:	3f11566a 	.word	0x3f11566a
 800ac60:	16bebd93 	.word	0x16bebd93
 800ac64:	3f66c16c 	.word	0x3f66c16c
 800ac68:	5555553e 	.word	0x5555553e
 800ac6c:	3fc55555 	.word	0x3fc55555
 800ac70:	c2f8f359 	.word	0xc2f8f359
 800ac74:	01a56e1f 	.word	0x01a56e1f
 800ac78:	3fe00000 	.word	0x3fe00000
 800ac7c:	000fffff 	.word	0x000fffff
 800ac80:	3ff00000 	.word	0x3ff00000
 800ac84:	4090cbff 	.word	0x4090cbff
 800ac88:	3f6f3400 	.word	0x3f6f3400
 800ac8c:	652b82fe 	.word	0x652b82fe
 800ac90:	3c971547 	.word	0x3c971547

0800ac94 <__ieee754_sqrt>:
 800ac94:	e92d 41f0 	stmdb	sp!, {r4, r5, r6, r7, r8, lr}
 800ac98:	ec55 4b10 	vmov	r4, r5, d0
 800ac9c:	4e56      	ldr	r6, [pc, #344]	; (800adf8 <__ieee754_sqrt+0x164>)
 800ac9e:	43ae      	bics	r6, r5
 800aca0:	ee10 0a10 	vmov	r0, s0
 800aca4:	ee10 3a10 	vmov	r3, s0
 800aca8:	4629      	mov	r1, r5
 800acaa:	462a      	mov	r2, r5
 800acac:	d110      	bne.n	800acd0 <__ieee754_sqrt+0x3c>
 800acae:	ee10 2a10 	vmov	r2, s0
 800acb2:	462b      	mov	r3, r5
 800acb4:	f7f5 fca0 	bl	80005f8 <__aeabi_dmul>
 800acb8:	4602      	mov	r2, r0
 800acba:	460b      	mov	r3, r1
 800acbc:	4620      	mov	r0, r4
 800acbe:	4629      	mov	r1, r5
 800acc0:	f7f5 fae4 	bl	800028c <__adddf3>
 800acc4:	4604      	mov	r4, r0
 800acc6:	460d      	mov	r5, r1
 800acc8:	ec45 4b10 	vmov	d0, r4, r5
 800accc:	e8bd 81f0 	ldmia.w	sp!, {r4, r5, r6, r7, r8, pc}
 800acd0:	2d00      	cmp	r5, #0
 800acd2:	dc10      	bgt.n	800acf6 <__ieee754_sqrt+0x62>
 800acd4:	f025 4600 	bic.w	r6, r5, #2147483648	; 0x80000000
 800acd8:	4330      	orrs	r0, r6
 800acda:	d0f5      	beq.n	800acc8 <__ieee754_sqrt+0x34>
 800acdc:	b15d      	cbz	r5, 800acf6 <__ieee754_sqrt+0x62>
 800acde:	ee10 2a10 	vmov	r2, s0
 800ace2:	462b      	mov	r3, r5
 800ace4:	ee10 0a10 	vmov	r0, s0
 800ace8:	f7f5 face 	bl	8000288 <__aeabi_dsub>
 800acec:	4602      	mov	r2, r0
 800acee:	460b      	mov	r3, r1
 800acf0:	f7f5 fdac 	bl	800084c <__aeabi_ddiv>
 800acf4:	e7e6      	b.n	800acc4 <__ieee754_sqrt+0x30>
 800acf6:	1509      	asrs	r1, r1, #20
 800acf8:	d076      	beq.n	800ade8 <__ieee754_sqrt+0x154>
 800acfa:	f3c2 0213 	ubfx	r2, r2, #0, #20
 800acfe:	07ce      	lsls	r6, r1, #31
 800ad00:	f442 1080 	orr.w	r0, r2, #1048576	; 0x100000
 800ad04:	bf5e      	ittt	pl
 800ad06:	0fda      	lsrpl	r2, r3, #31
 800ad08:	005b      	lslpl	r3, r3, #1
 800ad0a:	eb02 0040 	addpl.w	r0, r2, r0, lsl #1
 800ad0e:	0fda      	lsrs	r2, r3, #31
 800ad10:	f2a1 35ff 	subw	r5, r1, #1023	; 0x3ff
 800ad14:	eb02 0240 	add.w	r2, r2, r0, lsl #1
 800ad18:	2000      	movs	r0, #0
 800ad1a:	106d      	asrs	r5, r5, #1
 800ad1c:	005b      	lsls	r3, r3, #1
 800ad1e:	f04f 0e16 	mov.w	lr, #22
 800ad22:	4684      	mov	ip, r0
 800ad24:	f44f 1100 	mov.w	r1, #2097152	; 0x200000
 800ad28:	eb0c 0401 	add.w	r4, ip, r1
 800ad2c:	4294      	cmp	r4, r2
 800ad2e:	bfde      	ittt	le
 800ad30:	1b12      	suble	r2, r2, r4
 800ad32:	eb04 0c01 	addle.w	ip, r4, r1
 800ad36:	1840      	addle	r0, r0, r1
 800ad38:	0052      	lsls	r2, r2, #1
 800ad3a:	f1be 0e01 	subs.w	lr, lr, #1
 800ad3e:	eb02 72d3 	add.w	r2, r2, r3, lsr #31
 800ad42:	ea4f 0151 	mov.w	r1, r1, lsr #1
 800ad46:	ea4f 0343 	mov.w	r3, r3, lsl #1
 800ad4a:	d1ed      	bne.n	800ad28 <__ieee754_sqrt+0x94>
 800ad4c:	4671      	mov	r1, lr
 800ad4e:	2720      	movs	r7, #32
 800ad50:	f04f 4400 	mov.w	r4, #2147483648	; 0x80000000
 800ad54:	4562      	cmp	r2, ip
 800ad56:	eb04 060e 	add.w	r6, r4, lr
 800ad5a:	dc02      	bgt.n	800ad62 <__ieee754_sqrt+0xce>
 800ad5c:	d113      	bne.n	800ad86 <__ieee754_sqrt+0xf2>
 800ad5e:	429e      	cmp	r6, r3
 800ad60:	d811      	bhi.n	800ad86 <__ieee754_sqrt+0xf2>
 800ad62:	2e00      	cmp	r6, #0
 800ad64:	eb06 0e04 	add.w	lr, r6, r4
 800ad68:	da43      	bge.n	800adf2 <__ieee754_sqrt+0x15e>
 800ad6a:	f1be 0f00 	cmp.w	lr, #0
 800ad6e:	db40      	blt.n	800adf2 <__ieee754_sqrt+0x15e>
 800ad70:	f10c 0801 	add.w	r8, ip, #1
 800ad74:	eba2 020c 	sub.w	r2, r2, ip
 800ad78:	429e      	cmp	r6, r3
 800ad7a:	bf88      	it	hi
 800ad7c:	f102 32ff 	addhi.w	r2, r2, #4294967295
 800ad80:	1b9b      	subs	r3, r3, r6
 800ad82:	4421      	add	r1, r4
 800ad84:	46c4      	mov	ip, r8
 800ad86:	0052      	lsls	r2, r2, #1
 800ad88:	3f01      	subs	r7, #1
 800ad8a:	eb02 72d3 	add.w	r2, r2, r3, lsr #31
 800ad8e:	ea4f 0454 	mov.w	r4, r4, lsr #1
 800ad92:	ea4f 0343 	mov.w	r3, r3, lsl #1
 800ad96:	d1dd      	bne.n	800ad54 <__ieee754_sqrt+0xc0>
 800ad98:	4313      	orrs	r3, r2
 800ad9a:	d006      	beq.n	800adaa <__ieee754_sqrt+0x116>
 800ad9c:	1c4c      	adds	r4, r1, #1
 800ad9e:	bf13      	iteet	ne
 800ada0:	3101      	addne	r1, #1
 800ada2:	3001      	addeq	r0, #1
 800ada4:	4639      	moveq	r1, r7
 800ada6:	f021 0101 	bicne.w	r1, r1, #1
 800adaa:	1043      	asrs	r3, r0, #1
 800adac:	f103 537f 	add.w	r3, r3, #1069547520	; 0x3fc00000
 800adb0:	0849      	lsrs	r1, r1, #1
 800adb2:	f503 1300 	add.w	r3, r3, #2097152	; 0x200000
 800adb6:	07c2      	lsls	r2, r0, #31
 800adb8:	bf48      	it	mi
 800adba:	f041 4100 	orrmi.w	r1, r1, #2147483648	; 0x80000000
 800adbe:	eb03 5705 	add.w	r7, r3, r5, lsl #20
 800adc2:	460c      	mov	r4, r1
 800adc4:	463d      	mov	r5, r7
 800adc6:	e77f      	b.n	800acc8 <__ieee754_sqrt+0x34>
 800adc8:	0ada      	lsrs	r2, r3, #11
 800adca:	3815      	subs	r0, #21
 800adcc:	055b      	lsls	r3, r3, #21
 800adce:	2a00      	cmp	r2, #0
 800add0:	d0fa      	beq.n	800adc8 <__ieee754_sqrt+0x134>
 800add2:	02d7      	lsls	r7, r2, #11
 800add4:	d50a      	bpl.n	800adec <__ieee754_sqrt+0x158>
 800add6:	f1c1 0420 	rsb	r4, r1, #32
 800adda:	fa23 f404 	lsr.w	r4, r3, r4
 800adde:	1e4d      	subs	r5, r1, #1
 800ade0:	408b      	lsls	r3, r1
 800ade2:	4322      	orrs	r2, r4
 800ade4:	1b41      	subs	r1, r0, r5
 800ade6:	e788      	b.n	800acfa <__ieee754_sqrt+0x66>
 800ade8:	4608      	mov	r0, r1
 800adea:	e7f0      	b.n	800adce <__ieee754_sqrt+0x13a>
 800adec:	0052      	lsls	r2, r2, #1
 800adee:	3101      	adds	r1, #1
 800adf0:	e7ef      	b.n	800add2 <__ieee754_sqrt+0x13e>
 800adf2:	46e0      	mov	r8, ip
 800adf4:	e7be      	b.n	800ad74 <__ieee754_sqrt+0xe0>
 800adf6:	bf00      	nop
 800adf8:	7ff00000 	.word	0x7ff00000

0800adfc <fabs>:
 800adfc:	ec51 0b10 	vmov	r0, r1, d0
 800ae00:	ee10 2a10 	vmov	r2, s0
 800ae04:	f021 4300 	bic.w	r3, r1, #2147483648	; 0x80000000
 800ae08:	ec43 2b10 	vmov	d0, r2, r3
 800ae0c:	4770      	bx	lr

0800ae0e <finite>:
 800ae0e:	b082      	sub	sp, #8
 800ae10:	ed8d 0b00 	vstr	d0, [sp]
 800ae14:	9801      	ldr	r0, [sp, #4]
 800ae16:	f040 4000 	orr.w	r0, r0, #2147483648	; 0x80000000
 800ae1a:	f500 1080 	add.w	r0, r0, #1048576	; 0x100000
 800ae1e:	0fc0      	lsrs	r0, r0, #31
 800ae20:	b002      	add	sp, #8
 800ae22:	4770      	bx	lr

0800ae24 <rint>:
 800ae24:	b5f7      	push	{r0, r1, r2, r4, r5, r6, r7, lr}
 800ae26:	ec51 0b10 	vmov	r0, r1, d0
 800ae2a:	f3c1 520a 	ubfx	r2, r1, #20, #11
 800ae2e:	f2a2 36ff 	subw	r6, r2, #1023	; 0x3ff
 800ae32:	2e13      	cmp	r6, #19
 800ae34:	ee10 4a10 	vmov	r4, s0
 800ae38:	460b      	mov	r3, r1
 800ae3a:	ea4f 75d1 	mov.w	r5, r1, lsr #31
 800ae3e:	dc58      	bgt.n	800aef2 <rint+0xce>
 800ae40:	2e00      	cmp	r6, #0
 800ae42:	da2b      	bge.n	800ae9c <rint+0x78>
 800ae44:	f021 4200 	bic.w	r2, r1, #2147483648	; 0x80000000
 800ae48:	4302      	orrs	r2, r0
 800ae4a:	d023      	beq.n	800ae94 <rint+0x70>
 800ae4c:	f3c1 0213 	ubfx	r2, r1, #0, #20
 800ae50:	4302      	orrs	r2, r0
 800ae52:	4254      	negs	r4, r2
 800ae54:	4314      	orrs	r4, r2
 800ae56:	0c4b      	lsrs	r3, r1, #17
 800ae58:	0b24      	lsrs	r4, r4, #12
 800ae5a:	045b      	lsls	r3, r3, #17
 800ae5c:	f404 2400 	and.w	r4, r4, #524288	; 0x80000
 800ae60:	ea44 0103 	orr.w	r1, r4, r3
 800ae64:	4b32      	ldr	r3, [pc, #200]	; (800af30 <rint+0x10c>)
 800ae66:	eb03 03c5 	add.w	r3, r3, r5, lsl #3
 800ae6a:	e9d3 6700 	ldrd	r6, r7, [r3]
 800ae6e:	4602      	mov	r2, r0
 800ae70:	460b      	mov	r3, r1
 800ae72:	4630      	mov	r0, r6
 800ae74:	4639      	mov	r1, r7
 800ae76:	f7f5 fa09 	bl	800028c <__adddf3>
 800ae7a:	e9cd 0100 	strd	r0, r1, [sp]
 800ae7e:	463b      	mov	r3, r7
 800ae80:	e9dd 0100 	ldrd	r0, r1, [sp]
 800ae84:	4632      	mov	r2, r6
 800ae86:	f7f5 f9ff 	bl	8000288 <__aeabi_dsub>
 800ae8a:	f021 4300 	bic.w	r3, r1, #2147483648	; 0x80000000
 800ae8e:	ea43 77c5 	orr.w	r7, r3, r5, lsl #31
 800ae92:	4639      	mov	r1, r7
 800ae94:	ec41 0b10 	vmov	d0, r0, r1
 800ae98:	b003      	add	sp, #12
 800ae9a:	bdf0      	pop	{r4, r5, r6, r7, pc}
 800ae9c:	4a25      	ldr	r2, [pc, #148]	; (800af34 <rint+0x110>)
 800ae9e:	4132      	asrs	r2, r6
 800aea0:	ea01 0702 	and.w	r7, r1, r2
 800aea4:	4307      	orrs	r7, r0
 800aea6:	d0f5      	beq.n	800ae94 <rint+0x70>
 800aea8:	0851      	lsrs	r1, r2, #1
 800aeaa:	ea03 0252 	and.w	r2, r3, r2, lsr #1
 800aeae:	4314      	orrs	r4, r2
 800aeb0:	d00c      	beq.n	800aecc <rint+0xa8>
 800aeb2:	ea23 0201 	bic.w	r2, r3, r1
 800aeb6:	f44f 2380 	mov.w	r3, #262144	; 0x40000
 800aeba:	2e13      	cmp	r6, #19
 800aebc:	fa43 f606 	asr.w	r6, r3, r6
 800aec0:	bf0c      	ite	eq
 800aec2:	f04f 4400 	moveq.w	r4, #2147483648	; 0x80000000
 800aec6:	2400      	movne	r4, #0
 800aec8:	ea42 0306 	orr.w	r3, r2, r6
 800aecc:	4918      	ldr	r1, [pc, #96]	; (800af30 <rint+0x10c>)
 800aece:	eb01 05c5 	add.w	r5, r1, r5, lsl #3
 800aed2:	4622      	mov	r2, r4
 800aed4:	e9d5 4500 	ldrd	r4, r5, [r5]
 800aed8:	4620      	mov	r0, r4
 800aeda:	4629      	mov	r1, r5
 800aedc:	f7f5 f9d6 	bl	800028c <__adddf3>
 800aee0:	e9cd 0100 	strd	r0, r1, [sp]
 800aee4:	e9dd 0100 	ldrd	r0, r1, [sp]
 800aee8:	4622      	mov	r2, r4
 800aeea:	462b      	mov	r3, r5
 800aeec:	f7f5 f9cc 	bl	8000288 <__aeabi_dsub>
 800aef0:	e7d0      	b.n	800ae94 <rint+0x70>
 800aef2:	2e33      	cmp	r6, #51	; 0x33
 800aef4:	dd07      	ble.n	800af06 <rint+0xe2>
 800aef6:	f5b6 6f80 	cmp.w	r6, #1024	; 0x400
 800aefa:	d1cb      	bne.n	800ae94 <rint+0x70>
 800aefc:	ee10 2a10 	vmov	r2, s0
 800af00:	f7f5 f9c4 	bl	800028c <__adddf3>
 800af04:	e7c6      	b.n	800ae94 <rint+0x70>
 800af06:	f2a2 4213 	subw	r2, r2, #1043	; 0x413
 800af0a:	f04f 36ff 	mov.w	r6, #4294967295
 800af0e:	40d6      	lsrs	r6, r2
 800af10:	4230      	tst	r0, r6
 800af12:	d0bf      	beq.n	800ae94 <rint+0x70>
 800af14:	ea14 0056 	ands.w	r0, r4, r6, lsr #1
 800af18:	ea4f 0156 	mov.w	r1, r6, lsr #1
 800af1c:	bf1f      	itttt	ne
 800af1e:	ea24 0101 	bicne.w	r1, r4, r1
 800af22:	f04f 4480 	movne.w	r4, #1073741824	; 0x40000000
 800af26:	fa44 f202 	asrne.w	r2, r4, r2
 800af2a:	ea41 0402 	orrne.w	r4, r1, r2
 800af2e:	e7cd      	b.n	800aecc <rint+0xa8>
 800af30:	0800b630 	.word	0x0800b630
 800af34:	000fffff 	.word	0x000fffff

0800af38 <scalbn>:
 800af38:	b570      	push	{r4, r5, r6, lr}
 800af3a:	ec55 4b10 	vmov	r4, r5, d0
 800af3e:	f3c5 520a 	ubfx	r2, r5, #20, #11
 800af42:	4606      	mov	r6, r0
 800af44:	462b      	mov	r3, r5
 800af46:	b99a      	cbnz	r2, 800af70 <scalbn+0x38>
 800af48:	f025 4300 	bic.w	r3, r5, #2147483648	; 0x80000000
 800af4c:	4323      	orrs	r3, r4
 800af4e:	d036      	beq.n	800afbe <scalbn+0x86>
 800af50:	4b39      	ldr	r3, [pc, #228]	; (800b038 <scalbn+0x100>)
 800af52:	4629      	mov	r1, r5
 800af54:	ee10 0a10 	vmov	r0, s0
 800af58:	2200      	movs	r2, #0
 800af5a:	f7f5 fb4d 	bl	80005f8 <__aeabi_dmul>
 800af5e:	4b37      	ldr	r3, [pc, #220]	; (800b03c <scalbn+0x104>)
 800af60:	429e      	cmp	r6, r3
 800af62:	4604      	mov	r4, r0
 800af64:	460d      	mov	r5, r1
 800af66:	da10      	bge.n	800af8a <scalbn+0x52>
 800af68:	a32b      	add	r3, pc, #172	; (adr r3, 800b018 <scalbn+0xe0>)
 800af6a:	e9d3 2300 	ldrd	r2, r3, [r3]
 800af6e:	e03a      	b.n	800afe6 <scalbn+0xae>
 800af70:	f240 71ff 	movw	r1, #2047	; 0x7ff
 800af74:	428a      	cmp	r2, r1
 800af76:	d10c      	bne.n	800af92 <scalbn+0x5a>
 800af78:	ee10 2a10 	vmov	r2, s0
 800af7c:	4620      	mov	r0, r4
 800af7e:	4629      	mov	r1, r5
 800af80:	f7f5 f984 	bl	800028c <__adddf3>
 800af84:	4604      	mov	r4, r0
 800af86:	460d      	mov	r5, r1
 800af88:	e019      	b.n	800afbe <scalbn+0x86>
 800af8a:	f3c1 520a 	ubfx	r2, r1, #20, #11
 800af8e:	460b      	mov	r3, r1
 800af90:	3a36      	subs	r2, #54	; 0x36
 800af92:	4432      	add	r2, r6
 800af94:	f240 71fe 	movw	r1, #2046	; 0x7fe
 800af98:	428a      	cmp	r2, r1
 800af9a:	dd08      	ble.n	800afae <scalbn+0x76>
 800af9c:	2d00      	cmp	r5, #0
 800af9e:	a120      	add	r1, pc, #128	; (adr r1, 800b020 <scalbn+0xe8>)
 800afa0:	e9d1 0100 	ldrd	r0, r1, [r1]
 800afa4:	da1c      	bge.n	800afe0 <scalbn+0xa8>
 800afa6:	a120      	add	r1, pc, #128	; (adr r1, 800b028 <scalbn+0xf0>)
 800afa8:	e9d1 0100 	ldrd	r0, r1, [r1]
 800afac:	e018      	b.n	800afe0 <scalbn+0xa8>
 800afae:	2a00      	cmp	r2, #0
 800afb0:	dd08      	ble.n	800afc4 <scalbn+0x8c>
 800afb2:	f023 43ff 	bic.w	r3, r3, #2139095040	; 0x7f800000
 800afb6:	f423 03e0 	bic.w	r3, r3, #7340032	; 0x700000
 800afba:	ea43 5502 	orr.w	r5, r3, r2, lsl #20
 800afbe:	ec45 4b10 	vmov	d0, r4, r5
 800afc2:	bd70      	pop	{r4, r5, r6, pc}
 800afc4:	f112 0f35 	cmn.w	r2, #53	; 0x35
 800afc8:	da19      	bge.n	800affe <scalbn+0xc6>
 800afca:	f24c 3350 	movw	r3, #50000	; 0xc350
 800afce:	429e      	cmp	r6, r3
 800afd0:	f005 4300 	and.w	r3, r5, #2147483648	; 0x80000000
 800afd4:	dd0a      	ble.n	800afec <scalbn+0xb4>
 800afd6:	a112      	add	r1, pc, #72	; (adr r1, 800b020 <scalbn+0xe8>)
 800afd8:	e9d1 0100 	ldrd	r0, r1, [r1]
 800afdc:	2b00      	cmp	r3, #0
 800afde:	d1e2      	bne.n	800afa6 <scalbn+0x6e>
 800afe0:	a30f      	add	r3, pc, #60	; (adr r3, 800b020 <scalbn+0xe8>)
 800afe2:	e9d3 2300 	ldrd	r2, r3, [r3]
 800afe6:	f7f5 fb07 	bl	80005f8 <__aeabi_dmul>
 800afea:	e7cb      	b.n	800af84 <scalbn+0x4c>
 800afec:	a10a      	add	r1, pc, #40	; (adr r1, 800b018 <scalbn+0xe0>)
 800afee:	e9d1 0100 	ldrd	r0, r1, [r1]
 800aff2:	2b00      	cmp	r3, #0
 800aff4:	d0b8      	beq.n	800af68 <scalbn+0x30>
 800aff6:	a10e      	add	r1, pc, #56	; (adr r1, 800b030 <scalbn+0xf8>)
 800aff8:	e9d1 0100 	ldrd	r0, r1, [r1]
 800affc:	e7b4      	b.n	800af68 <scalbn+0x30>
 800affe:	f023 43ff 	bic.w	r3, r3, #2139095040	; 0x7f800000
 800b002:	3236      	adds	r2, #54	; 0x36
 800b004:	f423 03e0 	bic.w	r3, r3, #7340032	; 0x700000
 800b008:	ea43 5102 	orr.w	r1, r3, r2, lsl #20
 800b00c:	4620      	mov	r0, r4
 800b00e:	4b0c      	ldr	r3, [pc, #48]	; (800b040 <scalbn+0x108>)
 800b010:	2200      	movs	r2, #0
 800b012:	e7e8      	b.n	800afe6 <scalbn+0xae>
 800b014:	f3af 8000 	nop.w
 800b018:	c2f8f359 	.word	0xc2f8f359
 800b01c:	01a56e1f 	.word	0x01a56e1f
 800b020:	8800759c 	.word	0x8800759c
 800b024:	7e37e43c 	.word	0x7e37e43c
 800b028:	8800759c 	.word	0x8800759c
 800b02c:	fe37e43c 	.word	0xfe37e43c
 800b030:	c2f8f359 	.word	0xc2f8f359
 800b034:	81a56e1f 	.word	0x81a56e1f
 800b038:	43500000 	.word	0x43500000
 800b03c:	ffff3cb0 	.word	0xffff3cb0
 800b040:	3c900000 	.word	0x3c900000

0800b044 <_init>:
 800b044:	b5f8      	push	{r3, r4, r5, r6, r7, lr}
 800b046:	bf00      	nop
 800b048:	bcf8      	pop	{r3, r4, r5, r6, r7}
 800b04a:	bc08      	pop	{r3}
 800b04c:	469e      	mov	lr, r3
 800b04e:	4770      	bx	lr

0800b050 <_fini>:
 800b050:	b5f8      	push	{r3, r4, r5, r6, r7, lr}
 800b052:	bf00      	nop
 800b054:	bcf8      	pop	{r3, r4, r5, r6, r7}
 800b056:	bc08      	pop	{r3}
 800b058:	469e      	mov	lr, r3
 800b05a:	4770      	bx	lr
